
hollow.ino.elf:     file format elf32-avr


Disassembly of section .text:

00000000 <__vectors>:
       0:	0c 94 2d 08 	jmp	0x105a	; 0x105a <__ctors_end>
       4:	0c 94 55 08 	jmp	0x10aa	; 0x10aa <__bad_interrupt>
       8:	0c 94 55 08 	jmp	0x10aa	; 0x10aa <__bad_interrupt>
       c:	0c 94 55 08 	jmp	0x10aa	; 0x10aa <__bad_interrupt>
      10:	0c 94 55 08 	jmp	0x10aa	; 0x10aa <__bad_interrupt>
      14:	0c 94 55 08 	jmp	0x10aa	; 0x10aa <__bad_interrupt>
      18:	0c 94 55 08 	jmp	0x10aa	; 0x10aa <__bad_interrupt>
      1c:	0c 94 55 08 	jmp	0x10aa	; 0x10aa <__bad_interrupt>
      20:	0c 94 55 08 	jmp	0x10aa	; 0x10aa <__bad_interrupt>
      24:	0c 94 55 08 	jmp	0x10aa	; 0x10aa <__bad_interrupt>
      28:	0c 94 05 1f 	jmp	0x3e0a	; 0x3e0a <__vector_10>
      2c:	0c 94 74 1f 	jmp	0x3ee8	; 0x3ee8 <__vector_11>
      30:	0c 94 55 08 	jmp	0x10aa	; 0x10aa <__bad_interrupt>
      34:	0c 94 55 08 	jmp	0x10aa	; 0x10aa <__bad_interrupt>
      38:	0c 94 55 08 	jmp	0x10aa	; 0x10aa <__bad_interrupt>
      3c:	0c 94 55 08 	jmp	0x10aa	; 0x10aa <__bad_interrupt>
      40:	0c 94 55 08 	jmp	0x10aa	; 0x10aa <__bad_interrupt>
      44:	0c 94 48 22 	jmp	0x4490	; 0x4490 <__vector_17>
      48:	0c 94 55 08 	jmp	0x10aa	; 0x10aa <__bad_interrupt>
      4c:	0c 94 55 08 	jmp	0x10aa	; 0x10aa <__bad_interrupt>
      50:	0c 94 55 08 	jmp	0x10aa	; 0x10aa <__bad_interrupt>
      54:	0c 94 55 08 	jmp	0x10aa	; 0x10aa <__bad_interrupt>
      58:	0c 94 55 08 	jmp	0x10aa	; 0x10aa <__bad_interrupt>
      5c:	0c 94 a6 21 	jmp	0x434c	; 0x434c <__vector_23>
      60:	0c 94 55 08 	jmp	0x10aa	; 0x10aa <__bad_interrupt>
      64:	0c 94 55 08 	jmp	0x10aa	; 0x10aa <__bad_interrupt>
      68:	0c 94 55 08 	jmp	0x10aa	; 0x10aa <__bad_interrupt>
      6c:	0c 94 55 08 	jmp	0x10aa	; 0x10aa <__bad_interrupt>
      70:	0c 94 55 08 	jmp	0x10aa	; 0x10aa <__bad_interrupt>
      74:	0c 94 55 08 	jmp	0x10aa	; 0x10aa <__bad_interrupt>
      78:	0c 94 55 08 	jmp	0x10aa	; 0x10aa <__bad_interrupt>
      7c:	0c 94 55 08 	jmp	0x10aa	; 0x10aa <__bad_interrupt>
      80:	0c 94 f0 21 	jmp	0x43e0	; 0x43e0 <__vector_32>
      84:	0c 94 55 08 	jmp	0x10aa	; 0x10aa <__bad_interrupt>
      88:	0c 94 55 08 	jmp	0x10aa	; 0x10aa <__bad_interrupt>
      8c:	0c 94 55 08 	jmp	0x10aa	; 0x10aa <__bad_interrupt>
      90:	0c 94 55 08 	jmp	0x10aa	; 0x10aa <__bad_interrupt>
      94:	0c 94 55 08 	jmp	0x10aa	; 0x10aa <__bad_interrupt>
      98:	0c 94 55 08 	jmp	0x10aa	; 0x10aa <__bad_interrupt>
      9c:	0c 94 55 08 	jmp	0x10aa	; 0x10aa <__bad_interrupt>
      a0:	0c 94 55 08 	jmp	0x10aa	; 0x10aa <__bad_interrupt>
      a4:	0c 94 55 08 	jmp	0x10aa	; 0x10aa <__bad_interrupt>
      a8:	0c 94 55 08 	jmp	0x10aa	; 0x10aa <__bad_interrupt>
      ac:	05 a8       	ldd	r0, Z+53	; 0x35
      ae:	4c cd       	rjmp	.-1384   	; 0xfffffb48 <__eeprom_end+0xff7efb48>
      b0:	b2 d4       	rcall	.+2404   	; 0xa16 <_ZL4font+0x9e>
      b2:	4e b9       	out	0x0e, r20	; 14
      b4:	38 36       	cpi	r19, 0x68	; 104
      b6:	a9 02       	muls	r26, r25
      b8:	0c 50       	subi	r16, 0x0C	; 12
      ba:	b9 91       	ld	r27, Y+
      bc:	86 88       	ldd	r8, Z+22	; 0x16
      be:	08 3c       	cpi	r16, 0xC8	; 200
      c0:	a6 aa       	std	Z+54, r10	; 0x36
      c2:	aa 2a       	or	r10, r26
      c4:	be 00       	.word	0x00be	; ????
      c6:	00 00       	nop
      c8:	80 3f       	cpi	r24, 0xF0	; 240

000000ca <__trampolines_end>:
      ca:	54 48       	sbci	r21, 0x84	; 132
      cc:	45 20       	and	r4, r5
      ce:	4d 49       	sbci	r20, 0x9D	; 157
      d0:	54 20       	and	r5, r4
      d2:	4c 49       	sbci	r20, 0x9C	; 156
      d4:	43 45       	sbci	r20, 0x53	; 83
      d6:	4e 53       	subi	r20, 0x3E	; 62
      d8:	45 2e       	mov	r4, r21
	...

000000db <_ZL7credit4>:
      db:	52 45 4c 45 41 53 45 44 20 55 4e 44 45 52 00        RELEASED UNDER.

000000ea <_ZL7credit3>:
      ea:	54 48 49 53 20 50 52 4f 47 52 41 4d 20 49 53 00     THIS PROGRAM IS.

000000fa <_ZL7credit2>:
      fa:	50 52 4f 47 52 45 4d 4d 45 44 20 42 59 20 4f 42     PROGREMMED BY OB
     10a:	4f 4e 4f 00                                         ONO.

0000010e <_ZL7credit1>:
     10e:	44 45 43 45 4d 42 45 52 20 32 30 31 36 00           DECEMBER 2016.

0000011c <_ZL7credit0>:
     11c:	2d 20 48 4f 4c 4c 4f 57 20 53 45 45 4b 45 52 20     - HOLLOW SEEKER 
     12c:	2d 00                                               -.

0000012e <_ZL10menuCredit>:
     12e:	43 52 45 44 49 54 00                                CREDIT.

00000135 <_ZL10menuRecord>:
     135:	52 45 43 4f 52 44 00                                RECORD.

0000013c <_ZL8menuGame>:
     13c:	53 54 41 52 54 20 47 41 4d 45 00                    START GAME.

00000147 <_ZL7imgFont>:
     147:	00 00 00 00 00 70 01 00 c0 00 0c 00 ca a7 7c 0a     .....p........|.
     157:	42 f5 55 08 53 42 48 19 5e f5 51 12 00 30 00 00     B.U.SBH.^.Q..0..
     167:	00 27 45 00 40 94 1c 00 14 f3 19 05 04 f1 11 04     .'E.@...........
     177:	20 04 00 00 04 41 10 04 00 04 00 00 10 42 08 01      ....A.......B..
     187:	5e 14 45 0f 40 f0 01 00 59 55 55 13 51 55 5d 0d     ^.E.@...YUU.QU].
     197:	8c 92 7c 08 57 55 55 0d 5e 55 55 0d 51 52 0c 01     ..|.WUU.^UU.QR..
     1a7:	5e 55 55 0f 56 55 55 0f 00 a0 00 00 00 a4 00 00     ^UU.VUU.........
     1b7:	00 c2 28 00 80 a2 28 00 80 62 08 00 40 50 0d 00     ..(...(..b..@P..
     1c7:	00 e3 18 00 9c 92 24 1f 5f 55 5d 0d 9c 14 45 11     ......$._U]...E.
     1d7:	5f 14 25 07 5f 55 55 11 5f 51 14 01 5e 54 55 1d     _.%._UU._Q..^TU.
     1e7:	1f 41 10 1f 40 f4 45 00 10 04 21 07 1f 41 18 1d     .A..@.E...!..A..
     1f7:	1f 04 41 10 5e f0 04 1f 9c 10 04 1f 5e 54 45 0f     ..A.^.......^TE.
     207:	5f 92 14 03 5e d4 45 1f 5f 92 34 1b 56 55 55 0d     _...^.E._.4.VUU.
     217:	41 f0 05 01 1f 04 21 07 1f 42 08 01 1f e4 41 0f     A.....!..B....A.
     227:	17 43 18 1d 07 c1 09 01 51 56 4d 11 00 f0 45 00     .C......QVM...E.
     237:	00 f0 01 00 40 f4 01 00 80 10 0c 00 10 04 41 10     ....@.........A.

00000247 <_ZL10soundStart>:
     247:	90 48 00 64 80 00 19 90 4a 00 64 80 00 19 90 4c     .H.d....J.d....L
     257:	00 64 80 00 19 90 4d 00 64 80 00 19 90 4f 00 c8     .d....M.d....O..
     267:	80 f0                                               ..

00000269 <_ZL13soundGameOver>:
     269:	90 37 00 78 80 00 0a 90 36 00 8c 80 00 14 90 35     .7.x....6......5
     279:	00 a0 80 00 1e 90 34 00 b4 80 00 28 90 33 00 c8     ......4....(.3..
     289:	80 00 32 90 32 00 dc 80 00 3c 90 31 00 f0 80 00     ..2.2....<.1....
     299:	46 90 30 00 04 80 f0                                F.0....

000002a0 <_ZL9soundMove>:
     2a0:	90 43 00 0a 90 4f 00 0a 90 4c 00 0a 80 f0           .C...O...L....

000002ae <_ZL10soundCrush>:
     2ae:	90 14 91 13 01 f4 80 81 f0                          .........

000002b7 <_ZL9imgPlayer>:
     2b7:	10 83 ac 69 6d ad 82 10 00 13 6c 69 ed ad 02 20     ...im.....li... 
     2c7:	00 23 2c e9 ed 2d 02 20 20 06 d8 d2 5a 5a c4 10     .#,..-.  ...ZZ..
     2d7:	10 82 ad 6d 69 ac 83 10 20 02 ad ed 69 6c 13 00     ...mi... ...il..
     2e7:	20 02 2d ed e9 2c 23 00 10 c4 5a 5a d2 d8 06 20      .-..,#...ZZ... 

000002f7 <_ZZ8drawGamevE3__c_1>:
     2f7:	4e 45 57 20 52 45 43 4f 52 44 00                    NEW RECORD.

00000302 <_ZZ8drawGamevE3__c_0>:
     302:	53 43 4f 52 45 00                                   SCORE.

00000308 <_ZZ8drawGamevE3__c>:
     308:	59 4f 55 52 00                                      YOUR.

0000030d <_ZL11imgGameOver>:
     30d:	00 00 e0 f0 f8 3c 9c 9c 9c 9c 9c 80 00 00 c0 60     .....<.........`
     31d:	60 60 60 e0 c0 80 00 e0 e0 e0 40 60 60 e0 e0 c0     ```.......@``...
     32d:	60 60 e0 e0 c0 00 80 c0 e0 e0 60 60 e0 c0 80 00     ``........``....
     33d:	e0 f0 f8 3c 1c 1c 1c 3c f8 f0 e0 00 60 e0 e0 e0     ...<...<....`...
     34d:	00 00 e0 e0 e0 60 80 c0 e0 e0 60 60 e0 c0 80 00     .....`....``....
     35d:	e0 e0 e0 c0 e0 e0 00 00 00 00 07 0f 1f 3c 3b 3b     .............<;;
     36d:	3b 3f 3f 1f 00 1c 3e 3f 33 33 13 3f 3f 3f 00 3f     ;??...>?33.???.?
     37d:	3f 3f 00 00 00 3f 3f 3f 00 00 3f 3f 3f 00 0f 1f     ??...???..???...
     38d:	3f 36 36 36 37 37 07 00 07 0f 1f 3c 38 38 38 3c     ?66677.....<888<
     39d:	1f 0f 07 00 00 03 1f 3f 3e 3e 3f 1f 03 00 0f 1f     .......?>>?.....
     3ad:	3f 36 36 36 37 37 07 00 3f 3f 3f 00 00 00 00 00     ?66677..???.....

000003bd <_ZL8imgReady>:
     3bd:	00 00 fc fc fc 8c 8c cc fc f8 78 00 80 c0 e0 e0     ..........x.....
     3cd:	60 60 e0 c0 80 00 00 c0 60 60 60 60 e0 c0 80 00     ``......````....
     3dd:	80 c0 e0 e0 e0 e0 c0 fe fe fe 00 20 e0 e0 e0 00     ........... ....
     3ed:	00 e0 e0 e0 60 00 00 38 1c 1c 9c fc fc 78 00 00     ....`..8.....x..
     3fd:	00 00 3f 3f 3f 03 07 1f 3e 3e 38 20 0f 1f 3f 36     ..???...>>8 ..?6
     40d:	36 36 37 37 07 00 1c 3e 3f 33 33 13 3f 3f 3f 00     6677...>?33.???.
     41d:	0f 1f 3f 31 30 30 18 3f 3f 3f 00 00 00 c3 cf ff     ..?100.???......
     42d:	fc 7f 1f 03 00 00 00 00 38 3b 3b 39 00 00 00 00     ........8;;9....

0000043d <_ZL7imgCave>:
     43d:	90 06 4e e4 c0 88 18 99                             ..N.....

00000445 <_ZL9imgNumber>:
     445:	e0 f8 fc 1c 1c fc f8 f0 0f 1f 3f 38 38 3f 1f 07     ..........?88?..
     455:	38 38 38 fc fc fc 00 00 00 00 00 3f 3f 3f 00 00     888........???..
     465:	00 38 1c 1c 9c fc f8 78 38 3c 3e 3b 3b 39 38 38     .8.....x8<>;;988
     475:	00 1c dc dc dc fc 78 38 00 38 39 39 39 3f 1f 0e     ......x8.8999?..
     485:	00 c0 f0 7c fc fc fc 00 0f 0f 0d 0c 3f 3f 3f 0c     ...|........???.
     495:	fc fc fc fc dc dc 9c 00 39 38 38 38 38 3f 1f 0f     ........98888?..
     4a5:	e0 f0 f8 bc dc dc dc 80 0f 1f 3f 39 39 3f 1f 0f     ..........?99?..
     4b5:	1c 1c 1c 9c dc fc 7c 1c 00 30 3e 3f 3f 03 00 00     ......|..0>??...
     4c5:	70 f8 fc 8c 8c fc f8 70 0e 1f 3f 31 31 3f 1f 0e     p......p..?11?..
     4d5:	f0 f8 fc 9c 9c fc f8 e0 00 39 39 39 3d 1f 1f 07     .........999=...

000004e5 <_ZZ8drawLogovE3__c>:
     4e5:	4f 42 4e 2d 59 30 31 20 56 45 52 20 30 2e 33 32     OBN-Y01 VER 0.32
	...

000004f6 <_ZL7imgSoft>:
     4f6:	c0 c6 cf df ff fb 73 03 7c fe ff c7 e3 ff 7f 3e     ......s.|......>
     506:	00 ff ff ff 1b 1b 1b 03 00 03 03 ff ff ff 03 03     ................

00000516 <_ZL6imgOBN>:
	...
     51e:	80 80 80 80 00 00 00 00 00 00 00 00 00 00 00 00     ................
     52e:	80 e0 f0 58 ac 56 ab 55 ab 55 00 ff 01 01 01 02     ...X.V.U.U......
     53e:	02 04 08 10 60 80 00 00 3f ff aa 55 aa 55 aa 55     ....`...?..U.U.U
     54e:	aa 55 a8 5f ac 5c ac 5c ac 5c ac 5c 0c cf 3c 00     .U._.\.\.\.\..<.
     55e:	00 00 01 03 06 0d 1a 15 2a 25 2a 25 2a 25 22 15     ........*%*%*%".
     56e:	12 09 04 02 01 00 00 00 ff ff 57 ab 57 ab 57 ab     ..........W.W.W.
     57e:	57 ab 03 ff 80 80 80 00 00 00 00 00 00 00 00 00     W...............
     58e:	ff ff 55 aa 55 aa 55 aa 55 aa 00 ff 00 00 00 01     ..U.U.U.U.......
     59e:	01 02 04 08 30 c0 00 00 1f 7f d5 aa 55 aa 55 aa     ....0.......U.U.
     5ae:	55 aa 54 af 56 ae 56 ae 56 ae 56 2e 86 67 1e 00     U.T.V.V.V.V..g..
     5be:	00 00 00 01 03 06 0d 0a 15 12 15 12 15 12 11 0a     ................
     5ce:	09 04 02 01 00 00 00 00 00 00 00 00 00 00 80 80     ................
     5de:	c0 c0 c0 c0 80 80 80 00 00 00 00 00 00 00 00 00     ................
     5ee:	c0 f0 78 ac 56 ab 55 aa 55 aa 00 ff 00 00 00 01     ..x.V.U.U.......
     5fe:	01 02 04 08 30 c0 00 00 ff ff 55 aa 55 aa 55 aa     ....0.....U.U.U.
     60e:	55 aa 00 ff fe ae 56 ae 56 ae 56 ae 56 07 fe 00     U.....V.V.V.V...
     61e:	1f 17 15 12 15 12 15 12 15 12 10 1f 17 12 15 12     ................
     62e:	15 12 15 12 15 10 1f 00                             ........

00000636 <_ZL6sound1>:
     636:	90 45 00 0a 80 f0                                   .E....

0000063c <_ZL12imgHeadLight>:
     63c:	3c 7e ff ff ff 7e 3c                                <~...~<

00000643 <_ZL7imgEyes>:
     643:	fd 81 81 fd fd fd fe c0 c0 fe fd 8d 8d fd fd fd     ................
     653:	fe c6 c6 fe dd dd dd dd fd fd ee ee ee ee           ..............

00000661 <_ZL12creditsTable>:
     661:	1c 01 00 00 0e 01 fa 00 00 00 ea 00 db 00 ca 00     ................

00000671 <_ZZ9drawTitlevE3__c_7>:
     671:	50 4c 41 59 20 54 49 4d 45 20 20 00                 PLAY TIME  .

0000067d <_ZZ9drawTitlevE3__c_6>:
     67d:	50 4c 41 59 20 43 4f 55 4e 54 20 00                 PLAY COUNT .

00000689 <_ZZ9drawTitlevE3__c_5>:
     689:	5d 20 00                                            ] .

0000068c <_ZZ9drawTitlevE3__c_4>:
     68c:	5b 00                                               [.

0000068e <_ZZ9drawTitlevE3__c_3>:
     68e:	42 45 53 54 20 31 30 20 53 43 4f 52 45 53 00        BEST 10 SCORES.

0000069d <_ZZ9drawTitlevE3__c_2>:
     69d:	4f 46 46 00                                         OFF.

000006a1 <_ZZ9drawTitlevE3__c_1>:
     6a1:	4f 4e 00                                            ON.

000006a4 <_ZL9menuSound>:
     6a4:	53 4f 55 4e 44 20 00                                SOUND .

000006ab <_ZL10menusTable>:
     6ab:	3c 01 a4 06 35 01 2e 01                             <...5...

000006b3 <_ZZ9drawTitlevE3__c_0>:
     6b3:	53 43 4f 52 45 00                                   SCORE.

000006b9 <_ZZ9drawTitlevE3__c>:
     6b9:	4c 41 53 54 00                                      LAST.

000006be <_ZL6imgMan>:
     6be:	00 00 00 00 00 00 00 80 c0 e0 f0 70 78 78 00 f8     ...........pxx..
     6ce:	fc 06 f3 f9 fd fd fd f9 f2 04 f8 00 60 40 80 00     ............`@..
	...
     6e6:	00 00 00 e0 d8 d6 cb d4 ea e4 ea f5 f2 f5 f2 f9     ................
     6f6:	f7 f6 ec ed eb eb eb e9 f4 fa f9 f8 fa 79 7a 7b     .............yz{
     706:	7c 60 00 00 00 00 00 00 00 00 00 07 07 07 3f c7     |`............?.
     716:	07 03 ab 53 fb fb fb fd fd 81 81 fd fd fd fe c0     ...S............
     726:	c0 fe fe fe fe ff 1f 00 00 00 00 00 00 00 00 00     ................
     736:	00 c0 20 10 28 48 84 04 a5 56 ac 59 aa 5d b7 57     .. .(H...V.Y.].W
     746:	b7 6f af 69 a8 28 e8 6e af 57 b7 57 ab 54 aa 56     .o.i.(.n.W.W.T.V
     756:	ea 42 e2 16 0c 04 08 f0 00 03 04 04 04 05 02 03     .B..............
     766:	01 0f f9 20 20 25 22 25 2a 35 2a 35 ea 20 3f f5     ...  %"%*5*5. ?.
     776:	2a 35 2a 25 22 25 20 f0 3f 00 00 01 01 01 01 00     *5*%"% .?.......

00000786 <_ZL9imgTitle2>:
     786:	f0 f8 fc fe fe 9e 1e 1e 1e 1e 3c 00 00 00 00 00     ..........<.....
     796:	80 80 c0 c0 c0 c0 c0 c0 80 00 00 00 00 00 80 80     ................
     7a6:	c0 c0 c0 c0 c0 c0 80 00 00 00 ff ff ff ff ff 00     ................
     7b6:	00 80 c0 c0 c0 c0 c0 c0 00 00 80 80 c0 c0 c0 c0     ................
     7c6:	c0 c0 80 00 00 00 c0 c0 c0 c0 c0 80 c0 c0 c0 00     ................
     7d6:	e1 c3 c7 87 8f 8f 9f ff fe fe fc f8 00 00 7c ff     ..............|.
     7e6:	ff ff ff bb 39 39 3f 3f 3f bf 3e 00 7c ff ff ff     ....99???.>.|...
     7f6:	ff bb 39 39 3f 3f 3f bf 3e 00 ff ff ff ff ff 18     ..99???.>.......
     806:	7e ff ff ff ff e7 83 00 7c ff ff ff ff bb 39 39     ~.......|.....99
     816:	3f 3f 3f bf 3e 00 ff ff ff ff ff 07 03 03 03 00     ???.>...........
     826:	03 07 07 07 07 07 07 07 03 03 01 00 00 00 00 01     ................
     836:	03 03 07 07 07 07 07 07 07 03 00 00 00 01 03 03     ................
     846:	07 07 07 07 07 07 07 03 00 00 07 07 07 07 07 00     ................
     856:	00 01 07 07 07 07 07 07 04 01 03 03 07 07 07 07     ................
     866:	07 07 07 03 00 00 07 07 07 07 07 00 00 00 00 00     ................

00000876 <_ZL9imgTitle1>:
     876:	fe fe fe fe fe 80 80 80 80 80 80 80 fe fe fe fe     ................
     886:	fe 00 00 00 00 80 80 c0 c0 c0 c0 c0 c0 80 80 00     ................
     896:	00 00 ff ff ff ff ff 00 00 ff ff ff ff ff 00 00     ................
     8a6:	00 00 80 80 c0 c0 c0 c0 c0 c0 80 80 00 00 c0 c0     ................
     8b6:	c0 c0 c0 c0 00 00 00 c0 c0 c0 c0 c0 80 00 00 c0     ................
     8c6:	c0 c0 c0 c0 ff ff ff ff ff 0f 0f 0f 0f 0f 0f 0f     ................
     8d6:	ff ff ff ff ff 00 00 7c ff ff ff ff c7 83 83 c7     .......|........
     8e6:	ff ff ff ff 7c 00 ff ff ff ff ff 00 00 ff ff ff     ....|...........
     8f6:	ff ff 00 00 7c ff ff ff ff c7 83 83 c7 ff ff ff     ....|...........
     906:	ff 7c 00 0f 7f ff ff ff f0 f0 ff ff 1f 1f ff ff     .|..............
     916:	ff f0 f0 ff ff 7f 07 00 07 07 07 07 07 00 00 00     ................
     926:	00 00 00 00 07 07 07 07 07 00 00 00 01 03 03 07     ................
     936:	07 07 07 07 07 03 03 01 00 00 07 07 07 07 07 00     ................
     946:	00 07 07 07 07 07 00 00 00 01 03 03 07 07 07 07     ................
     956:	07 07 03 03 01 00 00 00 00 07 07 07 07 07 07 03     ................
     966:	00 00 07 07 07 07 07 07 03 00 00 00                 ............

00000972 <_ZL6sound2>:
     972:	90 4a 00 14 80 f0                                   .J....

00000978 <_ZL4font>:
     978:	00 00 00 00 00 3e 5b 4f 5b 3e 3e 6b 4f 6b 3e 1c     .....>[O[>>kOk>.
     988:	3e 7c 3e 1c 18 3c 7e 3c 18 1c 57 7d 57 1c 1c 5e     >|>..<~<..W}W..^
     998:	7f 5e 1c 00 18 3c 18 00 ff e7 c3 e7 ff 00 18 24     .^...<.........$
     9a8:	18 00 ff e7 db e7 ff 30 48 3a 06 0e 26 29 79 29     .......0H:..&)y)
     9b8:	26 40 7f 05 05 07 40 7f 05 25 3f 5a 3c e7 3c 5a     &@....@..%?Z<.<Z
     9c8:	7f 3e 1c 1c 08 08 1c 1c 3e 7f 14 22 7f 22 14 5f     .>......>.."."._
     9d8:	5f 00 5f 5f 06 09 7f 01 7f 00 66 89 95 6a 60 60     _.__......f..j``
     9e8:	60 60 60 94 a2 ff a2 94 08 04 7e 04 08 10 20 7e     ```.......~... ~
     9f8:	20 10 08 08 2a 1c 08 08 1c 2a 08 08 1e 10 10 10      ...*....*......
     a08:	10 0c 1e 0c 1e 0c 30 38 3e 38 30 06 0e 3e 0e 06     ......08>80..>..
     a18:	00 00 00 00 00 00 00 5f 00 00 00 07 00 07 00 14     ......._........
     a28:	7f 14 7f 14 24 2a 7f 2a 12 23 13 08 64 62 36 49     ....$*.*.#..db6I
     a38:	56 20 50 00 08 07 03 00 00 1c 22 41 00 00 41 22     V P......."A..A"
     a48:	1c 00 2a 1c 7f 1c 2a 08 08 3e 08 08 00 80 70 30     ..*...*..>....p0
     a58:	00 08 08 08 08 08 00 00 60 60 00 20 10 08 04 02     ........``. ....
     a68:	3e 51 49 45 3e 00 42 7f 40 00 72 49 49 49 46 21     >QIE>.B.@.rIIIF!
     a78:	41 49 4d 33 18 14 12 7f 10 27 45 45 45 39 3c 4a     AIM3.....'EEE9<J
     a88:	49 49 31 41 21 11 09 07 36 49 49 49 36 46 49 49     II1A!...6III6FII
     a98:	29 1e 00 00 14 00 00 00 40 34 00 00 00 08 14 22     ).......@4....."
     aa8:	41 14 14 14 14 14 00 41 22 14 08 02 01 59 09 06     A......A"....Y..
     ab8:	3e 41 5d 59 4e 7c 12 11 12 7c 7f 49 49 49 36 3e     >A]YN|...|.III6>
     ac8:	41 41 41 22 7f 41 41 41 3e 7f 49 49 49 41 7f 09     AAA".AAA>.IIIA..
     ad8:	09 09 01 3e 41 41 51 73 7f 08 08 08 7f 00 41 7f     ...>AAQs......A.
     ae8:	41 00 20 40 41 3f 01 7f 08 14 22 41 7f 40 40 40     A. @A?...."A.@@@
     af8:	40 7f 02 1c 02 7f 7f 04 08 10 7f 3e 41 41 41 3e     @..........>AAA>
     b08:	7f 09 09 09 06 3e 41 51 21 5e 7f 09 19 29 46 26     .....>AQ!^...)F&
     b18:	49 49 49 32 03 01 7f 01 03 3f 40 40 40 3f 1f 20     III2.....?@@@?. 
     b28:	40 20 1f 3f 40 38 40 3f 63 14 08 14 63 03 04 78     @ .?@8@?c...c..x
     b38:	04 03 61 59 49 4d 43 00 7f 41 41 41 02 04 08 10     ..aYIMC..AAA....
     b48:	20 00 41 41 41 7f 04 02 01 02 04 40 40 40 40 40      .AAA......@@@@@
     b58:	00 03 07 08 00 20 54 54 78 40 7f 28 44 44 38 38     ..... TTx@.(DD88
     b68:	44 44 44 28 38 44 44 28 7f 38 54 54 54 18 00 08     DDD(8DD(.8TTT...
     b78:	7e 09 02 18 a4 a4 9c 78 7f 08 04 04 78 00 44 7d     ~......x....x.D}
     b88:	40 00 20 40 40 3d 00 7f 10 28 44 00 00 41 7f 40     @. @@=...(D..A.@
     b98:	00 7c 04 78 04 78 7c 08 04 04 78 38 44 44 44 38     .|.x.x|...x8DDD8
     ba8:	fc 18 24 24 18 18 24 24 18 fc 7c 08 04 04 08 48     ..$$..$$..|....H
     bb8:	54 54 54 24 04 04 3f 44 24 3c 40 40 20 7c 1c 20     TTT$..?D$<@@ |. 
     bc8:	40 20 1c 3c 40 30 40 3c 44 28 10 28 44 4c 90 90     @ .<@0@<D(.(DL..
     bd8:	90 7c 44 64 54 4c 44 00 08 36 41 00 00 00 77 00     .|DdTLD..6A...w.
     be8:	00 00 41 36 08 00 02 01 02 04 02 3c 26 23 26 3c     ..A6.......<&#&<
     bf8:	1e a1 a1 61 12 3a 40 40 20 7a 38 54 54 55 59 21     ...a.:@@ z8TTUY!
     c08:	55 55 79 41 21 54 54 78 41 21 55 54 78 40 20 54     UUyA!TTxA!UTx@ T
     c18:	55 79 40 0c 1e 52 72 12 39 55 55 55 59 39 54 54     Uy@..Rr.9UUUY9TT
     c28:	54 59 39 55 54 54 58 00 00 45 7c 41 00 02 45 7d     TY9UTTX..E|A..E}
     c38:	42 00 01 45 7c 40 f0 29 24 29 f0 f0 28 25 28 f0     B..E|@.)$)..(%(.
     c48:	7c 54 55 45 00 20 54 54 7c 54 7c 0a 09 7f 49 32     |TUE. TT|T|...I2
     c58:	49 49 49 32 32 48 48 48 32 32 4a 48 48 30 3a 41     III22HHH22JHH0:A
     c68:	41 21 7a 3a 42 40 20 78 00 9d a0 a0 7d 39 44 44     A!z:B@ x....}9DD
     c78:	44 39 3d 40 40 40 3d 3c 24 ff 24 24 48 7e 49 43     D9=@@@=<$.$$H~IC
     c88:	66 2b 2f fc 2f 2b ff 09 29 f6 20 c0 88 7e 09 03     f+/./+..). ..~..
     c98:	20 54 54 79 41 00 00 44 7d 41 30 48 48 4a 32 38      TTyA..D}A0HHJ28
     ca8:	40 40 22 7a 00 7a 0a 0a 72 7d 0d 19 31 7d 26 29     @@"z.z..r}..1}&)
     cb8:	29 2f 28 26 29 29 29 26 30 48 4d 40 20 38 08 08     )/(&)))&0HM@ 8..
     cc8:	08 08 08 08 08 08 38 2f 10 c8 ac ba 2f 10 28 34     ......8/..../.(4
     cd8:	fa 00 00 7b 00 00 08 14 2a 14 22 22 14 2a 14 08     ...{....*."".*..
     ce8:	95 00 22 00 95 aa 00 55 00 aa aa 55 aa 55 aa 00     .."....U...U.U..
     cf8:	00 00 ff 00 10 10 10 ff 00 14 14 14 ff 00 10 10     ................
     d08:	ff 00 ff 10 10 f0 10 f0 14 14 14 fc 00 14 14 f7     ................
     d18:	00 ff 00 00 ff 00 ff 14 14 f4 04 fc 14 14 17 10     ................
     d28:	1f 10 10 1f 10 1f 14 14 14 1f 00 10 10 10 f0 00     ................
     d38:	00 00 00 1f 10 10 10 10 1f 10 10 10 10 f0 10 00     ................
     d48:	00 00 ff 10 10 10 10 10 10 10 10 10 ff 10 00 00     ................
     d58:	00 ff 14 00 00 ff 00 ff 00 00 1f 10 17 00 00 fc     ................
     d68:	04 f4 14 14 17 10 17 14 14 f4 04 f4 00 00 ff 00     ................
     d78:	f7 14 14 14 14 14 14 14 f7 00 f7 14 14 14 17 14     ................
     d88:	10 10 1f 10 1f 14 14 14 f4 14 10 10 f0 10 f0 00     ................
     d98:	00 1f 10 1f 00 00 00 1f 14 00 00 00 fc 14 00 00     ................
     da8:	f0 10 f0 10 10 ff 10 ff 14 14 14 ff 14 10 10 10     ................
     db8:	1f 00 00 00 00 f0 10 ff ff ff ff ff f0 f0 f0 f0     ................
     dc8:	f0 ff ff ff 00 00 00 00 00 ff ff 0f 0f 0f 0f 0f     ................
     dd8:	38 44 44 38 44 7c 2a 2a 3e 14 7e 02 02 06 06 02     8DD8D|**>.~.....
     de8:	7e 02 7e 02 63 55 49 41 63 38 44 44 3c 04 40 7e     ~.~.cUIAc8DD<.@~
     df8:	20 1e 20 06 02 7e 02 02 99 a5 e7 a5 99 1c 2a 49      . ..~........*I
     e08:	2a 1c 4c 72 01 72 4c 30 4a 4d 4d 30 30 48 78 48     *.Lr.rL0JMM00HxH
     e18:	30 bc 62 5a 46 3d 3e 49 49 49 00 7e 01 01 01 7e     0.bZF=>III.~...~
     e28:	2a 2a 2a 2a 2a 44 44 5f 44 44 40 51 4a 44 40 40     *****DD_DD@QJD@@
     e38:	44 4a 51 40 00 00 ff 01 03 e0 80 ff 00 00 08 08     DJQ@............
     e48:	6b 6b 08 36 12 36 24 36 06 0f 09 0f 06 00 00 18     kk.6.6$6........
     e58:	18 00 00 00 10 10 00 30 40 ff 01 01 00 1f 01 01     .......0@.......
     e68:	1e 00 19 1d 17 12 00 3c 3c 3c 3c 00 00 00 00 00     .......<<<<.....

00000e78 <_ZL27_midi_word_note_frequencies>:
     e78:	06 01 15 01 26 01 37 01 4a 01 5d 01 72 01 88 01     ....&.7.J.].r...
     e88:	9f 01 b8 01 d2 01 ee 01 0b 02 2a 02 4b 02 6e 02     ..........*.K.n.
     e98:	93 02 ba 02 e4 02 10 03 3f 03 70 03 a4 03 dc 03     ........?.p.....
     ea8:	17 04 55 04 97 04 dd 04 27 05 75 05 c8 05 20 06     ..U.....'.u... .
     eb8:	7d 06 e0 06 49 07 b8 07 2d 08 a9 08 2d 09 b9 09     }...I...-...-...
     ec8:	4d 0a ea 0a 90 0b 40 0c fa 0c c0 0d 91 0e 6f 0f     M.....@.......o.
     ed8:	5a 10 53 11 5b 12 72 13 9a 14 d4 15 20 17 80 18     Z.S.[.r..... ...
     ee8:	f5 19 80 1b 23 1d de 1e b4 20 a6 22 b5 24 e4 26     ....#.... .".$.&
     ef8:	34 29 a7 2b 40 2e 00 31 ea 33 00 37 45 3a bc 3d     4).+@..1.3.7E:.=
     f08:	68 41 4c 45 6b 49 c8 4d 68 52 4f 57 80 5c 00 62     hALEkI.MhROW.\.b

00000f18 <_ZL27_midi_byte_note_frequencies>:
     f18:	10 11 12 13 15 16 17 18 1a 1c 1d 1f 21 23 25 27     ............!#%'
     f28:	29 2c 2e 31 34 37 3a 3e 41 45 49 4e 52 57 5c 62     ),.147:>AEINRW\b
     f38:	68 6e 75 7b 83 8b 93 9c a5 af b9 c4 d0 dc e9 f7     hnu{............

00000f48 <digital_pin_to_timer_PGM>:
     f48:	00 00 00 02 00 09 0f 00 00 03 04 01 00 0c 00 00     ................
	...

00000f67 <_ZL21tune_pin_to_timer_PGM>:
     f67:	03 01                                               ..

00000f69 <port_to_mode_PGM>:
     f69:	00 00 00 00 24 00 27 00 2a 00 2d 00 30 00           ....$.'.*.-.0.

00000f77 <_ZL14lcdBootProgram>:
     f77:	d5 f0 8d 14 a1 c8 81 cf d9 f1 af 20 00              ........... .

00000f84 <digital_pin_to_bit_mask_PGM>:
     f84:	04 08 02 01 10 40 80 40 10 20 40 80 40 80 08 02     .....@.@. @.@...
     f94:	04 01 80 40 20 10 02 01 10 80 10 20 40 40 20        ...@ ...... @@ 

00000fa3 <port_to_output_PGM>:
     fa3:	00 00 00 00 25 00 28 00 2b 00 2e 00 31 00           ....%.(.+...1.

00000fb1 <digital_pin_to_port_PGM>:
     fb1:	04 04 04 04 04 03 04 05 02 02 02 02 04 03 02 02     ................
     fc1:	02 02 06 06 06 06 06 06 04 04 02 02 02 04 04        ...............

00000fd0 <_ZL14pinBootProgram>:
     fd0:	14 02 13 02 12 02 15 02 07 02 08 02 04 01 0c 01     ................
     fe0:	06 01 00                                            ...

00000fe3 <_cdcInterface>:
     fe3:	08 0b 00 02 02 02 00 00 09 04 00 00 01 02 02 00     ................
     ff3:	00 05 24 00 10 01 05 24 01 01 01 04 24 02 06 05     ..$....$....$...
    1003:	24 06 00 01 07 05 81 03 10 00 40 09 04 01 00 02     $.........@.....
    1013:	0a 00 00 00 07 05 02 02 40 00 00 07 05 83 02 40     ........@......@
	...

00001025 <STRING_LANGUAGE>:
    1025:	04 03 09 04                                         ....

00001029 <USB_DeviceDescriptorIAD>:
    1029:	12 01 00 02 ef 02 01 40 41 23 36 80 00 01 01 02     .......@A#6.....
    1039:	03 01                                               ..

0000103b <STRING_MANUFACTURER>:
    103b:	41 72 64 75 69 6e 6f 20 4c 4c 43 00                 Arduino LLC.

00001047 <STRING_PRODUCT>:
    1047:	41 72 64 75 69 6e 6f 20 4c 65 6f 6e 61 72 64 6f     Arduino Leonardo
	...

00001058 <__ctors_start>:
    1058:	b3 22       	and	r11, r19

0000105a <__ctors_end>:
    105a:	11 24       	eor	r1, r1
    105c:	1f be       	out	0x3f, r1	; 63
    105e:	cf ef       	ldi	r28, 0xFF	; 255
    1060:	da e0       	ldi	r29, 0x0A	; 10
    1062:	de bf       	out	0x3e, r29	; 62
    1064:	cd bf       	out	0x3d, r28	; 61

00001066 <__do_copy_data>:
    1066:	11 e0       	ldi	r17, 0x01	; 1
    1068:	a0 e0       	ldi	r26, 0x00	; 0
    106a:	b1 e0       	ldi	r27, 0x01	; 1
    106c:	e2 ef       	ldi	r30, 0xF2	; 242
    106e:	f8 e5       	ldi	r31, 0x58	; 88
    1070:	02 c0       	rjmp	.+4      	; 0x1076 <__do_copy_data+0x10>
    1072:	05 90       	lpm	r0, Z+
    1074:	0d 92       	st	X+, r0
    1076:	a6 35       	cpi	r26, 0x56	; 86
    1078:	b1 07       	cpc	r27, r17
    107a:	d9 f7       	brne	.-10     	; 0x1072 <__do_copy_data+0xc>

0000107c <__do_clear_bss>:
    107c:	27 e0       	ldi	r18, 0x07	; 7
    107e:	a6 e5       	ldi	r26, 0x56	; 86
    1080:	b1 e0       	ldi	r27, 0x01	; 1
    1082:	01 c0       	rjmp	.+2      	; 0x1086 <.do_clear_bss_start>

00001084 <.do_clear_bss_loop>:
    1084:	1d 92       	st	X+, r1

00001086 <.do_clear_bss_start>:
    1086:	ae 38       	cpi	r26, 0x8E	; 142
    1088:	b2 07       	cpc	r27, r18
    108a:	e1 f7       	brne	.-8      	; 0x1084 <.do_clear_bss_loop>

0000108c <__do_global_ctors>:
    108c:	18 e0       	ldi	r17, 0x08	; 8
    108e:	cd e2       	ldi	r28, 0x2D	; 45
    1090:	d8 e0       	ldi	r29, 0x08	; 8
    1092:	04 c0       	rjmp	.+8      	; 0x109c <__do_global_ctors+0x10>
    1094:	21 97       	sbiw	r28, 0x01	; 1
    1096:	fe 01       	movw	r30, r28
    1098:	0e 94 8b 29 	call	0x5316	; 0x5316 <__tablejump2__>
    109c:	cc 32       	cpi	r28, 0x2C	; 44
    109e:	d1 07       	cpc	r29, r17
    10a0:	c9 f7       	brne	.-14     	; 0x1094 <__do_global_ctors+0x8>
    10a2:	0e 94 ea 22 	call	0x45d4	; 0x45d4 <main>
    10a6:	0c 94 77 2c 	jmp	0x58ee	; 0x58ee <_exit>

000010aa <__bad_interrupt>:
    10aa:	0c 94 00 00 	jmp	0	; 0x0 <__vectors>

000010ae <_ZN9MyArduboy14drawFastVLine2Eiiah.constprop.34>:
    drawFastHLine2(x, y + h - 1, w, color);
    drawFastVLine2(x, y + 1, h - 2, color);
    drawFastVLine2(x + w - 1, y + 1, h - 2, color);
}

void MyArduboy::drawFastVLine2(int16_t x, int16_t y, int8_t h, uint8_t color)
    10ae:	cf 93       	push	r28
    10b0:	df 93       	push	r29
    10b2:	dc 01       	movw	r26, r24
{
    /*  Check parameters  */
    if (y < 0) {
    10b4:	77 ff       	sbrs	r23, 7
    10b6:	13 c0       	rjmp	.+38     	; 0x10de <_ZN9MyArduboy14drawFastVLine2Eiiah.constprop.34+0x30>
        if (h <= -y) return;
    10b8:	22 27       	eor	r18, r18
    10ba:	33 27       	eor	r19, r19
    10bc:	26 1b       	sub	r18, r22
    10be:	37 0b       	sbc	r19, r23
    10c0:	84 2f       	mov	r24, r20
    10c2:	04 2e       	mov	r0, r20
    10c4:	00 0c       	add	r0, r0
    10c6:	99 0b       	sbc	r25, r25
    10c8:	28 17       	cp	r18, r24
    10ca:	39 07       	cpc	r19, r25
    10cc:	2c f4       	brge	.+10     	; 0x10d8 <_ZN9MyArduboy14drawFastVLine2Eiiah.constprop.34+0x2a>
        h += y;
    10ce:	46 0f       	add	r20, r22
        y = 0;
    10d0:	70 e0       	ldi	r23, 0x00	; 0
    10d2:	60 e0       	ldi	r22, 0x00	; 0
    }
    if (h <= 0 || y >= HEIGHT || x < 0 || x >= WIDTH) return;
    10d4:	14 16       	cp	r1, r20
    10d6:	44 f0       	brlt	.+16     	; 0x10e8 <_ZN9MyArduboy14drawFastVLine2Eiiah.constprop.34+0x3a>
        } else {
            *p |= d;
        }
        d = 0xFF;
    }
}
    10d8:	df 91       	pop	r29
    10da:	cf 91       	pop	r28
    10dc:	08 95       	ret
    if (y < 0) {
        if (h <= -y) return;
        h += y;
        y = 0;
    }
    if (h <= 0 || y >= HEIGHT || x < 0 || x >= WIDTH) return;
    10de:	14 16       	cp	r1, r20
    10e0:	dc f7       	brge	.-10     	; 0x10d8 <_ZN9MyArduboy14drawFastVLine2Eiiah.constprop.34+0x2a>
    10e2:	60 34       	cpi	r22, 0x40	; 64
    10e4:	71 05       	cpc	r23, r1
    10e6:	c4 f7       	brge	.-16     	; 0x10d8 <_ZN9MyArduboy14drawFastVLine2Eiiah.constprop.34+0x2a>
    10e8:	a0 38       	cpi	r26, 0x80	; 128
    10ea:	b1 05       	cpc	r27, r1
    10ec:	a9 f3       	breq	.-22     	; 0x10d8 <_ZN9MyArduboy14drawFastVLine2Eiiah.constprop.34+0x2a>
    10ee:	26 2f       	mov	r18, r22
    if (y + h > HEIGHT) h = HEIGHT - y;
    10f0:	cb 01       	movw	r24, r22
    10f2:	84 0f       	add	r24, r20
    10f4:	91 1d       	adc	r25, r1
    10f6:	47 fd       	sbrc	r20, 7
    10f8:	9a 95       	dec	r25
    10fa:	81 34       	cpi	r24, 0x41	; 65
    10fc:	91 05       	cpc	r25, r1
    10fe:	14 f0       	brlt	.+4      	; 0x1104 <_ZN9MyArduboy14drawFastVLine2Eiiah.constprop.34+0x56>
    1100:	40 e4       	ldi	r20, 0x40	; 64
    1102:	46 1b       	sub	r20, r22

    /*  Draw a vertical line  */
    uint8_t yOdd = y & 7;
    1104:	27 70       	andi	r18, 0x07	; 7
    uint8_t d = 0xFF << yOdd;
    1106:	9f ef       	ldi	r25, 0xFF	; 255
    1108:	02 2e       	mov	r0, r18
    110a:	01 c0       	rjmp	.+2      	; 0x110e <_ZN9MyArduboy14drawFastVLine2Eiiah.constprop.34+0x60>
    110c:	99 0f       	add	r25, r25
    110e:	0a 94       	dec	r0
    1110:	ea f7       	brpl	.-6      	; 0x110c <_ZN9MyArduboy14drawFastVLine2Eiiah.constprop.34+0x5e>
    y -= yOdd;
    h += yOdd;
    1112:	42 0f       	add	r20, r18
    for (buffer_t *p = getBuffer() + x + (y / 8) * WIDTH; h > 0; h -= 8, p += WIDTH) {
    1114:	62 1b       	sub	r22, r18
    1116:	71 09       	sbc	r23, r1
    1118:	77 ff       	sbrs	r23, 7
    111a:	02 c0       	rjmp	.+4      	; 0x1120 <_ZN9MyArduboy14drawFastVLine2Eiiah.constprop.34+0x72>
    111c:	69 5f       	subi	r22, 0xF9	; 249
    111e:	7f 4f       	sbci	r23, 0xFF	; 255
    1120:	83 e0       	ldi	r24, 0x03	; 3
    1122:	75 95       	asr	r23
    1124:	67 95       	ror	r22
    1126:	8a 95       	dec	r24
    1128:	e1 f7       	brne	.-8      	; 0x1122 <_ZN9MyArduboy14drawFastVLine2Eiiah.constprop.34+0x74>
    112a:	fb 01       	movw	r30, r22
    112c:	f6 95       	lsr	r31
    112e:	fe 2f       	mov	r31, r30
    1130:	ee 27       	eor	r30, r30
    1132:	f7 95       	ror	r31
    1134:	e7 95       	ror	r30
    1136:	ea 0f       	add	r30, r26
    1138:	fb 1f       	adc	r31, r27
    113a:	ee 57       	subi	r30, 0x7E	; 126
    113c:	fc 4f       	sbci	r31, 0xFC	; 252
        if (h < 8) d &= 0xFF >> (8 - h);
    113e:	28 e0       	ldi	r18, 0x08	; 8
    1140:	30 e0       	ldi	r19, 0x00	; 0
    1142:	6f ef       	ldi	r22, 0xFF	; 255
    1144:	70 e0       	ldi	r23, 0x00	; 0
    /*  Draw a vertical line  */
    uint8_t yOdd = y & 7;
    uint8_t d = 0xFF << yOdd;
    y -= yOdd;
    h += yOdd;
    for (buffer_t *p = getBuffer() + x + (y / 8) * WIDTH; h > 0; h -= 8, p += WIDTH) {
    1146:	14 16       	cp	r1, r20
    1148:	3c f6       	brge	.-114    	; 0x10d8 <_ZN9MyArduboy14drawFastVLine2Eiiah.constprop.34+0x2a>
        if (h < 8) d &= 0xFF >> (8 - h);
    114a:	48 30       	cpi	r20, 0x08	; 8
    114c:	64 f4       	brge	.+24     	; 0x1166 <_ZN9MyArduboy14drawFastVLine2Eiiah.constprop.34+0xb8>
    114e:	d9 01       	movw	r26, r18
    1150:	a4 1b       	sub	r26, r20
    1152:	b1 09       	sbc	r27, r1
    1154:	47 fd       	sbrc	r20, 7
    1156:	b3 95       	inc	r27
    1158:	eb 01       	movw	r28, r22
    115a:	02 c0       	rjmp	.+4      	; 0x1160 <_ZN9MyArduboy14drawFastVLine2Eiiah.constprop.34+0xb2>
    115c:	d5 95       	asr	r29
    115e:	c7 95       	ror	r28
    1160:	aa 95       	dec	r26
    1162:	e2 f7       	brpl	.-8      	; 0x115c <_ZN9MyArduboy14drawFastVLine2Eiiah.constprop.34+0xae>
    1164:	9c 23       	and	r25, r28
        if (color == BLACK) {
            *p &= ~d;
        } else {
            *p |= d;
    1166:	80 81       	ld	r24, Z
    1168:	98 2b       	or	r25, r24
    116a:	90 83       	st	Z, r25
    116c:	48 50       	subi	r20, 0x08	; 8
    /*  Draw a vertical line  */
    uint8_t yOdd = y & 7;
    uint8_t d = 0xFF << yOdd;
    y -= yOdd;
    h += yOdd;
    for (buffer_t *p = getBuffer() + x + (y / 8) * WIDTH; h > 0; h -= 8, p += WIDTH) {
    116e:	e0 58       	subi	r30, 0x80	; 128
    1170:	ff 4f       	sbci	r31, 0xFF	; 255
        if (color == BLACK) {
            *p &= ~d;
        } else {
            *p |= d;
        }
        d = 0xFF;
    1172:	9f ef       	ldi	r25, 0xFF	; 255
    1174:	e8 cf       	rjmp	.-48     	; 0x1146 <_ZN9MyArduboy14drawFastVLine2Eiiah.constprop.34+0x98>

00001176 <_ZN9MyArduboy9fillRect2Eiihah.constprop.30>:
    } else {
        fillBeltWhite(p, d, w);
    }
}

void MyArduboy::fillRect2(int16_t x, int16_t y, uint8_t w, int8_t h, uint8_t color)
    1176:	0f 93       	push	r16
    1178:	cf 93       	push	r28
    117a:	df 93       	push	r29
    if (x < 0) {
        if (w <= -x) return;
        w += x;
        x = 0;
    }
    if (y < 0) {
    117c:	77 ff       	sbrs	r23, 7
    117e:	14 c0       	rjmp	.+40     	; 0x11a8 <_ZN9MyArduboy9fillRect2Eiihah.constprop.30+0x32>
        if (h <= -y) return;
    1180:	aa 27       	eor	r26, r26
    1182:	bb 27       	eor	r27, r27
    1184:	a6 1b       	sub	r26, r22
    1186:	b7 0b       	sbc	r27, r23
    1188:	e2 2f       	mov	r30, r18
    118a:	02 2e       	mov	r0, r18
    118c:	00 0c       	add	r0, r0
    118e:	ff 0b       	sbc	r31, r31
    1190:	ae 17       	cp	r26, r30
    1192:	bf 07       	cpc	r27, r31
    1194:	2c f4       	brge	.+10     	; 0x11a0 <_ZN9MyArduboy9fillRect2Eiihah.constprop.30+0x2a>
        h += y;
    1196:	26 0f       	add	r18, r22
        y = 0;
    1198:	70 e0       	ldi	r23, 0x00	; 0
    119a:	60 e0       	ldi	r22, 0x00	; 0
    }
    if (w <= 0 || x >= WIDTH || h <= 0 || y >= HEIGHT) return;
    119c:	12 16       	cp	r1, r18
    119e:	3c f0       	brlt	.+14     	; 0x11ae <_ZN9MyArduboy9fillRect2Eiihah.constprop.30+0x38>
        } else {
            fillBeltWhite(p, d, w);
        }
        d = 0xFF;
    }
}
    11a0:	df 91       	pop	r29
    11a2:	cf 91       	pop	r28
    11a4:	0f 91       	pop	r16
    11a6:	08 95       	ret
    if (y < 0) {
        if (h <= -y) return;
        h += y;
        y = 0;
    }
    if (w <= 0 || x >= WIDTH || h <= 0 || y >= HEIGHT) return;
    11a8:	60 34       	cpi	r22, 0x40	; 64
    11aa:	71 05       	cpc	r23, r1
    11ac:	cc f7       	brge	.-14     	; 0x11a0 <_ZN9MyArduboy9fillRect2Eiihah.constprop.30+0x2a>
    if (x + w > WIDTH) w = WIDTH - x;
    11ae:	fc 01       	movw	r30, r24
    11b0:	e4 0f       	add	r30, r20
    11b2:	f1 1d       	adc	r31, r1
    11b4:	e1 38       	cpi	r30, 0x81	; 129
    11b6:	f1 05       	cpc	r31, r1
    11b8:	14 f0       	brlt	.+4      	; 0x11be <_ZN9MyArduboy9fillRect2Eiihah.constprop.30+0x48>
    11ba:	40 e8       	ldi	r20, 0x80	; 128
    11bc:	48 1b       	sub	r20, r24
    11be:	56 2f       	mov	r21, r22
    if (y + h > HEIGHT) h = HEIGHT - y;
    11c0:	fb 01       	movw	r30, r22
    11c2:	e2 0f       	add	r30, r18
    11c4:	f1 1d       	adc	r31, r1
    11c6:	27 fd       	sbrc	r18, 7
    11c8:	fa 95       	dec	r31
    11ca:	e1 34       	cpi	r30, 0x41	; 65
    11cc:	f1 05       	cpc	r31, r1
    11ce:	14 f0       	brlt	.+4      	; 0x11d4 <_ZN9MyArduboy9fillRect2Eiihah.constprop.30+0x5e>
    11d0:	20 e4       	ldi	r18, 0x40	; 64
    11d2:	26 1b       	sub	r18, r22

    /*  Draw a filled rectangle  */
    uint8_t yOdd = y & 7;
    11d4:	57 70       	andi	r21, 0x07	; 7
    uint8_t d = 0xFF << yOdd;
    11d6:	3f ef       	ldi	r19, 0xFF	; 255
    11d8:	05 2e       	mov	r0, r21
    11da:	01 c0       	rjmp	.+2      	; 0x11de <_ZN9MyArduboy9fillRect2Eiihah.constprop.30+0x68>
    11dc:	33 0f       	add	r19, r19
    11de:	0a 94       	dec	r0
    11e0:	ea f7       	brpl	.-6      	; 0x11dc <_ZN9MyArduboy9fillRect2Eiihah.constprop.30+0x66>
    y -= yOdd;
    h += yOdd;
    11e2:	25 0f       	add	r18, r21
    for (buffer_t *p = getBuffer() + x + (y / 8) * WIDTH; h > 0; h -= 8, p += WIDTH) {
    11e4:	65 1b       	sub	r22, r21
    11e6:	71 09       	sbc	r23, r1
    11e8:	77 ff       	sbrs	r23, 7
    11ea:	02 c0       	rjmp	.+4      	; 0x11f0 <_ZN9MyArduboy9fillRect2Eiihah.constprop.30+0x7a>
    11ec:	69 5f       	subi	r22, 0xF9	; 249
    11ee:	7f 4f       	sbci	r23, 0xFF	; 255
    11f0:	53 e0       	ldi	r21, 0x03	; 3
    11f2:	75 95       	asr	r23
    11f4:	67 95       	ror	r22
    11f6:	5a 95       	dec	r21
    11f8:	e1 f7       	brne	.-8      	; 0x11f2 <_ZN9MyArduboy9fillRect2Eiihah.constprop.30+0x7c>
    11fa:	76 95       	lsr	r23
    11fc:	76 2f       	mov	r23, r22
    11fe:	66 27       	eor	r22, r22
    1200:	77 95       	ror	r23
    1202:	67 95       	ror	r22
    1204:	86 0f       	add	r24, r22
    1206:	97 1f       	adc	r25, r23
    1208:	8e 57       	subi	r24, 0x7E	; 126
    120a:	9c 4f       	sbci	r25, 0xFC	; 252
        if (h < 8) d &= 0xFF >> (8 - h);
    120c:	a8 e0       	ldi	r26, 0x08	; 8
    120e:	b0 e0       	ldi	r27, 0x00	; 0
    1210:	cf ef       	ldi	r28, 0xFF	; 255
    1212:	d0 e0       	ldi	r29, 0x00	; 0
    /*  Draw a filled rectangle  */
    uint8_t yOdd = y & 7;
    uint8_t d = 0xFF << yOdd;
    y -= yOdd;
    h += yOdd;
    for (buffer_t *p = getBuffer() + x + (y / 8) * WIDTH; h > 0; h -= 8, p += WIDTH) {
    1214:	12 16       	cp	r1, r18
    1216:	24 f6       	brge	.-120    	; 0x11a0 <_ZN9MyArduboy9fillRect2Eiihah.constprop.30+0x2a>
        if (h < 8) d &= 0xFF >> (8 - h);
    1218:	28 30       	cpi	r18, 0x08	; 8
    121a:	64 f4       	brge	.+24     	; 0x1234 <_ZN9MyArduboy9fillRect2Eiihah.constprop.30+0xbe>
    121c:	bd 01       	movw	r22, r26
    121e:	62 1b       	sub	r22, r18
    1220:	71 09       	sbc	r23, r1
    1222:	27 fd       	sbrc	r18, 7
    1224:	73 95       	inc	r23
    1226:	fe 01       	movw	r30, r28
    1228:	02 c0       	rjmp	.+4      	; 0x122e <_ZN9MyArduboy9fillRect2Eiihah.constprop.30+0xb8>
    122a:	f5 95       	asr	r31
    122c:	e7 95       	ror	r30
    122e:	6a 95       	dec	r22
    1230:	e2 f7       	brpl	.-8      	; 0x122a <_ZN9MyArduboy9fillRect2Eiihah.constprop.30+0xb4>
    1232:	3e 23       	and	r19, r30
        if (color == BLACK) {
    1234:	01 11       	cpse	r16, r1
    1236:	0d c0       	rjmp	.+26     	; 0x1252 <_ZN9MyArduboy9fillRect2Eiihah.constprop.30+0xdc>
    }
}

void MyArduboy::fillBeltBlack(buffer_t *p, uint8_t d, uint8_t w)
{
    d = ~d;
    1238:	30 95       	com	r19
    123a:	fc 01       	movw	r30, r24
    123c:	54 2f       	mov	r21, r20
    for (; w > 0; w--) {
        *p++ &= d;
    123e:	60 81       	ld	r22, Z
    1240:	63 23       	and	r22, r19
    1242:	61 93       	st	Z+, r22
}

void MyArduboy::fillBeltBlack(buffer_t *p, uint8_t d, uint8_t w)
{
    d = ~d;
    for (; w > 0; w--) {
    1244:	51 50       	subi	r21, 0x01	; 1
    1246:	d9 f7       	brne	.-10     	; 0x123e <_ZN9MyArduboy9fillRect2Eiihah.constprop.30+0xc8>
    1248:	28 50       	subi	r18, 0x08	; 8
    /*  Draw a filled rectangle  */
    uint8_t yOdd = y & 7;
    uint8_t d = 0xFF << yOdd;
    y -= yOdd;
    h += yOdd;
    for (buffer_t *p = getBuffer() + x + (y / 8) * WIDTH; h > 0; h -= 8, p += WIDTH) {
    124a:	80 58       	subi	r24, 0x80	; 128
    124c:	9f 4f       	sbci	r25, 0xFF	; 255
        if (color == BLACK) {
            fillBeltBlack(p, d, w);
        } else {
            fillBeltWhite(p, d, w);
        }
        d = 0xFF;
    124e:	3f ef       	ldi	r19, 0xFF	; 255
    1250:	e1 cf       	rjmp	.-62     	; 0x1214 <_ZN9MyArduboy9fillRect2Eiihah.constprop.30+0x9e>
    1252:	fc 01       	movw	r30, r24
    uint8_t d = 0xFF << yOdd;
    y -= yOdd;
    h += yOdd;
    for (buffer_t *p = getBuffer() + x + (y / 8) * WIDTH; h > 0; h -= 8, p += WIDTH) {
        if (h < 8) d &= 0xFF >> (8 - h);
        if (color == BLACK) {
    1254:	54 2f       	mov	r21, r20
}

void MyArduboy::fillBeltWhite(buffer_t *p, uint8_t d, uint8_t w)
{
    for (; w > 0; w--) {
        *p++ |= d;
    1256:	60 81       	ld	r22, Z
    1258:	63 2b       	or	r22, r19
    125a:	61 93       	st	Z+, r22
    }
}

void MyArduboy::fillBeltWhite(buffer_t *p, uint8_t d, uint8_t w)
{
    for (; w > 0; w--) {
    125c:	51 50       	subi	r21, 0x01	; 1
    125e:	d9 f7       	brne	.-10     	; 0x1256 <_ZN9MyArduboy9fillRect2Eiihah.constprop.30+0xe0>
    1260:	f3 cf       	rjmp	.-26     	; 0x1248 <_ZN9MyArduboy9fillRect2Eiihah.constprop.30+0xd2>

00001262 <_ZN7Arduboy10drawBitmapEiiPKhhhh.constprop.28>:

    drawFastHLine(a, y, b-a+1, color);
  }
}

void Arduboy::drawBitmap
    1262:	2f 92       	push	r2
    1264:	3f 92       	push	r3
    1266:	4f 92       	push	r4
    1268:	5f 92       	push	r5
    126a:	6f 92       	push	r6
    126c:	7f 92       	push	r7
    126e:	8f 92       	push	r8
    1270:	9f 92       	push	r9
    1272:	af 92       	push	r10
    1274:	bf 92       	push	r11
    1276:	cf 92       	push	r12
    1278:	df 92       	push	r13
    127a:	ef 92       	push	r14
    127c:	ff 92       	push	r15
    127e:	0f 93       	push	r16
    1280:	1f 93       	push	r17
    1282:	cf 93       	push	r28
    1284:	df 93       	push	r29
    1286:	00 d0       	rcall	.+0      	; 0x1288 <_ZN7Arduboy10drawBitmapEiiPKhhhh.constprop.28+0x26>
    1288:	00 d0       	rcall	.+0      	; 0x128a <_ZN7Arduboy10drawBitmapEiiPKhhhh.constprop.28+0x28>
    128a:	cd b7       	in	r28, 0x3d	; 61
    128c:	de b7       	in	r29, 0x3e	; 62
(int16_t x, int16_t y, const uint8_t *bitmap, uint8_t w, uint8_t h, 
 uint8_t color)
{
  // no need to dar at all of we're offscreen
  if (x+w < 0 || x > WIDTH-1 || y+h < 0 || y > HEIGHT-1)
    128e:	82 2e       	mov	r8, r18
    1290:	91 2c       	mov	r9, r1
    1292:	94 01       	movw	r18, r8
    1294:	28 0f       	add	r18, r24
    1296:	39 1f       	adc	r19, r25
    1298:	37 fd       	sbrc	r19, 7
    129a:	b0 c0       	rjmp	.+352    	; 0x13fc <_ZN7Arduboy10drawBitmapEiiPKhhhh.constprop.28+0x19a>
    129c:	80 38       	cpi	r24, 0x80	; 128
    129e:	91 05       	cpc	r25, r1
    12a0:	0c f0       	brlt	.+2      	; 0x12a4 <_ZN7Arduboy10drawBitmapEiiPKhhhh.constprop.28+0x42>
    12a2:	ac c0       	rjmp	.+344    	; 0x13fc <_ZN7Arduboy10drawBitmapEiiPKhhhh.constprop.28+0x19a>
    12a4:	9b 01       	movw	r18, r22
    12a6:	20 0f       	add	r18, r16
    12a8:	31 1d       	adc	r19, r1
    12aa:	37 fd       	sbrc	r19, 7
    12ac:	a7 c0       	rjmp	.+334    	; 0x13fc <_ZN7Arduboy10drawBitmapEiiPKhhhh.constprop.28+0x19a>
    12ae:	60 34       	cpi	r22, 0x40	; 64
    12b0:	71 05       	cpc	r23, r1
    12b2:	0c f0       	brlt	.+2      	; 0x12b6 <_ZN7Arduboy10drawBitmapEiiPKhhhh.constprop.28+0x54>
    12b4:	a3 c0       	rjmp	.+326    	; 0x13fc <_ZN7Arduboy10drawBitmapEiiPKhhhh.constprop.28+0x19a>
    return;

  int yOffset = abs(y) % 8;
    12b6:	db 01       	movw	r26, r22
    12b8:	77 ff       	sbrs	r23, 7
    12ba:	04 c0       	rjmp	.+8      	; 0x12c4 <_ZN7Arduboy10drawBitmapEiiPKhhhh.constprop.28+0x62>
    12bc:	aa 27       	eor	r26, r26
    12be:	bb 27       	eor	r27, r27
    12c0:	a6 1b       	sub	r26, r22
    12c2:	b7 0b       	sbc	r27, r23
    12c4:	a7 70       	andi	r26, 0x07	; 7
    12c6:	bb 27       	eor	r27, r27
  int sRow = y / 8;
    12c8:	9b 01       	movw	r18, r22
    12ca:	77 ff       	sbrs	r23, 7
    12cc:	02 c0       	rjmp	.+4      	; 0x12d2 <_ZN7Arduboy10drawBitmapEiiPKhhhh.constprop.28+0x70>
    12ce:	29 5f       	subi	r18, 0xF9	; 249
    12d0:	3f 4f       	sbci	r19, 0xFF	; 255
    12d2:	f3 e0       	ldi	r31, 0x03	; 3
    12d4:	35 95       	asr	r19
    12d6:	27 95       	ror	r18
    12d8:	fa 95       	dec	r31
    12da:	e1 f7       	brne	.-8      	; 0x12d4 <_ZN7Arduboy10drawBitmapEiiPKhhhh.constprop.28+0x72>
  if (y < 0) {
    12dc:	77 ff       	sbrs	r23, 7
    12de:	08 c0       	rjmp	.+16     	; 0x12f0 <_ZN7Arduboy10drawBitmapEiiPKhhhh.constprop.28+0x8e>
    sRow--;
    12e0:	21 50       	subi	r18, 0x01	; 1
    12e2:	31 09       	sbc	r19, r1
    yOffset = 8 - yOffset;
    12e4:	68 e0       	ldi	r22, 0x08	; 8
    12e6:	70 e0       	ldi	r23, 0x00	; 0
    12e8:	fb 01       	movw	r30, r22
    12ea:	ea 1b       	sub	r30, r26
    12ec:	fb 0b       	sbc	r31, r27
    12ee:	df 01       	movw	r26, r30
  }
  int rows = h/8;
    12f0:	20 2e       	mov	r2, r16
    12f2:	26 94       	lsr	r2
    12f4:	26 94       	lsr	r2
    12f6:	26 94       	lsr	r2
    12f8:	31 2c       	mov	r3, r1
  if (h%8!=0) rows++;
    12fa:	07 70       	andi	r16, 0x07	; 7
    12fc:	19 f0       	breq	.+6      	; 0x1304 <_ZN7Arduboy10drawBitmapEiiPKhhhh.constprop.28+0xa2>
    12fe:	ff ef       	ldi	r31, 0xFF	; 255
    1300:	2f 1a       	sub	r2, r31
    1302:	3f 0a       	sbc	r3, r31
    1304:	b9 01       	movw	r22, r18
    1306:	76 95       	lsr	r23
    1308:	76 2f       	mov	r23, r22
    130a:	66 27       	eor	r22, r22
    130c:	77 95       	ror	r23
    130e:	67 95       	ror	r22
    1310:	68 0f       	add	r22, r24
    1312:	79 1f       	adc	r23, r25
    1314:	62 59       	subi	r22, 0x92	; 146
    1316:	7c 4f       	sbci	r23, 0xFC	; 252
    1318:	8a 01       	movw	r16, r20
    131a:	22 0e       	add	r2, r18
    131c:	33 1e       	adc	r3, r19
    131e:	48 e0       	ldi	r20, 0x08	; 8
    1320:	50 e0       	ldi	r21, 0x00	; 0
    1322:	3a 01       	movw	r6, r20
    1324:	6a 1a       	sub	r6, r26
    1326:	7b 0a       	sbc	r7, r27
  for (int a = 0; a < rows; a++) {
    int bRow = sRow + a;
    if (bRow > (HEIGHT/8)-1) break;
    if (bRow > -2) {
    1328:	2f 3f       	cpi	r18, 0xFF	; 255
    132a:	4f ef       	ldi	r20, 0xFF	; 255
    132c:	34 07       	cpc	r19, r20
    132e:	0c f4       	brge	.+2      	; 0x1332 <_ZN7Arduboy10drawBitmapEiiPKhhhh.constprop.28+0xd0>
    1330:	58 c0       	rjmp	.+176    	; 0x13e2 <_ZN7Arduboy10drawBitmapEiiPKhhhh.constprop.28+0x180>
    1332:	7c 83       	std	Y+4, r23	; 0x04
    1334:	6b 83       	std	Y+3, r22	; 0x03
    1336:	6c 01       	movw	r12, r24
      for (int iCol = 0; iCol<w; iCol++) {
    1338:	50 e0       	ldi	r21, 0x00	; 0
    133a:	40 e0       	ldi	r20, 0x00	; 0
    133c:	2b 01       	movw	r4, r22
    133e:	f0 e8       	ldi	r31, 0x80	; 128
    1340:	4f 0e       	add	r4, r31
    1342:	51 1c       	adc	r5, r1
        if (iCol + x > (WIDTH-1)) break;
        if (iCol + x >= 0) {
    1344:	d7 fc       	sbrc	r13, 7
    1346:	3b c0       	rjmp	.+118    	; 0x13be <_ZN7Arduboy10drawBitmapEiiPKhhhh.constprop.28+0x15c>
          if (bRow >= 0) {
    1348:	2f 3f       	cpi	r18, 0xFF	; 255
    134a:	32 07       	cpc	r19, r18
    134c:	09 f4       	brne	.+2      	; 0x1350 <_ZN7Arduboy10drawBitmapEiiPKhhhh.constprop.28+0xee>
    134e:	a6 c0       	rjmp	.+332    	; 0x149c <_ZN7Arduboy10drawBitmapEiiPKhhhh.constprop.28+0x23a>
    1350:	5a 01       	movw	r10, r20
    1352:	a0 0e       	add	r10, r16
    1354:	b1 1e       	adc	r11, r17
    1356:	eb 81       	ldd	r30, Y+3	; 0x03
    1358:	fc 81       	ldd	r31, Y+4	; 0x04
    135a:	f4 88       	ldd	r15, Z+20	; 0x14
            if      (color == WHITE) this->sBuffer[ (bRow*WIDTH) + x + iCol ] |= pgm_read_byte(bitmap+(a*w)+iCol) << yOffset;
    135c:	f1 e0       	ldi	r31, 0x01	; 1
    135e:	ef 12       	cpse	r14, r31
    1360:	64 c0       	rjmp	.+200    	; 0x142a <_ZN7Arduboy10drawBitmapEiiPKhhhh.constprop.28+0x1c8>
    1362:	f5 01       	movw	r30, r10
    1364:	a4 90       	lpm	r10, Z
    1366:	ea 2d       	mov	r30, r10
    1368:	0a 2e       	mov	r0, r26
    136a:	01 c0       	rjmp	.+2      	; 0x136e <_ZN7Arduboy10drawBitmapEiiPKhhhh.constprop.28+0x10c>
    136c:	ee 0f       	add	r30, r30
    136e:	0a 94       	dec	r0
    1370:	ea f7       	brpl	.-6      	; 0x136c <_ZN7Arduboy10drawBitmapEiiPKhhhh.constprop.28+0x10a>
    1372:	fe 2a       	or	r15, r30
            else if (color == BLACK) this->sBuffer[ (bRow*WIDTH) + x + iCol ] &= ~(pgm_read_byte(bitmap+(a*w)+iCol) << yOffset);
            else                     this->sBuffer[ (bRow*WIDTH) + x + iCol ] ^= pgm_read_byte(bitmap+(a*w)+iCol) << yOffset;
    1374:	eb 81       	ldd	r30, Y+3	; 0x03
    1376:	fc 81       	ldd	r31, Y+4	; 0x04
    1378:	f4 8a       	std	Z+20, r15	; 0x14
          }
          if (yOffset && bRow<(HEIGHT/8)-1 && bRow > -2) {
    137a:	10 97       	sbiw	r26, 0x00	; 0
    137c:	01 f1       	breq	.+64     	; 0x13be <_ZN7Arduboy10drawBitmapEiiPKhhhh.constprop.28+0x15c>
    137e:	27 30       	cpi	r18, 0x07	; 7
    1380:	31 05       	cpc	r19, r1
    1382:	e9 f0       	breq	.+58     	; 0x13be <_ZN7Arduboy10drawBitmapEiiPKhhhh.constprop.28+0x15c>
    1384:	fa 01       	movw	r30, r20
    1386:	e0 0f       	add	r30, r16
    1388:	f1 1f       	adc	r31, r17
    138a:	fa 83       	std	Y+2, r31	; 0x02
    138c:	e9 83       	std	Y+1, r30	; 0x01
    138e:	52 01       	movw	r10, r4
    1390:	a4 0e       	add	r10, r20
    1392:	b5 1e       	adc	r11, r21
    1394:	f5 01       	movw	r30, r10
    1396:	f4 88       	ldd	r15, Z+20	; 0x14
            if      (color == WHITE) this->sBuffer[ ((bRow+1)*WIDTH) + x + iCol ] |= pgm_read_byte(bitmap+(a*w)+iCol) >> (8-yOffset);
    1398:	f1 e0       	ldi	r31, 0x01	; 1
    139a:	ef 12       	cpse	r14, r31
    139c:	5f c0       	rjmp	.+190    	; 0x145c <_ZN7Arduboy10drawBitmapEiiPKhhhh.constprop.28+0x1fa>
    139e:	e9 81       	ldd	r30, Y+1	; 0x01
    13a0:	fa 81       	ldd	r31, Y+2	; 0x02
    13a2:	f4 91       	lpm	r31, Z
    13a4:	ef 2f       	mov	r30, r31
    13a6:	f0 e0       	ldi	r31, 0x00	; 0
    13a8:	fa 83       	std	Y+2, r31	; 0x02
    13aa:	e9 83       	std	Y+1, r30	; 0x01
    13ac:	06 2c       	mov	r0, r6
    13ae:	02 c0       	rjmp	.+4      	; 0x13b4 <_ZN7Arduboy10drawBitmapEiiPKhhhh.constprop.28+0x152>
    13b0:	f5 95       	asr	r31
    13b2:	e7 95       	ror	r30
    13b4:	0a 94       	dec	r0
    13b6:	e2 f7       	brpl	.-8      	; 0x13b0 <_ZN7Arduboy10drawBitmapEiiPKhhhh.constprop.28+0x14e>
    13b8:	fe 2a       	or	r15, r30
            else if (color == BLACK) this->sBuffer[ ((bRow+1)*WIDTH) + x + iCol ] &= ~(pgm_read_byte(bitmap+(a*w)+iCol) >> (8-yOffset));
            else                     this->sBuffer[ ((bRow+1)*WIDTH) + x + iCol ] ^= pgm_read_byte(bitmap+(a*w)+iCol) >> (8-yOffset);
    13ba:	f5 01       	movw	r30, r10
    13bc:	f4 8a       	std	Z+20, r15	; 0x14
  if (h%8!=0) rows++;
  for (int a = 0; a < rows; a++) {
    int bRow = sRow + a;
    if (bRow > (HEIGHT/8)-1) break;
    if (bRow > -2) {
      for (int iCol = 0; iCol<w; iCol++) {
    13be:	4f 5f       	subi	r20, 0xFF	; 255
    13c0:	5f 4f       	sbci	r21, 0xFF	; 255
    13c2:	ff ef       	ldi	r31, 0xFF	; 255
    13c4:	cf 1a       	sub	r12, r31
    13c6:	df 0a       	sbc	r13, r31
    13c8:	eb 81       	ldd	r30, Y+3	; 0x03
    13ca:	fc 81       	ldd	r31, Y+4	; 0x04
    13cc:	31 96       	adiw	r30, 0x01	; 1
    13ce:	fc 83       	std	Y+4, r31	; 0x04
    13d0:	eb 83       	std	Y+3, r30	; 0x03
    13d2:	48 15       	cp	r20, r8
    13d4:	59 05       	cpc	r21, r9
    13d6:	2c f4       	brge	.+10     	; 0x13e2 <_ZN7Arduboy10drawBitmapEiiPKhhhh.constprop.28+0x180>
        if (iCol + x > (WIDTH-1)) break;
    13d8:	e0 e8       	ldi	r30, 0x80	; 128
    13da:	ce 16       	cp	r12, r30
    13dc:	d1 04       	cpc	r13, r1
    13de:	09 f0       	breq	.+2      	; 0x13e2 <_ZN7Arduboy10drawBitmapEiiPKhhhh.constprop.28+0x180>
    13e0:	b1 cf       	rjmp	.-158    	; 0x1344 <_ZN7Arduboy10drawBitmapEiiPKhhhh.constprop.28+0xe2>
    13e2:	2f 5f       	subi	r18, 0xFF	; 255
    13e4:	3f 4f       	sbci	r19, 0xFF	; 255
    13e6:	60 58       	subi	r22, 0x80	; 128
    13e8:	7f 4f       	sbci	r23, 0xFF	; 255
    13ea:	08 0d       	add	r16, r8
    13ec:	19 1d       	adc	r17, r9
    sRow--;
    yOffset = 8 - yOffset;
  }
  int rows = h/8;
  if (h%8!=0) rows++;
  for (int a = 0; a < rows; a++) {
    13ee:	22 15       	cp	r18, r2
    13f0:	33 05       	cpc	r19, r3
    13f2:	21 f0       	breq	.+8      	; 0x13fc <_ZN7Arduboy10drawBitmapEiiPKhhhh.constprop.28+0x19a>
    int bRow = sRow + a;
    if (bRow > (HEIGHT/8)-1) break;
    13f4:	28 30       	cpi	r18, 0x08	; 8
    13f6:	31 05       	cpc	r19, r1
    13f8:	09 f0       	breq	.+2      	; 0x13fc <_ZN7Arduboy10drawBitmapEiiPKhhhh.constprop.28+0x19a>
    13fa:	96 cf       	rjmp	.-212    	; 0x1328 <_ZN7Arduboy10drawBitmapEiiPKhhhh.constprop.28+0xc6>
          }
        }
      }
    }
  }
}
    13fc:	0f 90       	pop	r0
    13fe:	0f 90       	pop	r0
    1400:	0f 90       	pop	r0
    1402:	0f 90       	pop	r0
    1404:	df 91       	pop	r29
    1406:	cf 91       	pop	r28
    1408:	1f 91       	pop	r17
    140a:	0f 91       	pop	r16
    140c:	ff 90       	pop	r15
    140e:	ef 90       	pop	r14
    1410:	df 90       	pop	r13
    1412:	cf 90       	pop	r12
    1414:	bf 90       	pop	r11
    1416:	af 90       	pop	r10
    1418:	9f 90       	pop	r9
    141a:	8f 90       	pop	r8
    141c:	7f 90       	pop	r7
    141e:	6f 90       	pop	r6
    1420:	5f 90       	pop	r5
    1422:	4f 90       	pop	r4
    1424:	3f 90       	pop	r3
    1426:	2f 90       	pop	r2
    1428:	08 95       	ret
      for (int iCol = 0; iCol<w; iCol++) {
        if (iCol + x > (WIDTH-1)) break;
        if (iCol + x >= 0) {
          if (bRow >= 0) {
            if      (color == WHITE) this->sBuffer[ (bRow*WIDTH) + x + iCol ] |= pgm_read_byte(bitmap+(a*w)+iCol) << yOffset;
            else if (color == BLACK) this->sBuffer[ (bRow*WIDTH) + x + iCol ] &= ~(pgm_read_byte(bitmap+(a*w)+iCol) << yOffset);
    142a:	f5 01       	movw	r30, r10
    142c:	e1 10       	cpse	r14, r1
    142e:	0d c0       	rjmp	.+26     	; 0x144a <_ZN7Arduboy10drawBitmapEiiPKhhhh.constprop.28+0x1e8>
    1430:	a4 90       	lpm	r10, Z
    1432:	ea 2d       	mov	r30, r10
    1434:	f0 e0       	ldi	r31, 0x00	; 0
    1436:	0a 2e       	mov	r0, r26
    1438:	02 c0       	rjmp	.+4      	; 0x143e <_ZN7Arduboy10drawBitmapEiiPKhhhh.constprop.28+0x1dc>
    143a:	ee 0f       	add	r30, r30
    143c:	ff 1f       	adc	r31, r31
    143e:	0a 94       	dec	r0
    1440:	e2 f7       	brpl	.-8      	; 0x143a <_ZN7Arduboy10drawBitmapEiiPKhhhh.constprop.28+0x1d8>
    1442:	e0 95       	com	r30
    1444:	f0 95       	com	r31
    1446:	fe 22       	and	r15, r30
    1448:	95 cf       	rjmp	.-214    	; 0x1374 <_ZN7Arduboy10drawBitmapEiiPKhhhh.constprop.28+0x112>
            else                     this->sBuffer[ (bRow*WIDTH) + x + iCol ] ^= pgm_read_byte(bitmap+(a*w)+iCol) << yOffset;
    144a:	a4 90       	lpm	r10, Z
    144c:	ea 2d       	mov	r30, r10
    144e:	0a 2e       	mov	r0, r26
    1450:	01 c0       	rjmp	.+2      	; 0x1454 <_ZN7Arduboy10drawBitmapEiiPKhhhh.constprop.28+0x1f2>
    1452:	ee 0f       	add	r30, r30
    1454:	0a 94       	dec	r0
    1456:	ea f7       	brpl	.-6      	; 0x1452 <_ZN7Arduboy10drawBitmapEiiPKhhhh.constprop.28+0x1f0>
    1458:	fe 26       	eor	r15, r30
    145a:	8c cf       	rjmp	.-232    	; 0x1374 <_ZN7Arduboy10drawBitmapEiiPKhhhh.constprop.28+0x112>
          }
          if (yOffset && bRow<(HEIGHT/8)-1 && bRow > -2) {
            if      (color == WHITE) this->sBuffer[ ((bRow+1)*WIDTH) + x + iCol ] |= pgm_read_byte(bitmap+(a*w)+iCol) >> (8-yOffset);
            else if (color == BLACK) this->sBuffer[ ((bRow+1)*WIDTH) + x + iCol ] &= ~(pgm_read_byte(bitmap+(a*w)+iCol) >> (8-yOffset));
    145c:	e9 81       	ldd	r30, Y+1	; 0x01
    145e:	fa 81       	ldd	r31, Y+2	; 0x02
    1460:	e1 10       	cpse	r14, r1
    1462:	0f c0       	rjmp	.+30     	; 0x1482 <_ZN7Arduboy10drawBitmapEiiPKhhhh.constprop.28+0x220>
    1464:	f4 91       	lpm	r31, Z
    1466:	ef 2f       	mov	r30, r31
    1468:	f0 e0       	ldi	r31, 0x00	; 0
    146a:	fa 83       	std	Y+2, r31	; 0x02
    146c:	e9 83       	std	Y+1, r30	; 0x01
    146e:	06 2c       	mov	r0, r6
    1470:	02 c0       	rjmp	.+4      	; 0x1476 <_ZN7Arduboy10drawBitmapEiiPKhhhh.constprop.28+0x214>
    1472:	f5 95       	asr	r31
    1474:	e7 95       	ror	r30
    1476:	0a 94       	dec	r0
    1478:	e2 f7       	brpl	.-8      	; 0x1472 <_ZN7Arduboy10drawBitmapEiiPKhhhh.constprop.28+0x210>
    147a:	e0 95       	com	r30
    147c:	f0 95       	com	r31
    147e:	fe 22       	and	r15, r30
    1480:	9c cf       	rjmp	.-200    	; 0x13ba <_ZN7Arduboy10drawBitmapEiiPKhhhh.constprop.28+0x158>
            else                     this->sBuffer[ ((bRow+1)*WIDTH) + x + iCol ] ^= pgm_read_byte(bitmap+(a*w)+iCol) >> (8-yOffset);
    1482:	f4 91       	lpm	r31, Z
    1484:	ef 2f       	mov	r30, r31
    1486:	f0 e0       	ldi	r31, 0x00	; 0
    1488:	fa 83       	std	Y+2, r31	; 0x02
    148a:	e9 83       	std	Y+1, r30	; 0x01
    148c:	06 2c       	mov	r0, r6
    148e:	02 c0       	rjmp	.+4      	; 0x1494 <_ZN7Arduboy10drawBitmapEiiPKhhhh.constprop.28+0x232>
    1490:	f5 95       	asr	r31
    1492:	e7 95       	ror	r30
    1494:	0a 94       	dec	r0
    1496:	e2 f7       	brpl	.-8      	; 0x1490 <_ZN7Arduboy10drawBitmapEiiPKhhhh.constprop.28+0x22e>
    1498:	fe 26       	eor	r15, r30
    149a:	8f cf       	rjmp	.-226    	; 0x13ba <_ZN7Arduboy10drawBitmapEiiPKhhhh.constprop.28+0x158>
          if (bRow >= 0) {
            if      (color == WHITE) this->sBuffer[ (bRow*WIDTH) + x + iCol ] |= pgm_read_byte(bitmap+(a*w)+iCol) << yOffset;
            else if (color == BLACK) this->sBuffer[ (bRow*WIDTH) + x + iCol ] &= ~(pgm_read_byte(bitmap+(a*w)+iCol) << yOffset);
            else                     this->sBuffer[ (bRow*WIDTH) + x + iCol ] ^= pgm_read_byte(bitmap+(a*w)+iCol) << yOffset;
          }
          if (yOffset && bRow<(HEIGHT/8)-1 && bRow > -2) {
    149c:	10 97       	sbiw	r26, 0x00	; 0
    149e:	09 f0       	breq	.+2      	; 0x14a2 <_ZN7Arduboy10drawBitmapEiiPKhhhh.constprop.28+0x240>
    14a0:	71 cf       	rjmp	.-286    	; 0x1384 <_ZN7Arduboy10drawBitmapEiiPKhhhh.constprop.28+0x122>
    14a2:	8d cf       	rjmp	.-230    	; 0x13be <_ZN7Arduboy10drawBitmapEiiPKhhhh.constprop.28+0x15c>

000014a4 <_ZN7Arduboy10fillScreenEh.constprop.23>:
    // input: sBuffer, color
    // modified: Z (r30, r31), r27
    :
    : "r" (sBuffer), "r" (color)
    : "r30", "r31", "r27"
  );
    14a4:	82 e8       	ldi	r24, 0x82	; 130
    14a6:	93 e0       	ldi	r25, 0x03	; 3
    14a8:	20 e0       	ldi	r18, 0x00	; 0
    14aa:	b2 2f       	mov	r27, r18
    14ac:	b1 11       	cpse	r27, r1
    14ae:	bf ef       	ldi	r27, 0xFF	; 255
    14b0:	fc 01       	movw	r30, r24
    14b2:	00 24       	eor	r0, r0

000014b4 <loopto>:
    14b4:	b1 93       	st	Z+, r27
    14b6:	b1 93       	st	Z+, r27
    14b8:	b1 93       	st	Z+, r27
    14ba:	b1 93       	st	Z+, r27
    14bc:	03 94       	inc	r0
    14be:	d1 f7       	brne	.-12     	; 0x14b4 <loopto>
}
    14c0:	08 95       	ret

000014c2 <_Z8USB_RecvhPvi.constprop.5>:
	return FifoByteCount();
}

//	Non Blocking receive
//	Return number of bytes read
int USB_Recv(u8 ep, void* d, int len)
    14c2:	fc 01       	movw	r30, r24
{
	if (!_usbConfiguration || len < 0)
    14c4:	80 91 16 03 	lds	r24, 0x0316	; 0x800316 <_usbConfiguration>
    14c8:	88 23       	and	r24, r24
    14ca:	11 f1       	breq	.+68     	; 0x1510 <_Z8USB_RecvhPvi.constprop.5+0x4e>
#define USB_RECV_TIMEOUT
class LockEP
{
	u8 _sreg;
public:
	LockEP(u8 ep) : _sreg(SREG)
    14cc:	3f b7       	in	r19, 0x3f	; 63
	{
		cli();
    14ce:	f8 94       	cli
	UEDATX = d;
}

static inline void SetEP(u8 ep)
{
	UENUM = ep;
    14d0:	82 e0       	ldi	r24, 0x02	; 2
    14d2:	80 93 e9 00 	sts	0x00E9, r24	; 0x8000e9 <__DATA_REGION_ORIGIN__+0x89>
}

static inline u8 FifoByteCount()
{
	return UEBCLX;
    14d6:	20 91 f2 00 	lds	r18, 0x00F2	; 0x8000f2 <__DATA_REGION_ORIGIN__+0x92>
	if (!_usbConfiguration || len < 0)
		return -1;
	
	LockEP lock(ep);
	u8 n = FifoByteCount();
	len = min(n,len);
    14da:	82 2f       	mov	r24, r18
    14dc:	90 e0       	ldi	r25, 0x00	; 0
    14de:	18 16       	cp	r1, r24
    14e0:	19 06       	cpc	r1, r25
    14e2:	14 f4       	brge	.+4      	; 0x14e8 <_Z8USB_RecvhPvi.constprop.5+0x26>
    14e4:	81 e0       	ldi	r24, 0x01	; 1
    14e6:	90 e0       	ldi	r25, 0x00	; 0
	n = len;
	u8* dst = (u8*)d;
	while (n--)
    14e8:	88 23       	and	r24, r24
    14ea:	39 f0       	breq	.+14     	; 0x14fa <_Z8USB_RecvhPvi.constprop.5+0x38>
	RxLEDPulse = TX_RX_LED_PULSE_MS;	
}

static inline u8 Recv8()
{
	RXLED1;					// light the RX LED
    14ec:	28 98       	cbi	0x05, 0	; 5
	RxLEDPulse = TX_RX_LED_PULSE_MS;
    14ee:	44 e6       	ldi	r20, 0x64	; 100
    14f0:	40 93 15 03 	sts	0x0315, r20	; 0x800315 <RxLEDPulse>

	return UEDATX;	
    14f4:	40 91 f1 00 	lds	r20, 0x00F1	; 0x8000f1 <__DATA_REGION_ORIGIN__+0x91>
	u8 n = FifoByteCount();
	len = min(n,len);
	n = len;
	u8* dst = (u8*)d;
	while (n--)
		*dst++ = Recv8();
    14f8:	40 83       	st	Z, r20
	if (len && !FifoByteCount())	// release empty buffer
    14fa:	22 23       	and	r18, r18
    14fc:	39 f0       	breq	.+14     	; 0x150c <_Z8USB_RecvhPvi.constprop.5+0x4a>
	UENUM = ep;
}

static inline u8 FifoByteCount()
{
	return UEBCLX;
    14fe:	20 91 f2 00 	lds	r18, 0x00F2	; 0x8000f2 <__DATA_REGION_ORIGIN__+0x92>
	len = min(n,len);
	n = len;
	u8* dst = (u8*)d;
	while (n--)
		*dst++ = Recv8();
	if (len && !FifoByteCount())	// release empty buffer
    1502:	21 11       	cpse	r18, r1
    1504:	03 c0       	rjmp	.+6      	; 0x150c <_Z8USB_RecvhPvi.constprop.5+0x4a>
	return UEINTX & (1<<FIFOCON);
}

static inline void ReleaseRX()
{
	UEINTX = 0x6B;	// FIFOCON=0 NAKINI=1 RWAL=1 NAKOUTI=0 RXSTPI=1 RXOUTI=0 STALLEDI=1 TXINI=1
    1506:	2b e6       	ldi	r18, 0x6B	; 107
    1508:	20 93 e8 00 	sts	0x00E8, r18	; 0x8000e8 <__DATA_REGION_ORIGIN__+0x88>
		cli();
		SetEP(ep & 7);
	}
	~LockEP()
	{
		SREG = _sreg;
    150c:	3f bf       	out	0x3f, r19	; 63
    150e:	08 95       	ret
//	Non Blocking receive
//	Return number of bytes read
int USB_Recv(u8 ep, void* d, int len)
{
	if (!_usbConfiguration || len < 0)
		return -1;
    1510:	8f ef       	ldi	r24, 0xFF	; 255
    1512:	9f ef       	ldi	r25, 0xFF	; 255
		*dst++ = Recv8();
	if (len && !FifoByteCount())	// release empty buffer
		ReleaseRX();
	
	return len;
}
    1514:	08 95       	ret

00001516 <_Z13USB_SendSpaceh.constprop.3>:
#define USB_RECV_TIMEOUT
class LockEP
{
	u8 _sreg;
public:
	LockEP(u8 ep) : _sreg(SREG)
    1516:	2f b7       	in	r18, 0x3f	; 63
	{
		cli();
    1518:	f8 94       	cli
	UEDATX = d;
}

static inline void SetEP(u8 ep)
{
	UENUM = ep;
    151a:	83 e0       	ldi	r24, 0x03	; 3
    151c:	80 93 e9 00 	sts	0x00E9, r24	; 0x8000e9 <__DATA_REGION_ORIGIN__+0x89>
	UECONX = (1<<STALLRQ) | (1<<EPEN);
}

static inline u8 ReadWriteAllowed()
{
	return UEINTX & (1<<RWAL);
    1520:	90 91 e8 00 	lds	r25, 0x00E8	; 0x8000e8 <__DATA_REGION_ORIGIN__+0x88>

//	Space in send EP
u8 USB_SendSpace(u8 ep)
{
	LockEP lock(ep);
	if (!ReadWriteAllowed())
    1524:	89 2f       	mov	r24, r25
    1526:	80 72       	andi	r24, 0x20	; 32
    1528:	95 ff       	sbrs	r25, 5
    152a:	04 c0       	rjmp	.+8      	; 0x1534 <_Z13USB_SendSpaceh.constprop.3+0x1e>
	UENUM = ep;
}

static inline u8 FifoByteCount()
{
	return UEBCLX;
    152c:	90 91 f2 00 	lds	r25, 0x00F2	; 0x8000f2 <__DATA_REGION_ORIGIN__+0x92>
u8 USB_SendSpace(u8 ep)
{
	LockEP lock(ep);
	if (!ReadWriteAllowed())
		return 0;
	return USB_EP_SIZE - FifoByteCount();
    1530:	80 e4       	ldi	r24, 0x40	; 64
    1532:	89 1b       	sub	r24, r25
		cli();
		SetEP(ep & 7);
	}
	~LockEP()
	{
		SREG = _sreg;
    1534:	2f bf       	out	0x3f, r18	; 63
{
	LockEP lock(ep);
	if (!ReadWriteAllowed())
		return 0;
	return USB_EP_SIZE - FifoByteCount();
}
    1536:	08 95       	ret

00001538 <_Z12PluggableUSBv>:
	// restart USB layer???
}

PluggableUSB_& PluggableUSB()
{
	static PluggableUSB_ obj;
    1538:	80 91 0d 03 	lds	r24, 0x030D	; 0x80030d <_ZGVZ12PluggableUSBvE3obj>
    153c:	81 11       	cpse	r24, r1
    153e:	0d c0       	rjmp	.+26     	; 0x155a <_Z12PluggableUSBv+0x22>
	return obj;
}

PluggableUSB_::PluggableUSB_() : lastIf(CDC_ACM_INTERFACE + CDC_INTERFACE_COUNT),
                                 lastEp(CDC_FIRST_ENDPOINT + CDC_ENPOINT_COUNT),
                                 rootNode(NULL)
    1540:	82 e0       	ldi	r24, 0x02	; 2
    1542:	80 93 09 03 	sts	0x0309, r24	; 0x800309 <_ZZ12PluggableUSBvE3obj>
    1546:	84 e0       	ldi	r24, 0x04	; 4
    1548:	80 93 0a 03 	sts	0x030A, r24	; 0x80030a <_ZZ12PluggableUSBvE3obj+0x1>
    154c:	10 92 0c 03 	sts	0x030C, r1	; 0x80030c <_ZZ12PluggableUSBvE3obj+0x3>
    1550:	10 92 0b 03 	sts	0x030B, r1	; 0x80030b <_ZZ12PluggableUSBvE3obj+0x2>
	// restart USB layer???
}

PluggableUSB_& PluggableUSB()
{
	static PluggableUSB_ obj;
    1554:	81 e0       	ldi	r24, 0x01	; 1
    1556:	80 93 0d 03 	sts	0x030D, r24	; 0x80030d <_ZGVZ12PluggableUSBvE3obj>
	return obj;
}
    155a:	89 e0       	ldi	r24, 0x09	; 9
    155c:	93 e0       	ldi	r25, 0x03	; 3
    155e:	08 95       	ret

00001560 <_ZN7Serial_5writeEh>:
{
	USB_Flush(CDC_TX);
}

size_t Serial_::write(uint8_t c)
{
    1560:	cf 93       	push	r28
    1562:	df 93       	push	r29
    1564:	1f 92       	push	r1
    1566:	cd b7       	in	r28, 0x3d	; 61
    1568:	de b7       	in	r29, 0x3e	; 62
    156a:	69 83       	std	Y+1, r22	; 0x01
	return write(&c, 1);
    156c:	dc 01       	movw	r26, r24
    156e:	ed 91       	ld	r30, X+
    1570:	fc 91       	ld	r31, X
    1572:	02 80       	ldd	r0, Z+2	; 0x02
    1574:	f3 81       	ldd	r31, Z+3	; 0x03
    1576:	e0 2d       	mov	r30, r0
    1578:	41 e0       	ldi	r20, 0x01	; 1
    157a:	50 e0       	ldi	r21, 0x00	; 0
    157c:	be 01       	movw	r22, r28
    157e:	6f 5f       	subi	r22, 0xFF	; 255
    1580:	7f 4f       	sbci	r23, 0xFF	; 255
    1582:	09 95       	icall
}
    1584:	0f 90       	pop	r0
    1586:	df 91       	pop	r29
    1588:	cf 91       	pop	r28
    158a:	08 95       	ret

0000158c <_ZN7Serial_5flushEv>:
	UEDATX = d;
}

static inline void SetEP(u8 ep)
{
	UENUM = ep;
    158c:	83 e0       	ldi	r24, 0x03	; 3
    158e:	80 93 e9 00 	sts	0x00E9, r24	; 0x8000e9 <__DATA_REGION_ORIGIN__+0x89>
}

static inline u8 FifoByteCount()
{
	return UEBCLX;
    1592:	80 91 f2 00 	lds	r24, 0x00F2	; 0x8000f2 <__DATA_REGION_ORIGIN__+0x92>
}

void USB_Flush(u8 ep)
{
	SetEP(ep);
	if (FifoByteCount())
    1596:	88 23       	and	r24, r24
    1598:	19 f0       	breq	.+6      	; 0x15a0 <_ZN7Serial_5flushEv+0x14>
	UEINTX = 0x6B;	// FIFOCON=0 NAKINI=1 RWAL=1 NAKOUTI=0 RXSTPI=1 RXOUTI=0 STALLEDI=1 TXINI=1
}

static inline void ReleaseTX()
{
	UEINTX = 0x3A;	// FIFOCON=0 NAKINI=0 RWAL=1 NAKOUTI=1 RXSTPI=1 RXOUTI=0 STALLEDI=1 TXINI=0
    159a:	8a e3       	ldi	r24, 0x3A	; 58
    159c:	80 93 e8 00 	sts	0x00E8, r24	; 0x8000e8 <__DATA_REGION_ORIGIN__+0x88>
}

void Serial_::flush(void)
{
	USB_Flush(CDC_TX);
}
    15a0:	08 95       	ret

000015a2 <_ZN7Serial_17availableForWriteEv>:
	return USB_Recv(CDC_RX);
}

int Serial_::availableForWrite(void)
{
	return USB_SendSpace(CDC_TX);
    15a2:	0e 94 8b 0a 	call	0x1516	; 0x1516 <_Z13USB_SendSpaceh.constprop.3>
}
    15a6:	90 e0       	ldi	r25, 0x00	; 0
    15a8:	08 95       	ret

000015aa <_ZN7Serial_4readEv>:
		peek_buffer = USB_Recv(CDC_RX);
	return peek_buffer;
}

int Serial_::read(void)
{
    15aa:	cf 93       	push	r28
    15ac:	df 93       	push	r29
    15ae:	1f 92       	push	r1
    15b0:	cd b7       	in	r28, 0x3d	; 61
    15b2:	de b7       	in	r29, 0x3e	; 62
    15b4:	fc 01       	movw	r30, r24
	if (peek_buffer >= 0) {
    15b6:	84 85       	ldd	r24, Z+12	; 0x0c
    15b8:	95 85       	ldd	r25, Z+13	; 0x0d
    15ba:	97 fd       	sbrc	r25, 7
    15bc:	08 c0       	rjmp	.+16     	; 0x15ce <_ZN7Serial_4readEv+0x24>
		int c = peek_buffer;
		peek_buffer = -1;
    15be:	2f ef       	ldi	r18, 0xFF	; 255
    15c0:	3f ef       	ldi	r19, 0xFF	; 255
    15c2:	35 87       	std	Z+13, r19	; 0x0d
    15c4:	24 87       	std	Z+12, r18	; 0x0c
		return c;
	}
	return USB_Recv(CDC_RX);
}
    15c6:	0f 90       	pop	r0
    15c8:	df 91       	pop	r29
    15ca:	cf 91       	pop	r28
    15cc:	08 95       	ret

//	Recv 1 byte if ready
int USB_Recv(u8 ep)
{
	u8 c;
	if (USB_Recv(ep,&c,1) != 1)
    15ce:	ce 01       	movw	r24, r28
    15d0:	01 96       	adiw	r24, 0x01	; 1
    15d2:	0e 94 61 0a 	call	0x14c2	; 0x14c2 <_Z8USB_RecvhPvi.constprop.5>
    15d6:	01 97       	sbiw	r24, 0x01	; 1
    15d8:	19 f4       	brne	.+6      	; 0x15e0 <_ZN7Serial_4readEv+0x36>
		return -1;
	return c;
    15da:	89 81       	ldd	r24, Y+1	; 0x01
    15dc:	90 e0       	ldi	r25, 0x00	; 0
    15de:	f3 cf       	rjmp	.-26     	; 0x15c6 <_ZN7Serial_4readEv+0x1c>
//	Recv 1 byte if ready
int USB_Recv(u8 ep)
{
	u8 c;
	if (USB_Recv(ep,&c,1) != 1)
		return -1;
    15e0:	8f ef       	ldi	r24, 0xFF	; 255
    15e2:	9f ef       	ldi	r25, 0xFF	; 255
    15e4:	f0 cf       	rjmp	.-32     	; 0x15c6 <_ZN7Serial_4readEv+0x1c>

000015e6 <_ZN7Serial_4peekEv>:
	}
	return USB_Available(CDC_RX);
}

int Serial_::peek(void)
{
    15e6:	0f 93       	push	r16
    15e8:	1f 93       	push	r17
    15ea:	cf 93       	push	r28
    15ec:	df 93       	push	r29
    15ee:	1f 92       	push	r1
    15f0:	cd b7       	in	r28, 0x3d	; 61
    15f2:	de b7       	in	r29, 0x3e	; 62
    15f4:	8c 01       	movw	r16, r24
	if (peek_buffer < 0)
    15f6:	fc 01       	movw	r30, r24
    15f8:	84 85       	ldd	r24, Z+12	; 0x0c
    15fa:	95 85       	ldd	r25, Z+13	; 0x0d
    15fc:	97 ff       	sbrs	r25, 7
    15fe:	0b c0       	rjmp	.+22     	; 0x1616 <_ZN7Serial_4peekEv+0x30>

//	Recv 1 byte if ready
int USB_Recv(u8 ep)
{
	u8 c;
	if (USB_Recv(ep,&c,1) != 1)
    1600:	ce 01       	movw	r24, r28
    1602:	01 96       	adiw	r24, 0x01	; 1
    1604:	0e 94 61 0a 	call	0x14c2	; 0x14c2 <_Z8USB_RecvhPvi.constprop.5>
    1608:	01 97       	sbiw	r24, 0x01	; 1
    160a:	71 f4       	brne	.+28     	; 0x1628 <_ZN7Serial_4peekEv+0x42>
		return -1;
	return c;
    160c:	89 81       	ldd	r24, Y+1	; 0x01
    160e:	90 e0       	ldi	r25, 0x00	; 0
		peek_buffer = USB_Recv(CDC_RX);
    1610:	f8 01       	movw	r30, r16
    1612:	95 87       	std	Z+13, r25	; 0x0d
    1614:	84 87       	std	Z+12, r24	; 0x0c
	return peek_buffer;
}
    1616:	f8 01       	movw	r30, r16
    1618:	84 85       	ldd	r24, Z+12	; 0x0c
    161a:	95 85       	ldd	r25, Z+13	; 0x0d
    161c:	0f 90       	pop	r0
    161e:	df 91       	pop	r29
    1620:	cf 91       	pop	r28
    1622:	1f 91       	pop	r17
    1624:	0f 91       	pop	r16
    1626:	08 95       	ret
//	Recv 1 byte if ready
int USB_Recv(u8 ep)
{
	u8 c;
	if (USB_Recv(ep,&c,1) != 1)
		return -1;
    1628:	8f ef       	ldi	r24, 0xFF	; 255
    162a:	9f ef       	ldi	r25, 0xFF	; 255
    162c:	f1 cf       	rjmp	.-30     	; 0x1610 <_ZN7Serial_4peekEv+0x2a>

0000162e <_ZN7Serial_9availableEv>:
{
}

int Serial_::available(void)
{
	if (peek_buffer >= 0) {
    162e:	fc 01       	movw	r30, r24
    1630:	84 85       	ldd	r24, Z+12	; 0x0c
    1632:	95 85       	ldd	r25, Z+13	; 0x0d
    1634:	97 fd       	sbrc	r25, 7
    1636:	0b c0       	rjmp	.+22     	; 0x164e <_ZN7Serial_9availableEv+0x20>
#define USB_RECV_TIMEOUT
class LockEP
{
	u8 _sreg;
public:
	LockEP(u8 ep) : _sreg(SREG)
    1638:	9f b7       	in	r25, 0x3f	; 63
	{
		cli();
    163a:	f8 94       	cli
	UEDATX = d;
}

static inline void SetEP(u8 ep)
{
	UENUM = ep;
    163c:	82 e0       	ldi	r24, 0x02	; 2
    163e:	80 93 e9 00 	sts	0x00E9, r24	; 0x8000e9 <__DATA_REGION_ORIGIN__+0x89>
}

static inline u8 FifoByteCount()
{
	return UEBCLX;
    1642:	80 91 f2 00 	lds	r24, 0x00F2	; 0x8000f2 <__DATA_REGION_ORIGIN__+0x92>
		cli();
		SetEP(ep & 7);
	}
	~LockEP()
	{
		SREG = _sreg;
    1646:	9f bf       	out	0x3f, r25	; 63
		return 1 + USB_Available(CDC_RX);
    1648:	90 e0       	ldi	r25, 0x00	; 0
    164a:	01 96       	adiw	r24, 0x01	; 1
    164c:	08 95       	ret
#define USB_RECV_TIMEOUT
class LockEP
{
	u8 _sreg;
public:
	LockEP(u8 ep) : _sreg(SREG)
    164e:	9f b7       	in	r25, 0x3f	; 63
	{
		cli();
    1650:	f8 94       	cli
	UEDATX = d;
}

static inline void SetEP(u8 ep)
{
	UENUM = ep;
    1652:	82 e0       	ldi	r24, 0x02	; 2
    1654:	80 93 e9 00 	sts	0x00E9, r24	; 0x8000e9 <__DATA_REGION_ORIGIN__+0x89>
}

static inline u8 FifoByteCount()
{
	return UEBCLX;
    1658:	80 91 f2 00 	lds	r24, 0x00F2	; 0x8000f2 <__DATA_REGION_ORIGIN__+0x92>
		cli();
		SetEP(ep & 7);
	}
	~LockEP()
	{
		SREG = _sreg;
    165c:	9f bf       	out	0x3f, r25	; 63
	}
	return USB_Available(CDC_RX);
    165e:	90 e0       	ldi	r25, 0x00	; 0
}
    1660:	08 95       	ret

00001662 <_ZL11SendControlh>:
}

static
bool SendControl(u8 d)
{
	if (_cmark < _cend)
    1662:	40 91 03 03 	lds	r20, 0x0303	; 0x800303 <_ZL6_cmark>
    1666:	50 91 04 03 	lds	r21, 0x0304	; 0x800304 <_ZL6_cmark+0x1>
    166a:	20 91 01 03 	lds	r18, 0x0301	; 0x800301 <_ZL5_cend>
    166e:	30 91 02 03 	lds	r19, 0x0302	; 0x800302 <_ZL5_cend+0x1>
    1672:	42 17       	cp	r20, r18
    1674:	53 07       	cpc	r21, r19
    1676:	b4 f4       	brge	.+44     	; 0x16a4 <_ZL11SendControlh+0x42>
		;
}

static inline u8 WaitForINOrOUT()
{
	while (!(UEINTX & ((1<<TXINI)|(1<<RXOUTI))))
    1678:	90 91 e8 00 	lds	r25, 0x00E8	; 0x8000e8 <__DATA_REGION_ORIGIN__+0x88>
    167c:	95 70       	andi	r25, 0x05	; 5
    167e:	e1 f3       	breq	.-8      	; 0x1678 <_ZL11SendControlh+0x16>
		;
	return (UEINTX & (1<<RXOUTI)) == 0;
    1680:	90 91 e8 00 	lds	r25, 0x00E8	; 0x8000e8 <__DATA_REGION_ORIGIN__+0x88>
static
bool SendControl(u8 d)
{
	if (_cmark < _cend)
	{
		if (!WaitForINOrOUT())
    1684:	92 fd       	sbrc	r25, 2
    1686:	19 c0       	rjmp	.+50     	; 0x16ba <_ZL11SendControlh+0x58>
	return UEDATX;	
}

static inline void Send8(u8 d)
{
	UEDATX = d;
    1688:	80 93 f1 00 	sts	0x00F1, r24	; 0x8000f1 <__DATA_REGION_ORIGIN__+0x91>
	if (_cmark < _cend)
	{
		if (!WaitForINOrOUT())
			return false;
		Send8(d);
		if (!((_cmark + 1) & 0x3F))
    168c:	80 91 03 03 	lds	r24, 0x0303	; 0x800303 <_ZL6_cmark>
    1690:	90 91 04 03 	lds	r25, 0x0304	; 0x800304 <_ZL6_cmark+0x1>
    1694:	01 96       	adiw	r24, 0x01	; 1
    1696:	8f 73       	andi	r24, 0x3F	; 63
    1698:	99 27       	eor	r25, r25
    169a:	89 2b       	or	r24, r25
    169c:	19 f4       	brne	.+6      	; 0x16a4 <_ZL11SendControlh+0x42>
		;
}

static inline void ClearIN(void)
{
	UEINTX = ~(1<<TXINI);
    169e:	8e ef       	ldi	r24, 0xFE	; 254
    16a0:	80 93 e8 00 	sts	0x00E8, r24	; 0x8000e8 <__DATA_REGION_ORIGIN__+0x88>
			return false;
		Send8(d);
		if (!((_cmark + 1) & 0x3F))
			ClearIN();	// Fifo is full, release this packet
	}
	_cmark++;
    16a4:	80 91 03 03 	lds	r24, 0x0303	; 0x800303 <_ZL6_cmark>
    16a8:	90 91 04 03 	lds	r25, 0x0304	; 0x800304 <_ZL6_cmark+0x1>
    16ac:	01 96       	adiw	r24, 0x01	; 1
    16ae:	90 93 04 03 	sts	0x0304, r25	; 0x800304 <_ZL6_cmark+0x1>
    16b2:	80 93 03 03 	sts	0x0303, r24	; 0x800303 <_ZL6_cmark>
	return true;
    16b6:	81 e0       	ldi	r24, 0x01	; 1
    16b8:	08 95       	ret
bool SendControl(u8 d)
{
	if (_cmark < _cend)
	{
		if (!WaitForINOrOUT())
			return false;
    16ba:	80 e0       	ldi	r24, 0x00	; 0
		if (!((_cmark + 1) & 0x3F))
			ClearIN();	// Fifo is full, release this packet
	}
	_cmark++;
	return true;
}
    16bc:	08 95       	ret

000016be <_ZL24USB_SendStringDescriptorPKhhh>:
}

// Send a USB descriptor string. The string is stored in PROGMEM as a
// plain ASCII string but is sent out as UTF-16 with the correct 2-byte
// prefix
static bool USB_SendStringDescriptor(const u8*string_P, u8 string_len, uint8_t flags) {
    16be:	ef 92       	push	r14
    16c0:	ff 92       	push	r15
    16c2:	0f 93       	push	r16
    16c4:	1f 93       	push	r17
    16c6:	cf 93       	push	r28
    16c8:	df 93       	push	r29
    16ca:	f8 2e       	mov	r15, r24
    16cc:	19 2f       	mov	r17, r25
    16ce:	e6 2e       	mov	r14, r22
    16d0:	04 2f       	mov	r16, r20
        SendControl(2 + string_len * 2);
    16d2:	81 e0       	ldi	r24, 0x01	; 1
    16d4:	86 0f       	add	r24, r22
    16d6:	88 0f       	add	r24, r24
    16d8:	0e 94 31 0b 	call	0x1662	; 0x1662 <_ZL11SendControlh>
        SendControl(3);
    16dc:	83 e0       	ldi	r24, 0x03	; 3
    16de:	0e 94 31 0b 	call	0x1662	; 0x1662 <_ZL11SendControlh>
    16e2:	cf 2d       	mov	r28, r15
    16e4:	d1 2f       	mov	r29, r17
    16e6:	ec 0e       	add	r14, r28
    16e8:	fd 2e       	mov	r15, r29
    16ea:	f1 1c       	adc	r15, r1
        bool pgm = flags & TRANSFER_PGM;
        for(u8 i = 0; i < string_len; i++) {
    16ec:	ce 15       	cp	r28, r14
    16ee:	df 05       	cpc	r29, r15
    16f0:	b9 f0       	breq	.+46     	; 0x1720 <_ZL24USB_SendStringDescriptorPKhhh+0x62>
                bool r = SendControl(pgm ? pgm_read_byte(&string_P[i]) : string_P[i]);
    16f2:	07 ff       	sbrs	r16, 7
    16f4:	13 c0       	rjmp	.+38     	; 0x171c <_ZL24USB_SendStringDescriptorPKhhh+0x5e>
    16f6:	fe 01       	movw	r30, r28
    16f8:	84 91       	lpm	r24, Z
    16fa:	0e 94 31 0b 	call	0x1662	; 0x1662 <_ZL11SendControlh>
    16fe:	18 2f       	mov	r17, r24
                r &= SendControl(0); // high byte
    1700:	80 e0       	ldi	r24, 0x00	; 0
    1702:	0e 94 31 0b 	call	0x1662	; 0x1662 <_ZL11SendControlh>
    1706:	81 23       	and	r24, r17
    1708:	21 96       	adiw	r28, 0x01	; 1
                if(!r) {
    170a:	81 11       	cpse	r24, r1
    170c:	ef cf       	rjmp	.-34     	; 0x16ec <_ZL24USB_SendStringDescriptorPKhhh+0x2e>
                        return false;
                }
        }
        return true;
}
    170e:	df 91       	pop	r29
    1710:	cf 91       	pop	r28
    1712:	1f 91       	pop	r17
    1714:	0f 91       	pop	r16
    1716:	ff 90       	pop	r15
    1718:	ef 90       	pop	r14
    171a:	08 95       	ret
static bool USB_SendStringDescriptor(const u8*string_P, u8 string_len, uint8_t flags) {
        SendControl(2 + string_len * 2);
        SendControl(3);
        bool pgm = flags & TRANSFER_PGM;
        for(u8 i = 0; i < string_len; i++) {
                bool r = SendControl(pgm ? pgm_read_byte(&string_P[i]) : string_P[i]);
    171c:	88 81       	ld	r24, Y
    171e:	ed cf       	rjmp	.-38     	; 0x16fa <_ZL24USB_SendStringDescriptorPKhhh+0x3c>
                r &= SendControl(0); // high byte
                if(!r) {
                        return false;
                }
        }
        return true;
    1720:	81 e0       	ldi	r24, 0x01	; 1
    1722:	f5 cf       	rjmp	.-22     	; 0x170e <_ZL24USB_SendStringDescriptorPKhhh+0x50>

00001724 <_Z15USB_SendControlhPKvi>:
	return true;
}

//	Clipped by _cmark/_cend
int USB_SendControl(u8 flags, const void* d, int len)
{
    1724:	df 92       	push	r13
    1726:	ef 92       	push	r14
    1728:	ff 92       	push	r15
    172a:	0f 93       	push	r16
    172c:	1f 93       	push	r17
    172e:	cf 93       	push	r28
    1730:	df 93       	push	r29
    1732:	d8 2e       	mov	r13, r24
    1734:	8a 01       	movw	r16, r20
    1736:	eb 01       	movw	r28, r22
    1738:	7b 01       	movw	r14, r22
    173a:	e4 0e       	add	r14, r20
    173c:	f5 1e       	adc	r15, r21
	int sent = len;
	const u8* data = (const u8*)d;
	bool pgm = flags & TRANSFER_PGM;
	while (len--)
    173e:	ce 15       	cp	r28, r14
    1740:	df 05       	cpc	r29, r15
    1742:	59 f0       	breq	.+22     	; 0x175a <_Z15USB_SendControlhPKvi+0x36>
	{
		u8 c = pgm ? pgm_read_byte(data++) : *data++;
    1744:	d7 fe       	sbrs	r13, 7
    1746:	12 c0       	rjmp	.+36     	; 0x176c <_Z15USB_SendControlhPKvi+0x48>
    1748:	fe 01       	movw	r30, r28
    174a:	84 91       	lpm	r24, Z
		if (!SendControl(c))
    174c:	0e 94 31 0b 	call	0x1662	; 0x1662 <_ZL11SendControlh>
    1750:	21 96       	adiw	r28, 0x01	; 1
    1752:	81 11       	cpse	r24, r1
    1754:	f4 cf       	rjmp	.-24     	; 0x173e <_Z15USB_SendControlhPKvi+0x1a>
			return -1;
    1756:	0f ef       	ldi	r16, 0xFF	; 255
    1758:	1f ef       	ldi	r17, 0xFF	; 255
	}
	return sent;
}
    175a:	c8 01       	movw	r24, r16
    175c:	df 91       	pop	r29
    175e:	cf 91       	pop	r28
    1760:	1f 91       	pop	r17
    1762:	0f 91       	pop	r16
    1764:	ff 90       	pop	r15
    1766:	ef 90       	pop	r14
    1768:	df 90       	pop	r13
    176a:	08 95       	ret
	int sent = len;
	const u8* data = (const u8*)d;
	bool pgm = flags & TRANSFER_PGM;
	while (len--)
	{
		u8 c = pgm ? pgm_read_byte(data++) : *data++;
    176c:	88 81       	ld	r24, Y
    176e:	ee cf       	rjmp	.-36     	; 0x174c <_Z15USB_SendControlhPKvi+0x28>

00001770 <_ZL14SendInterfacesv>:
	}
	return len;
}

static u8 SendInterfaces()
{
    1770:	0f 93       	push	r16
    1772:	1f 93       	push	r17
    1774:	cf 93       	push	r28
    1776:	df 93       	push	r29
    1778:	1f 92       	push	r1
    177a:	cd b7       	in	r28, 0x3d	; 61
    177c:	de b7       	in	r29, 0x3e	; 62
	return pgm_read_word(FLASHEND - 1) == NEW_LUFA_SIGNATURE;
}

int CDC_GetInterface(u8* interfaceNum)
{
	interfaceNum[0] += 2;	// uses 2
    177e:	82 e0       	ldi	r24, 0x02	; 2
    1780:	89 83       	std	Y+1, r24	; 0x01
	return USB_SendControl(TRANSFER_PGM,&_cdcInterface,sizeof(_cdcInterface));
    1782:	42 e4       	ldi	r20, 0x42	; 66
    1784:	50 e0       	ldi	r21, 0x00	; 0
    1786:	63 ee       	ldi	r22, 0xE3	; 227
    1788:	7f e0       	ldi	r23, 0x0F	; 15
    178a:	80 e8       	ldi	r24, 0x80	; 128
    178c:	0e 94 92 0b 	call	0x1724	; 0x1724 <_Z15USB_SendControlhPKvi>
	u8 interfaces = 0;

	CDC_GetInterface(&interfaces);

#ifdef PLUGGABLE_USB_ENABLED
	PluggableUSB().getInterface(&interfaces);
    1790:	0e 94 9c 0a 	call	0x1538	; 0x1538 <_Z12PluggableUSBv>

int PluggableUSB_::getInterface(uint8_t* interfaceCount)
{
	int sent = 0;
	PluggableUSBModule* node;
	for (node = rootNode; node; node = node->next) {
    1794:	dc 01       	movw	r26, r24
    1796:	12 96       	adiw	r26, 0x02	; 2
    1798:	0d 91       	ld	r16, X+
    179a:	1c 91       	ld	r17, X
    179c:	01 15       	cp	r16, r1
    179e:	11 05       	cpc	r17, r1
    17a0:	89 f0       	breq	.+34     	; 0x17c4 <_ZL14SendInterfacesv+0x54>
		int res = node->getInterface(interfaceCount);
    17a2:	d8 01       	movw	r26, r16
    17a4:	ed 91       	ld	r30, X+
    17a6:	fc 91       	ld	r31, X
    17a8:	02 80       	ldd	r0, Z+2	; 0x02
    17aa:	f3 81       	ldd	r31, Z+3	; 0x03
    17ac:	e0 2d       	mov	r30, r0
    17ae:	be 01       	movw	r22, r28
    17b0:	6f 5f       	subi	r22, 0xFF	; 255
    17b2:	7f 4f       	sbci	r23, 0xFF	; 255
    17b4:	c8 01       	movw	r24, r16
    17b6:	09 95       	icall
		if (res < 0)
    17b8:	97 fd       	sbrc	r25, 7
    17ba:	04 c0       	rjmp	.+8      	; 0x17c4 <_ZL14SendInterfacesv+0x54>

int PluggableUSB_::getInterface(uint8_t* interfaceCount)
{
	int sent = 0;
	PluggableUSBModule* node;
	for (node = rootNode; node; node = node->next) {
    17bc:	f8 01       	movw	r30, r16
    17be:	00 85       	ldd	r16, Z+8	; 0x08
    17c0:	11 85       	ldd	r17, Z+9	; 0x09
    17c2:	ec cf       	rjmp	.-40     	; 0x179c <_ZL14SendInterfacesv+0x2c>
#endif

	return interfaces;
}
    17c4:	89 81       	ldd	r24, Y+1	; 0x01
    17c6:	0f 90       	pop	r0
    17c8:	df 91       	pop	r29
    17ca:	cf 91       	pop	r28
    17cc:	1f 91       	pop	r17
    17ce:	0f 91       	pop	r16
    17d0:	08 95       	ret

000017d2 <_ZL4RecvPVhh>:
	UEINTX = ~(1<<RXOUTI);
}

static inline void Recv(volatile u8* data, u8 count)
{
	while (count--)
    17d2:	61 50       	subi	r22, 0x01	; 1
    17d4:	30 f0       	brcs	.+12     	; 0x17e2 <_ZL4RecvPVhh+0x10>
		*data++ = UEDATX;
    17d6:	20 91 f1 00 	lds	r18, 0x00F1	; 0x8000f1 <__DATA_REGION_ORIGIN__+0x91>
    17da:	fc 01       	movw	r30, r24
    17dc:	20 83       	st	Z, r18
    17de:	01 96       	adiw	r24, 0x01	; 1
    17e0:	f8 cf       	rjmp	.-16     	; 0x17d2 <_ZL4RecvPVhh>
	
	RXLED1;					// light the RX LED
    17e2:	28 98       	cbi	0x05, 0	; 5
	RxLEDPulse = TX_RX_LED_PULSE_MS;	
    17e4:	84 e6       	ldi	r24, 0x64	; 100
    17e6:	80 93 15 03 	sts	0x0315, r24	; 0x800315 <RxLEDPulse>
}
    17ea:	08 95       	ret

000017ec <_Z8initLogov>:

/*---------------------------------------------------------------------------*/

void initLogo(void)
{
    counter = 120; // 2 secs
    17ec:	88 e7       	ldi	r24, 0x78	; 120
    17ee:	80 93 fa 02 	sts	0x02FA, r24	; 0x8002fa <_ZL7counter.lto_priv.56>
}
    17f2:	08 95       	ret

000017f4 <_ZN5Print5writeEPKhj>:

// Public Methods //////////////////////////////////////////////////////////////

/* default implementation: may be overridden */
size_t Print::write(const uint8_t *buffer, size_t size)
{
    17f4:	af 92       	push	r10
    17f6:	bf 92       	push	r11
    17f8:	cf 92       	push	r12
    17fa:	df 92       	push	r13
    17fc:	ef 92       	push	r14
    17fe:	ff 92       	push	r15
    1800:	0f 93       	push	r16
    1802:	1f 93       	push	r17
    1804:	cf 93       	push	r28
    1806:	df 93       	push	r29
    1808:	6c 01       	movw	r12, r24
    180a:	7b 01       	movw	r14, r22
    180c:	8b 01       	movw	r16, r22
    180e:	04 0f       	add	r16, r20
    1810:	15 1f       	adc	r17, r21
    1812:	eb 01       	movw	r28, r22
    1814:	5e 01       	movw	r10, r28
    1816:	ae 18       	sub	r10, r14
    1818:	bf 08       	sbc	r11, r15
  size_t n = 0;
  while (size--) {
    181a:	c0 17       	cp	r28, r16
    181c:	d1 07       	cpc	r29, r17
    181e:	59 f0       	breq	.+22     	; 0x1836 <_ZN5Print5writeEPKhj+0x42>
    if (write(*buffer++)) n++;
    1820:	69 91       	ld	r22, Y+
    1822:	d6 01       	movw	r26, r12
    1824:	ed 91       	ld	r30, X+
    1826:	fc 91       	ld	r31, X
    1828:	01 90       	ld	r0, Z+
    182a:	f0 81       	ld	r31, Z
    182c:	e0 2d       	mov	r30, r0
    182e:	c6 01       	movw	r24, r12
    1830:	09 95       	icall
    1832:	89 2b       	or	r24, r25
    1834:	79 f7       	brne	.-34     	; 0x1814 <_ZN5Print5writeEPKhj+0x20>
    else break;
  }
  return n;
}
    1836:	c5 01       	movw	r24, r10
    1838:	df 91       	pop	r29
    183a:	cf 91       	pop	r28
    183c:	1f 91       	pop	r17
    183e:	0f 91       	pop	r16
    1840:	ff 90       	pop	r15
    1842:	ef 90       	pop	r14
    1844:	df 90       	pop	r13
    1846:	cf 90       	pop	r12
    1848:	bf 90       	pop	r11
    184a:	af 90       	pop	r10
    184c:	08 95       	ret

0000184e <digitalWrite>:
	}
}

void digitalWrite(uint8_t pin, uint8_t val)
{
	uint8_t timer = digitalPinToTimer(pin);
    184e:	28 2f       	mov	r18, r24
    1850:	30 e0       	ldi	r19, 0x00	; 0
    1852:	f9 01       	movw	r30, r18
    1854:	e8 5b       	subi	r30, 0xB8	; 184
    1856:	f0 4f       	sbci	r31, 0xF0	; 240
    1858:	94 91       	lpm	r25, Z
	uint8_t bit = digitalPinToBitMask(pin);
    185a:	f9 01       	movw	r30, r18
    185c:	ec 57       	subi	r30, 0x7C	; 124
    185e:	f0 4f       	sbci	r31, 0xF0	; 240
    1860:	84 91       	lpm	r24, Z
	uint8_t port = digitalPinToPort(pin);
    1862:	2f 54       	subi	r18, 0x4F	; 79
    1864:	30 4f       	sbci	r19, 0xF0	; 240
    1866:	f9 01       	movw	r30, r18
    1868:	24 91       	lpm	r18, Z
	volatile uint8_t *out;

	if (port == NOT_A_PIN) return;
    186a:	22 23       	and	r18, r18
    186c:	09 f4       	brne	.+2      	; 0x1870 <digitalWrite+0x22>
    186e:	30 c0       	rjmp	.+96     	; 0x18d0 <digitalWrite+0x82>

	// If the pin that support PWM output, we need to turn it off
	// before doing a digital write.
	if (timer != NOT_ON_TIMER) turnOffPWM(timer);
    1870:	99 23       	and	r25, r25
    1872:	e9 f0       	breq	.+58     	; 0x18ae <digitalWrite+0x60>
//
//static inline void turnOffPWM(uint8_t timer) __attribute__ ((always_inline));
//static inline void turnOffPWM(uint8_t timer)
static void turnOffPWM(uint8_t timer)
{
	switch (timer)
    1874:	91 50       	subi	r25, 0x01	; 1
    1876:	9f 30       	cpi	r25, 0x0F	; 15
    1878:	d0 f4       	brcc	.+52     	; 0x18ae <digitalWrite+0x60>
    187a:	e9 2f       	mov	r30, r25
    187c:	f0 e0       	ldi	r31, 0x00	; 0
    187e:	ed 5b       	subi	r30, 0xBD	; 189
    1880:	f3 4f       	sbci	r31, 0xF3	; 243
    1882:	0c 94 8b 29 	jmp	0x5316	; 0x5316 <__tablejump2__>
    1886:	71 0c       	add	r7, r1
    1888:	75 0c       	add	r7, r5
    188a:	52 0c       	add	r5, r2
    188c:	69 0c       	add	r6, r9
    188e:	6d 0c       	add	r6, r13
    1890:	57 0c       	add	r5, r7
    1892:	57 0c       	add	r5, r7
    1894:	57 0c       	add	r5, r7
    1896:	78 0c       	add	r7, r8
    1898:	7e 0c       	add	r7, r14
    189a:	82 0c       	add	r8, r2
    189c:	86 0c       	add	r8, r6
    189e:	8c 0c       	add	r8, r12
    18a0:	57 0c       	add	r5, r7
    18a2:	90 0c       	add	r9, r0
	{
		#if defined(TCCR1A) && defined(COM1A1)
		case TIMER1A:   cbi(TCCR1A, COM1A1);    break;
    18a4:	90 91 80 00 	lds	r25, 0x0080	; 0x800080 <__DATA_REGION_ORIGIN__+0x20>
    18a8:	9f 77       	andi	r25, 0x7F	; 127
		#endif
		#if defined(TCCR1A) && defined(COM1B1)
		case TIMER1B:   cbi(TCCR1A, COM1B1);    break;
		#endif
		#if defined(TCCR1A) && defined(COM1C1)
		case TIMER1C:   cbi(TCCR1A, COM1C1);    break;
    18aa:	90 93 80 00 	sts	0x0080, r25	; 0x800080 <__DATA_REGION_ORIGIN__+0x20>

	// If the pin that support PWM output, we need to turn it off
	// before doing a digital write.
	if (timer != NOT_ON_TIMER) turnOffPWM(timer);

	out = portOutputRegister(port);
    18ae:	e2 2f       	mov	r30, r18
    18b0:	f0 e0       	ldi	r31, 0x00	; 0
    18b2:	ee 0f       	add	r30, r30
    18b4:	ff 1f       	adc	r31, r31
    18b6:	ed 55       	subi	r30, 0x5D	; 93
    18b8:	f0 4f       	sbci	r31, 0xF0	; 240
    18ba:	a5 91       	lpm	r26, Z+
    18bc:	b4 91       	lpm	r27, Z

	uint8_t oldSREG = SREG;
    18be:	9f b7       	in	r25, 0x3f	; 63
	cli();
    18c0:	f8 94       	cli

	if (val == LOW) {
		*out &= ~bit;
    18c2:	ec 91       	ld	r30, X
	out = portOutputRegister(port);

	uint8_t oldSREG = SREG;
	cli();

	if (val == LOW) {
    18c4:	61 11       	cpse	r22, r1
    18c6:	32 c0       	rjmp	.+100    	; 0x192c <digitalWrite+0xde>
		*out &= ~bit;
    18c8:	80 95       	com	r24
    18ca:	8e 23       	and	r24, r30
	} else {
		*out |= bit;
    18cc:	8c 93       	st	X, r24
	}

	SREG = oldSREG;
    18ce:	9f bf       	out	0x3f, r25	; 63
}
    18d0:	08 95       	ret
	{
		#if defined(TCCR1A) && defined(COM1A1)
		case TIMER1A:   cbi(TCCR1A, COM1A1);    break;
		#endif
		#if defined(TCCR1A) && defined(COM1B1)
		case TIMER1B:   cbi(TCCR1A, COM1B1);    break;
    18d2:	90 91 80 00 	lds	r25, 0x0080	; 0x800080 <__DATA_REGION_ORIGIN__+0x20>
    18d6:	9f 7d       	andi	r25, 0xDF	; 223
    18d8:	e8 cf       	rjmp	.-48     	; 0x18aa <digitalWrite+0x5c>
		#endif
		#if defined(TCCR1A) && defined(COM1C1)
		case TIMER1C:   cbi(TCCR1A, COM1C1);    break;
    18da:	90 91 80 00 	lds	r25, 0x0080	; 0x800080 <__DATA_REGION_ORIGIN__+0x20>
    18de:	97 7f       	andi	r25, 0xF7	; 247
    18e0:	e4 cf       	rjmp	.-56     	; 0x18aa <digitalWrite+0x5c>
		#if defined(TCCR2) && defined(COM21)
		case  TIMER2:   cbi(TCCR2, COM21);      break;
		#endif
		
		#if defined(TCCR0A) && defined(COM0A1)
		case  TIMER0A:  cbi(TCCR0A, COM0A1);    break;
    18e2:	94 b5       	in	r25, 0x24	; 36
    18e4:	9f 77       	andi	r25, 0x7F	; 127
		#endif
		
		#if defined(TCCR0A) && defined(COM0B1)
		case  TIMER0B:  cbi(TCCR0A, COM0B1);    break;
    18e6:	94 bd       	out	0x24, r25	; 36
    18e8:	e2 cf       	rjmp	.-60     	; 0x18ae <digitalWrite+0x60>
    18ea:	94 b5       	in	r25, 0x24	; 36
    18ec:	9f 7d       	andi	r25, 0xDF	; 223
    18ee:	fb cf       	rjmp	.-10     	; 0x18e6 <digitalWrite+0x98>
		#if defined(TCCR2A) && defined(COM2B1)
		case  TIMER2B:  cbi(TCCR2A, COM2B1);    break;
		#endif
		
		#if defined(TCCR3A) && defined(COM3A1)
		case  TIMER3A:  cbi(TCCR3A, COM3A1);    break;
    18f0:	90 91 90 00 	lds	r25, 0x0090	; 0x800090 <__DATA_REGION_ORIGIN__+0x30>
    18f4:	9f 77       	andi	r25, 0x7F	; 127
		#endif
		#if defined(TCCR3A) && defined(COM3B1)
		case  TIMER3B:  cbi(TCCR3A, COM3B1);    break;
		#endif
		#if defined(TCCR3A) && defined(COM3C1)
		case  TIMER3C:  cbi(TCCR3A, COM3C1);    break;
    18f6:	90 93 90 00 	sts	0x0090, r25	; 0x800090 <__DATA_REGION_ORIGIN__+0x30>
    18fa:	d9 cf       	rjmp	.-78     	; 0x18ae <digitalWrite+0x60>
		
		#if defined(TCCR3A) && defined(COM3A1)
		case  TIMER3A:  cbi(TCCR3A, COM3A1);    break;
		#endif
		#if defined(TCCR3A) && defined(COM3B1)
		case  TIMER3B:  cbi(TCCR3A, COM3B1);    break;
    18fc:	90 91 90 00 	lds	r25, 0x0090	; 0x800090 <__DATA_REGION_ORIGIN__+0x30>
    1900:	9f 7d       	andi	r25, 0xDF	; 223
    1902:	f9 cf       	rjmp	.-14     	; 0x18f6 <digitalWrite+0xa8>
		#endif
		#if defined(TCCR3A) && defined(COM3C1)
		case  TIMER3C:  cbi(TCCR3A, COM3C1);    break;
    1904:	90 91 90 00 	lds	r25, 0x0090	; 0x800090 <__DATA_REGION_ORIGIN__+0x30>
    1908:	97 7f       	andi	r25, 0xF7	; 247
    190a:	f5 cf       	rjmp	.-22     	; 0x18f6 <digitalWrite+0xa8>
		#endif

		#if defined(TCCR4A) && defined(COM4A1)
		case  TIMER4A:  cbi(TCCR4A, COM4A1);    break;
    190c:	90 91 c0 00 	lds	r25, 0x00C0	; 0x8000c0 <__DATA_REGION_ORIGIN__+0x60>
    1910:	9f 77       	andi	r25, 0x7F	; 127
		#endif					
		#if defined(TCCR4A) && defined(COM4B1)
		case  TIMER4B:  cbi(TCCR4A, COM4B1);    break;
    1912:	90 93 c0 00 	sts	0x00C0, r25	; 0x8000c0 <__DATA_REGION_ORIGIN__+0x60>
    1916:	cb cf       	rjmp	.-106    	; 0x18ae <digitalWrite+0x60>
    1918:	90 91 c0 00 	lds	r25, 0x00C0	; 0x8000c0 <__DATA_REGION_ORIGIN__+0x60>
    191c:	9f 7d       	andi	r25, 0xDF	; 223
    191e:	f9 cf       	rjmp	.-14     	; 0x1912 <digitalWrite+0xc4>
		#endif
		#if defined(TCCR4A) && defined(COM4C1)
		case  TIMER4C:  cbi(TCCR4A, COM4C1);    break;
		#endif			
		#if defined(TCCR4C) && defined(COM4D1)
		case TIMER4D:	cbi(TCCR4C, COM4D1);	break;
    1920:	90 91 c2 00 	lds	r25, 0x00C2	; 0x8000c2 <__DATA_REGION_ORIGIN__+0x62>
    1924:	97 7f       	andi	r25, 0xF7	; 247
    1926:	90 93 c2 00 	sts	0x00C2, r25	; 0x8000c2 <__DATA_REGION_ORIGIN__+0x62>
    192a:	c1 cf       	rjmp	.-126    	; 0x18ae <digitalWrite+0x60>
	cli();

	if (val == LOW) {
		*out &= ~bit;
	} else {
		*out |= bit;
    192c:	8e 2b       	or	r24, r30
    192e:	ce cf       	rjmp	.-100    	; 0x18cc <digitalWrite+0x7e>

00001930 <pinMode>:
#define ARDUINO_MAIN
#include "wiring_private.h"
#include "pins_arduino.h"

void pinMode(uint8_t pin, uint8_t mode)
{
    1930:	cf 93       	push	r28
    1932:	df 93       	push	r29
	uint8_t bit = digitalPinToBitMask(pin);
    1934:	90 e0       	ldi	r25, 0x00	; 0
    1936:	fc 01       	movw	r30, r24
    1938:	ec 57       	subi	r30, 0x7C	; 124
    193a:	f0 4f       	sbci	r31, 0xF0	; 240
    193c:	24 91       	lpm	r18, Z
	uint8_t port = digitalPinToPort(pin);
    193e:	8f 54       	subi	r24, 0x4F	; 79
    1940:	90 4f       	sbci	r25, 0xF0	; 240
    1942:	fc 01       	movw	r30, r24
    1944:	84 91       	lpm	r24, Z
	volatile uint8_t *reg, *out;

	if (port == NOT_A_PIN) return;
    1946:	88 23       	and	r24, r24
    1948:	c9 f0       	breq	.+50     	; 0x197c <pinMode+0x4c>

	// JWS: can I let the optimizer do this?
	reg = portModeRegister(port);
    194a:	90 e0       	ldi	r25, 0x00	; 0
    194c:	88 0f       	add	r24, r24
    194e:	99 1f       	adc	r25, r25
    1950:	fc 01       	movw	r30, r24
    1952:	e7 59       	subi	r30, 0x97	; 151
    1954:	f0 4f       	sbci	r31, 0xF0	; 240
    1956:	a5 91       	lpm	r26, Z+
    1958:	b4 91       	lpm	r27, Z
	out = portOutputRegister(port);
    195a:	fc 01       	movw	r30, r24
    195c:	ed 55       	subi	r30, 0x5D	; 93
    195e:	f0 4f       	sbci	r31, 0xF0	; 240
    1960:	c5 91       	lpm	r28, Z+
    1962:	d4 91       	lpm	r29, Z

	if (mode == INPUT) { 
    1964:	61 11       	cpse	r22, r1
    1966:	0d c0       	rjmp	.+26     	; 0x1982 <pinMode+0x52>
		uint8_t oldSREG = SREG;
    1968:	9f b7       	in	r25, 0x3f	; 63
                cli();
    196a:	f8 94       	cli
		*reg &= ~bit;
    196c:	8c 91       	ld	r24, X
    196e:	20 95       	com	r18
    1970:	82 23       	and	r24, r18
    1972:	8c 93       	st	X, r24
		*out &= ~bit;
    1974:	88 81       	ld	r24, Y
    1976:	28 23       	and	r18, r24
		SREG = oldSREG;
	} else if (mode == INPUT_PULLUP) {
		uint8_t oldSREG = SREG;
                cli();
		*reg &= ~bit;
		*out |= bit;
    1978:	28 83       	st	Y, r18
		SREG = oldSREG;
    197a:	9f bf       	out	0x3f, r25	; 63
		uint8_t oldSREG = SREG;
                cli();
		*reg |= bit;
		SREG = oldSREG;
	}
}
    197c:	df 91       	pop	r29
    197e:	cf 91       	pop	r28
    1980:	08 95       	ret
		uint8_t oldSREG = SREG;
                cli();
		*reg &= ~bit;
		*out &= ~bit;
		SREG = oldSREG;
	} else if (mode == INPUT_PULLUP) {
    1982:	62 30       	cpi	r22, 0x02	; 2
    1984:	51 f4       	brne	.+20     	; 0x199a <pinMode+0x6a>
		uint8_t oldSREG = SREG;
    1986:	9f b7       	in	r25, 0x3f	; 63
                cli();
    1988:	f8 94       	cli
		*reg &= ~bit;
    198a:	3c 91       	ld	r19, X
    198c:	82 2f       	mov	r24, r18
    198e:	80 95       	com	r24
    1990:	83 23       	and	r24, r19
    1992:	8c 93       	st	X, r24
		*out |= bit;
    1994:	e8 81       	ld	r30, Y
    1996:	2e 2b       	or	r18, r30
    1998:	ef cf       	rjmp	.-34     	; 0x1978 <pinMode+0x48>
		SREG = oldSREG;
	} else {
		uint8_t oldSREG = SREG;
    199a:	8f b7       	in	r24, 0x3f	; 63
                cli();
    199c:	f8 94       	cli
		*reg |= bit;
    199e:	ec 91       	ld	r30, X
    19a0:	2e 2b       	or	r18, r30
    19a2:	2c 93       	st	X, r18
		SREG = oldSREG;
    19a4:	8f bf       	out	0x3f, r24	; 63
    19a6:	ea cf       	rjmp	.-44     	; 0x197c <pinMode+0x4c>

000019a8 <analogWrite>:
// Right now, PWM output only works on the pins with
// hardware support.  These are defined in the appropriate
// pins_*.c file.  For the rest of the pins, we default
// to digital output.
void analogWrite(uint8_t pin, int val)
{
    19a8:	1f 93       	push	r17
    19aa:	cf 93       	push	r28
    19ac:	df 93       	push	r29
    19ae:	18 2f       	mov	r17, r24
    19b0:	eb 01       	movw	r28, r22
	// We need to make sure the PWM output is enabled for those pins
	// that support it, as we turn it off when digitally reading or
	// writing with them.  Also, make sure the pin is in output mode
	// for consistenty with Wiring, which doesn't require a pinMode
	// call for the analog output pins.
	pinMode(pin, OUTPUT);
    19b2:	61 e0       	ldi	r22, 0x01	; 1
    19b4:	0e 94 98 0c 	call	0x1930	; 0x1930 <pinMode>
	if (val == 0)
    19b8:	20 97       	sbiw	r28, 0x00	; 0
    19ba:	39 f4       	brne	.+14     	; 0x19ca <analogWrite+0x22>
	{
		digitalWrite(pin, LOW);
    19bc:	60 e0       	ldi	r22, 0x00	; 0
	}
	else if (val == 255)
	{
		digitalWrite(pin, HIGH);
    19be:	81 2f       	mov	r24, r17
				} else {
					digitalWrite(pin, HIGH);
				}
		}
	}
}
    19c0:	df 91       	pop	r29
    19c2:	cf 91       	pop	r28
    19c4:	1f 91       	pop	r17
	{
		digitalWrite(pin, LOW);
	}
	else if (val == 255)
	{
		digitalWrite(pin, HIGH);
    19c6:	0c 94 27 0c 	jmp	0x184e	; 0x184e <digitalWrite>
	pinMode(pin, OUTPUT);
	if (val == 0)
	{
		digitalWrite(pin, LOW);
	}
	else if (val == 255)
    19ca:	cf 3f       	cpi	r28, 0xFF	; 255
    19cc:	d1 05       	cpc	r29, r1
    19ce:	11 f4       	brne	.+4      	; 0x19d4 <analogWrite+0x2c>
	{
		digitalWrite(pin, HIGH);
    19d0:	61 e0       	ldi	r22, 0x01	; 1
    19d2:	f5 cf       	rjmp	.-22     	; 0x19be <analogWrite+0x16>
	}
	else
	{
		switch(digitalPinToTimer(pin))
    19d4:	e1 2f       	mov	r30, r17
    19d6:	f0 e0       	ldi	r31, 0x00	; 0
    19d8:	e8 5b       	subi	r30, 0xB8	; 184
    19da:	f0 4f       	sbci	r31, 0xF0	; 240
    19dc:	e4 91       	lpm	r30, Z
    19de:	e1 50       	subi	r30, 0x01	; 1
    19e0:	ef 30       	cpi	r30, 0x0F	; 15
    19e2:	08 f0       	brcs	.+2      	; 0x19e6 <analogWrite+0x3e>
    19e4:	7f c0       	rjmp	.+254    	; 0x1ae4 <analogWrite+0x13c>
    19e6:	f0 e0       	ldi	r31, 0x00	; 0
    19e8:	e8 50       	subi	r30, 0x08	; 8
    19ea:	f3 4f       	sbci	r31, 0xF3	; 243
    19ec:	0c 94 8b 29 	jmp	0x5316	; 0x5316 <__tablejump2__>
    19f0:	07 0d       	add	r16, r7
    19f2:	0f 0d       	add	r16, r15
    19f4:	14 0d       	add	r17, r4
    19f6:	1e 0d       	add	r17, r14
    19f8:	28 0d       	add	r18, r8
    19fa:	72 0d       	add	r23, r2
    19fc:	72 0d       	add	r23, r2
    19fe:	72 0d       	add	r23, r2
    1a00:	32 0d       	add	r19, r2
    1a02:	3c 0d       	add	r19, r12
    1a04:	46 0d       	add	r20, r6
    1a06:	50 0d       	add	r21, r0
    1a08:	5d 0d       	add	r21, r13
    1a0a:	72 0d       	add	r23, r2
    1a0c:	65 0d       	add	r22, r5
			#endif

			#if defined(TCCR0A) && defined(COM0A1)
			case TIMER0A:
				// connect pwm to pin on timer 0, channel A
				sbi(TCCR0A, COM0A1);
    1a0e:	84 b5       	in	r24, 0x24	; 36
    1a10:	80 68       	ori	r24, 0x80	; 128
    1a12:	84 bd       	out	0x24, r24	; 36
				OCR0A = val; // set pwm duty
    1a14:	c7 bd       	out	0x27, r28	; 39
				} else {
					digitalWrite(pin, HIGH);
				}
		}
	}
}
    1a16:	df 91       	pop	r29
    1a18:	cf 91       	pop	r28
    1a1a:	1f 91       	pop	r17
    1a1c:	08 95       	ret
			#endif

			#if defined(TCCR0A) && defined(COM0B1)
			case TIMER0B:
				// connect pwm to pin on timer 0, channel B
				sbi(TCCR0A, COM0B1);
    1a1e:	84 b5       	in	r24, 0x24	; 36
    1a20:	80 62       	ori	r24, 0x20	; 32
    1a22:	84 bd       	out	0x24, r24	; 36
				OCR0B = val; // set pwm duty
    1a24:	c8 bd       	out	0x28, r28	; 40
    1a26:	f7 cf       	rjmp	.-18     	; 0x1a16 <analogWrite+0x6e>
			#endif

			#if defined(TCCR1A) && defined(COM1A1)
			case TIMER1A:
				// connect pwm to pin on timer 1, channel A
				sbi(TCCR1A, COM1A1);
    1a28:	80 91 80 00 	lds	r24, 0x0080	; 0x800080 <__DATA_REGION_ORIGIN__+0x20>
    1a2c:	80 68       	ori	r24, 0x80	; 128
    1a2e:	80 93 80 00 	sts	0x0080, r24	; 0x800080 <__DATA_REGION_ORIGIN__+0x20>
				OCR1A = val; // set pwm duty
    1a32:	d0 93 89 00 	sts	0x0089, r29	; 0x800089 <__DATA_REGION_ORIGIN__+0x29>
    1a36:	c0 93 88 00 	sts	0x0088, r28	; 0x800088 <__DATA_REGION_ORIGIN__+0x28>
    1a3a:	ed cf       	rjmp	.-38     	; 0x1a16 <analogWrite+0x6e>
			#endif

			#if defined(TCCR1A) && defined(COM1B1)
			case TIMER1B:
				// connect pwm to pin on timer 1, channel B
				sbi(TCCR1A, COM1B1);
    1a3c:	80 91 80 00 	lds	r24, 0x0080	; 0x800080 <__DATA_REGION_ORIGIN__+0x20>
    1a40:	80 62       	ori	r24, 0x20	; 32
    1a42:	80 93 80 00 	sts	0x0080, r24	; 0x800080 <__DATA_REGION_ORIGIN__+0x20>
				OCR1B = val; // set pwm duty
    1a46:	d0 93 8b 00 	sts	0x008B, r29	; 0x80008b <__DATA_REGION_ORIGIN__+0x2b>
    1a4a:	c0 93 8a 00 	sts	0x008A, r28	; 0x80008a <__DATA_REGION_ORIGIN__+0x2a>
    1a4e:	e3 cf       	rjmp	.-58     	; 0x1a16 <analogWrite+0x6e>
			#endif

			#if defined(TCCR1A) && defined(COM1C1)
			case TIMER1C:
				// connect pwm to pin on timer 1, channel C
				sbi(TCCR1A, COM1C1);
    1a50:	80 91 80 00 	lds	r24, 0x0080	; 0x800080 <__DATA_REGION_ORIGIN__+0x20>
    1a54:	88 60       	ori	r24, 0x08	; 8
    1a56:	80 93 80 00 	sts	0x0080, r24	; 0x800080 <__DATA_REGION_ORIGIN__+0x20>
				OCR1C = val; // set pwm duty
    1a5a:	d0 93 8d 00 	sts	0x008D, r29	; 0x80008d <__DATA_REGION_ORIGIN__+0x2d>
    1a5e:	c0 93 8c 00 	sts	0x008C, r28	; 0x80008c <__DATA_REGION_ORIGIN__+0x2c>
    1a62:	d9 cf       	rjmp	.-78     	; 0x1a16 <analogWrite+0x6e>
			#endif

			#if defined(TCCR3A) && defined(COM3A1)
			case TIMER3A:
				// connect pwm to pin on timer 3, channel A
				sbi(TCCR3A, COM3A1);
    1a64:	80 91 90 00 	lds	r24, 0x0090	; 0x800090 <__DATA_REGION_ORIGIN__+0x30>
    1a68:	80 68       	ori	r24, 0x80	; 128
    1a6a:	80 93 90 00 	sts	0x0090, r24	; 0x800090 <__DATA_REGION_ORIGIN__+0x30>
				OCR3A = val; // set pwm duty
    1a6e:	d0 93 99 00 	sts	0x0099, r29	; 0x800099 <__DATA_REGION_ORIGIN__+0x39>
    1a72:	c0 93 98 00 	sts	0x0098, r28	; 0x800098 <__DATA_REGION_ORIGIN__+0x38>
    1a76:	cf cf       	rjmp	.-98     	; 0x1a16 <analogWrite+0x6e>
			#endif

			#if defined(TCCR3A) && defined(COM3B1)
			case TIMER3B:
				// connect pwm to pin on timer 3, channel B
				sbi(TCCR3A, COM3B1);
    1a78:	80 91 90 00 	lds	r24, 0x0090	; 0x800090 <__DATA_REGION_ORIGIN__+0x30>
    1a7c:	80 62       	ori	r24, 0x20	; 32
    1a7e:	80 93 90 00 	sts	0x0090, r24	; 0x800090 <__DATA_REGION_ORIGIN__+0x30>
				OCR3B = val; // set pwm duty
    1a82:	d0 93 9b 00 	sts	0x009B, r29	; 0x80009b <__DATA_REGION_ORIGIN__+0x3b>
    1a86:	c0 93 9a 00 	sts	0x009A, r28	; 0x80009a <__DATA_REGION_ORIGIN__+0x3a>
    1a8a:	c5 cf       	rjmp	.-118    	; 0x1a16 <analogWrite+0x6e>
			#endif

			#if defined(TCCR3A) && defined(COM3C1)
			case TIMER3C:
				// connect pwm to pin on timer 3, channel C
				sbi(TCCR3A, COM3C1);
    1a8c:	80 91 90 00 	lds	r24, 0x0090	; 0x800090 <__DATA_REGION_ORIGIN__+0x30>
    1a90:	88 60       	ori	r24, 0x08	; 8
    1a92:	80 93 90 00 	sts	0x0090, r24	; 0x800090 <__DATA_REGION_ORIGIN__+0x30>
				OCR3C = val; // set pwm duty
    1a96:	d0 93 9d 00 	sts	0x009D, r29	; 0x80009d <__DATA_REGION_ORIGIN__+0x3d>
    1a9a:	c0 93 9c 00 	sts	0x009C, r28	; 0x80009c <__DATA_REGION_ORIGIN__+0x3c>
    1a9e:	bb cf       	rjmp	.-138    	; 0x1a16 <analogWrite+0x6e>
			#endif

			#if defined(TCCR4A)
			case TIMER4A:
				//connect pwm to pin on timer 4, channel A
				sbi(TCCR4A, COM4A1);
    1aa0:	80 91 c0 00 	lds	r24, 0x00C0	; 0x8000c0 <__DATA_REGION_ORIGIN__+0x60>
    1aa4:	80 68       	ori	r24, 0x80	; 128
    1aa6:	80 93 c0 00 	sts	0x00C0, r24	; 0x8000c0 <__DATA_REGION_ORIGIN__+0x60>
				#if defined(COM4A0)		// only used on 32U4
				cbi(TCCR4A, COM4A0);
    1aaa:	80 91 c0 00 	lds	r24, 0x00C0	; 0x8000c0 <__DATA_REGION_ORIGIN__+0x60>
    1aae:	8f 7b       	andi	r24, 0xBF	; 191
    1ab0:	80 93 c0 00 	sts	0x00C0, r24	; 0x8000c0 <__DATA_REGION_ORIGIN__+0x60>
				#endif
				OCR4A = val;	// set pwm duty
    1ab4:	c0 93 cf 00 	sts	0x00CF, r28	; 0x8000cf <__DATA_REGION_ORIGIN__+0x6f>
    1ab8:	ae cf       	rjmp	.-164    	; 0x1a16 <analogWrite+0x6e>
			#endif
			
			#if defined(TCCR4A) && defined(COM4B1)
			case TIMER4B:
				// connect pwm to pin on timer 4, channel B
				sbi(TCCR4A, COM4B1);
    1aba:	80 91 c0 00 	lds	r24, 0x00C0	; 0x8000c0 <__DATA_REGION_ORIGIN__+0x60>
    1abe:	80 62       	ori	r24, 0x20	; 32
    1ac0:	80 93 c0 00 	sts	0x00C0, r24	; 0x8000c0 <__DATA_REGION_ORIGIN__+0x60>
				OCR4B = val; // set pwm duty
    1ac4:	c0 93 d0 00 	sts	0x00D0, r28	; 0x8000d0 <__DATA_REGION_ORIGIN__+0x70>
    1ac8:	a6 cf       	rjmp	.-180    	; 0x1a16 <analogWrite+0x6e>
			#endif
				
			#if defined(TCCR4C) && defined(COM4D1)
			case TIMER4D:				
				// connect pwm to pin on timer 4, channel D
				sbi(TCCR4C, COM4D1);
    1aca:	80 91 c2 00 	lds	r24, 0x00C2	; 0x8000c2 <__DATA_REGION_ORIGIN__+0x62>
    1ace:	88 60       	ori	r24, 0x08	; 8
    1ad0:	80 93 c2 00 	sts	0x00C2, r24	; 0x8000c2 <__DATA_REGION_ORIGIN__+0x62>
				#if defined(COM4D0)		// only used on 32U4
				cbi(TCCR4C, COM4D0);
    1ad4:	80 91 c2 00 	lds	r24, 0x00C2	; 0x8000c2 <__DATA_REGION_ORIGIN__+0x62>
    1ad8:	8b 7f       	andi	r24, 0xFB	; 251
    1ada:	80 93 c2 00 	sts	0x00C2, r24	; 0x8000c2 <__DATA_REGION_ORIGIN__+0x62>
				#endif
				OCR4D = val;	// set pwm duty
    1ade:	c0 93 d2 00 	sts	0x00D2, r28	; 0x8000d2 <__DATA_REGION_ORIGIN__+0x72>
    1ae2:	99 cf       	rjmp	.-206    	; 0x1a16 <analogWrite+0x6e>
				break;
			#endif

			case NOT_ON_TIMER:
			default:
				if (val < 128) {
    1ae4:	c0 38       	cpi	r28, 0x80	; 128
    1ae6:	d1 05       	cpc	r29, r1
    1ae8:	0c f0       	brlt	.+2      	; 0x1aec <analogWrite+0x144>
    1aea:	72 cf       	rjmp	.-284    	; 0x19d0 <analogWrite+0x28>
    1aec:	67 cf       	rjmp	.-306    	; 0x19bc <analogWrite+0x14>

00001aee <micros>:
	return m;
}

unsigned long micros() {
	unsigned long m;
	uint8_t oldSREG = SREG, t;
    1aee:	3f b7       	in	r19, 0x3f	; 63
	
	cli();
    1af0:	f8 94       	cli
	m = timer0_overflow_count;
    1af2:	80 91 e9 02 	lds	r24, 0x02E9	; 0x8002e9 <timer0_overflow_count>
    1af6:	90 91 ea 02 	lds	r25, 0x02EA	; 0x8002ea <timer0_overflow_count+0x1>
    1afa:	a0 91 eb 02 	lds	r26, 0x02EB	; 0x8002eb <timer0_overflow_count+0x2>
    1afe:	b0 91 ec 02 	lds	r27, 0x02EC	; 0x8002ec <timer0_overflow_count+0x3>
#if defined(TCNT0)
	t = TCNT0;
    1b02:	26 b5       	in	r18, 0x26	; 38
#else
	#error TIMER 0 not defined
#endif

#ifdef TIFR0
	if ((TIFR0 & _BV(TOV0)) && (t < 255))
    1b04:	a8 9b       	sbis	0x15, 0	; 21
    1b06:	05 c0       	rjmp	.+10     	; 0x1b12 <micros+0x24>
    1b08:	2f 3f       	cpi	r18, 0xFF	; 255
    1b0a:	19 f0       	breq	.+6      	; 0x1b12 <micros+0x24>
		m++;
    1b0c:	01 96       	adiw	r24, 0x01	; 1
    1b0e:	a1 1d       	adc	r26, r1
    1b10:	b1 1d       	adc	r27, r1
#else
	if ((TIFR & _BV(TOV0)) && (t < 255))
		m++;
#endif

	SREG = oldSREG;
    1b12:	3f bf       	out	0x3f, r19	; 63
	
	return ((m << 8) + t) * (64 / clockCyclesPerMicrosecond());
    1b14:	ba 2f       	mov	r27, r26
    1b16:	a9 2f       	mov	r26, r25
    1b18:	98 2f       	mov	r25, r24
    1b1a:	88 27       	eor	r24, r24
    1b1c:	bc 01       	movw	r22, r24
    1b1e:	cd 01       	movw	r24, r26
    1b20:	62 0f       	add	r22, r18
    1b22:	71 1d       	adc	r23, r1
    1b24:	81 1d       	adc	r24, r1
    1b26:	91 1d       	adc	r25, r1
    1b28:	42 e0       	ldi	r20, 0x02	; 2
    1b2a:	66 0f       	add	r22, r22
    1b2c:	77 1f       	adc	r23, r23
    1b2e:	88 1f       	adc	r24, r24
    1b30:	99 1f       	adc	r25, r25
    1b32:	4a 95       	dec	r20
    1b34:	d1 f7       	brne	.-12     	; 0x1b2a <micros+0x3c>
}
    1b36:	08 95       	ret

00001b38 <delay>:

void delay(unsigned long ms)
{
    1b38:	8f 92       	push	r8
    1b3a:	9f 92       	push	r9
    1b3c:	af 92       	push	r10
    1b3e:	bf 92       	push	r11
    1b40:	cf 92       	push	r12
    1b42:	df 92       	push	r13
    1b44:	ef 92       	push	r14
    1b46:	ff 92       	push	r15
    1b48:	4b 01       	movw	r8, r22
    1b4a:	5c 01       	movw	r10, r24
	uint32_t start = micros();
    1b4c:	0e 94 77 0d 	call	0x1aee	; 0x1aee <micros>
    1b50:	6b 01       	movw	r12, r22
    1b52:	7c 01       	movw	r14, r24

	while (ms > 0) {
		yield();
		while ( ms > 0 && (micros() - start) >= 1000) {
    1b54:	0e 94 77 0d 	call	0x1aee	; 0x1aee <micros>
    1b58:	6c 19       	sub	r22, r12
    1b5a:	7d 09       	sbc	r23, r13
    1b5c:	8e 09       	sbc	r24, r14
    1b5e:	9f 09       	sbc	r25, r15
    1b60:	68 3e       	cpi	r22, 0xE8	; 232
    1b62:	73 40       	sbci	r23, 0x03	; 3
    1b64:	81 05       	cpc	r24, r1
    1b66:	91 05       	cpc	r25, r1
    1b68:	a8 f3       	brcs	.-22     	; 0x1b54 <delay+0x1c>
			ms--;
    1b6a:	21 e0       	ldi	r18, 0x01	; 1
    1b6c:	82 1a       	sub	r8, r18
    1b6e:	91 08       	sbc	r9, r1
    1b70:	a1 08       	sbc	r10, r1
    1b72:	b1 08       	sbc	r11, r1
			start += 1000;
    1b74:	88 ee       	ldi	r24, 0xE8	; 232
    1b76:	c8 0e       	add	r12, r24
    1b78:	83 e0       	ldi	r24, 0x03	; 3
    1b7a:	d8 1e       	adc	r13, r24
    1b7c:	e1 1c       	adc	r14, r1
    1b7e:	f1 1c       	adc	r15, r1
{
	uint32_t start = micros();

	while (ms > 0) {
		yield();
		while ( ms > 0 && (micros() - start) >= 1000) {
    1b80:	81 14       	cp	r8, r1
    1b82:	91 04       	cpc	r9, r1
    1b84:	a1 04       	cpc	r10, r1
    1b86:	b1 04       	cpc	r11, r1
    1b88:	29 f7       	brne	.-54     	; 0x1b54 <delay+0x1c>
			ms--;
			start += 1000;
		}
	}
}
    1b8a:	ff 90       	pop	r15
    1b8c:	ef 90       	pop	r14
    1b8e:	df 90       	pop	r13
    1b90:	cf 90       	pop	r12
    1b92:	bf 90       	pop	r11
    1b94:	af 90       	pop	r10
    1b96:	9f 90       	pop	r9
    1b98:	8f 90       	pop	r8
    1b9a:	08 95       	ret

00001b9c <_ZN7Serial_5writeEPKhj>:
{
	return write(&c, 1);
}

size_t Serial_::write(const uint8_t *buffer, size_t size)
{
    1b9c:	8f 92       	push	r8
    1b9e:	9f 92       	push	r9
    1ba0:	af 92       	push	r10
    1ba2:	bf 92       	push	r11
    1ba4:	cf 92       	push	r12
    1ba6:	df 92       	push	r13
    1ba8:	ef 92       	push	r14
    1baa:	ff 92       	push	r15
    1bac:	0f 93       	push	r16
    1bae:	1f 93       	push	r17
    1bb0:	cf 93       	push	r28
    1bb2:	df 93       	push	r29
    1bb4:	6c 01       	movw	r12, r24
    1bb6:	7b 01       	movw	r14, r22
    1bb8:	8a 01       	movw	r16, r20
	 the connection is closed are lost - just like with a UART. */
	
	// TODO - ZE - check behavior on different OSes and test what happens if an
	// open connection isn't broken cleanly (cable is yanked out, host dies
	// or locks up, or host virtual serial port hangs)
	if (_usbLineInfo.lineState > 0)	{
    1bba:	80 91 0b 01 	lds	r24, 0x010B	; 0x80010b <_ZL12_usbLineInfo+0x7>
    1bbe:	88 23       	and	r24, r24
    1bc0:	09 f4       	brne	.+2      	; 0x1bc4 <_ZN7Serial_5writeEPKhj+0x28>
    1bc2:	5c c0       	rjmp	.+184    	; 0x1c7c <_ZN7Serial_5writeEPKhj+0xe0>
}

//	Blocking Send of data to an endpoint
int USB_Send(u8 ep, const void* d, int len)
{
	if (!_usbConfiguration)
    1bc4:	80 91 16 03 	lds	r24, 0x0316	; 0x800316 <_usbConfiguration>
    1bc8:	88 23       	and	r24, r24
    1bca:	09 f4       	brne	.+2      	; 0x1bce <_ZN7Serial_5writeEPKhj+0x32>
    1bcc:	57 c0       	rjmp	.+174    	; 0x1c7c <_ZN7Serial_5writeEPKhj+0xe0>
		return -1;

	if (_usbSuspendState & (1<<SUSPI)) {
    1bce:	80 91 08 03 	lds	r24, 0x0308	; 0x800308 <_usbSuspendState>
    1bd2:	80 ff       	sbrs	r24, 0
    1bd4:	05 c0       	rjmp	.+10     	; 0x1be0 <_ZN7Serial_5writeEPKhj+0x44>
		//send a remote wakeup
		UDCON |= (1 << RMWKUP);
    1bd6:	80 91 e0 00 	lds	r24, 0x00E0	; 0x8000e0 <__DATA_REGION_ORIGIN__+0x80>
    1bda:	82 60       	ori	r24, 0x02	; 2
    1bdc:	80 93 e0 00 	sts	0x00E0, r24	; 0x8000e0 <__DATA_REGION_ORIGIN__+0x80>
{
	return write(&c, 1);
}

size_t Serial_::write(const uint8_t *buffer, size_t size)
{
    1be0:	e8 01       	movw	r28, r16
    1be2:	b1 2c       	mov	r11, r1
    1be4:	8a ef       	ldi	r24, 0xFA	; 250
    1be6:	a8 2e       	mov	r10, r24
	UEDATX = d;
}

static inline void SetEP(u8 ep)
{
	UENUM = ep;
    1be8:	93 e0       	ldi	r25, 0x03	; 3
    1bea:	89 2e       	mov	r8, r25
	UEINTX = 0x6B;	// FIFOCON=0 NAKINI=1 RWAL=1 NAKOUTI=0 RXSTPI=1 RXOUTI=0 STALLEDI=1 TXINI=1
}

static inline void ReleaseTX()
{
	UEINTX = 0x3A;	// FIFOCON=0 NAKINI=0 RWAL=1 NAKOUTI=1 RXSTPI=1 RXOUTI=0 STALLEDI=1 TXINI=0
    1bec:	2a e3       	ldi	r18, 0x3A	; 58
    1bee:	92 2e       	mov	r9, r18
	int r = len;
	const u8* data = (const u8*)d;
	u8 timeout = 250;		// 250ms timeout on send? TODO
	bool sendZlp = false;

	while (len || sendZlp)
    1bf0:	20 97       	sbiw	r28, 0x00	; 0
    1bf2:	11 f4       	brne	.+4      	; 0x1bf8 <_ZN7Serial_5writeEPKhj+0x5c>
    1bf4:	bb 20       	and	r11, r11
    1bf6:	d9 f1       	breq	.+118    	; 0x1c6e <_ZN7Serial_5writeEPKhj+0xd2>
	{
		u8 n = USB_SendSpace(ep);
    1bf8:	0e 94 8b 0a 	call	0x1516	; 0x1516 <_Z13USB_SendSpaceh.constprop.3>
		if (n == 0)
    1bfc:	81 11       	cpse	r24, r1
    1bfe:	0a c0       	rjmp	.+20     	; 0x1c14 <_ZN7Serial_5writeEPKhj+0x78>
		{
			if (!(--timeout))
    1c00:	aa 94       	dec	r10
    1c02:	aa 20       	and	r10, r10
    1c04:	d9 f1       	breq	.+118    	; 0x1c7c <_ZN7Serial_5writeEPKhj+0xe0>
				return -1;
			delay(1);
    1c06:	61 e0       	ldi	r22, 0x01	; 1
    1c08:	70 e0       	ldi	r23, 0x00	; 0
    1c0a:	80 e0       	ldi	r24, 0x00	; 0
    1c0c:	90 e0       	ldi	r25, 0x00	; 0
    1c0e:	0e 94 9c 0d 	call	0x1b38	; 0x1b38 <delay>
    1c12:	ee cf       	rjmp	.-36     	; 0x1bf0 <_ZN7Serial_5writeEPKhj+0x54>
			continue;
		}

		if (n > len) {
    1c14:	8c 17       	cp	r24, r28
    1c16:	1d 06       	cpc	r1, r29
    1c18:	11 f0       	breq	.+4      	; 0x1c1e <_ZN7Serial_5writeEPKhj+0x82>
    1c1a:	0c f0       	brlt	.+2      	; 0x1c1e <_ZN7Serial_5writeEPKhj+0x82>
			n = len;
    1c1c:	8c 2f       	mov	r24, r28
#define USB_RECV_TIMEOUT
class LockEP
{
	u8 _sreg;
public:
	LockEP(u8 ep) : _sreg(SREG)
    1c1e:	9f b7       	in	r25, 0x3f	; 63
	{
		cli();
    1c20:	f8 94       	cli
	UEDATX = d;
}

static inline void SetEP(u8 ep)
{
	UENUM = ep;
    1c22:	80 92 e9 00 	sts	0x00E9, r8	; 0x8000e9 <__DATA_REGION_ORIGIN__+0x89>
	UECONX = (1<<STALLRQ) | (1<<EPEN);
}

static inline u8 ReadWriteAllowed()
{
	return UEINTX & (1<<RWAL);
    1c26:	20 91 e8 00 	lds	r18, 0x00E8	; 0x8000e8 <__DATA_REGION_ORIGIN__+0x88>
		}

		{
			LockEP lock(ep);
			// Frame may have been released by the SOF interrupt handler
			if (!ReadWriteAllowed())
    1c2a:	25 fd       	sbrc	r18, 5
    1c2c:	02 c0       	rjmp	.+4      	; 0x1c32 <_ZN7Serial_5writeEPKhj+0x96>
		cli();
		SetEP(ep & 7);
	}
	~LockEP()
	{
		SREG = _sreg;
    1c2e:	9f bf       	out	0x3f, r25	; 63
    1c30:	df cf       	rjmp	.-66     	; 0x1bf0 <_ZN7Serial_5writeEPKhj+0x54>
			LockEP lock(ep);
			// Frame may have been released by the SOF interrupt handler
			if (!ReadWriteAllowed())
				continue;

			len -= n;
    1c32:	28 2f       	mov	r18, r24
    1c34:	30 e0       	ldi	r19, 0x00	; 0
    1c36:	c2 1b       	sub	r28, r18
    1c38:	d3 0b       	sbc	r29, r19
    1c3a:	f7 01       	movw	r30, r14
				while (n--)
					Send8(pgm_read_byte(data++));
			}
			else
			{
				while (n--)
    1c3c:	81 50       	subi	r24, 0x01	; 1
    1c3e:	20 f0       	brcs	.+8      	; 0x1c48 <_ZN7Serial_5writeEPKhj+0xac>
					Send8(*data++);
    1c40:	41 91       	ld	r20, Z+
	return UEDATX;	
}

static inline void Send8(u8 d)
{
	UEDATX = d;
    1c42:	40 93 f1 00 	sts	0x00F1, r20	; 0x8000f1 <__DATA_REGION_ORIGIN__+0x91>
    1c46:	fa cf       	rjmp	.-12     	; 0x1c3c <_ZN7Serial_5writeEPKhj+0xa0>
    1c48:	e2 0e       	add	r14, r18
    1c4a:	f3 1e       	adc	r15, r19
			{
				while (n--)
					Send8(*data++);
			}

			if (sendZlp) {
    1c4c:	bb 20       	and	r11, r11
    1c4e:	21 f0       	breq	.+8      	; 0x1c58 <_ZN7Serial_5writeEPKhj+0xbc>
	UEINTX = 0x6B;	// FIFOCON=0 NAKINI=1 RWAL=1 NAKOUTI=0 RXSTPI=1 RXOUTI=0 STALLEDI=1 TXINI=1
}

static inline void ReleaseTX()
{
	UEINTX = 0x3A;	// FIFOCON=0 NAKINI=0 RWAL=1 NAKOUTI=1 RXSTPI=1 RXOUTI=0 STALLEDI=1 TXINI=0
    1c50:	90 92 e8 00 	sts	0x00E8, r9	; 0x8000e8 <__DATA_REGION_ORIGIN__+0x88>
			if (sendZlp) {
				ReleaseTX();
				sendZlp = false;
			} else if (!ReadWriteAllowed()) { // ...release if buffer is full...
				ReleaseTX();
				if (len == 0) sendZlp = true;
    1c54:	b1 2c       	mov	r11, r1
    1c56:	eb cf       	rjmp	.-42     	; 0x1c2e <_ZN7Serial_5writeEPKhj+0x92>
	UECONX = (1<<STALLRQ) | (1<<EPEN);
}

static inline u8 ReadWriteAllowed()
{
	return UEINTX & (1<<RWAL);
    1c58:	80 91 e8 00 	lds	r24, 0x00E8	; 0x8000e8 <__DATA_REGION_ORIGIN__+0x88>
			}

			if (sendZlp) {
				ReleaseTX();
				sendZlp = false;
			} else if (!ReadWriteAllowed()) { // ...release if buffer is full...
    1c5c:	85 fd       	sbrc	r24, 5
    1c5e:	e7 cf       	rjmp	.-50     	; 0x1c2e <_ZN7Serial_5writeEPKhj+0x92>
	UEINTX = 0x6B;	// FIFOCON=0 NAKINI=1 RWAL=1 NAKOUTI=0 RXSTPI=1 RXOUTI=0 STALLEDI=1 TXINI=1
}

static inline void ReleaseTX()
{
	UEINTX = 0x3A;	// FIFOCON=0 NAKINI=0 RWAL=1 NAKOUTI=1 RXSTPI=1 RXOUTI=0 STALLEDI=1 TXINI=0
    1c60:	90 92 e8 00 	sts	0x00E8, r9	; 0x8000e8 <__DATA_REGION_ORIGIN__+0x88>
			if (sendZlp) {
				ReleaseTX();
				sendZlp = false;
			} else if (!ReadWriteAllowed()) { // ...release if buffer is full...
				ReleaseTX();
				if (len == 0) sendZlp = true;
    1c64:	bb 24       	eor	r11, r11
    1c66:	b3 94       	inc	r11
    1c68:	20 97       	sbiw	r28, 0x00	; 0
    1c6a:	09 f3       	breq	.-62     	; 0x1c2e <_ZN7Serial_5writeEPKhj+0x92>
    1c6c:	f3 cf       	rjmp	.-26     	; 0x1c54 <_ZN7Serial_5writeEPKhj+0xb8>
				// XXX: TRANSFER_RELEASE is never used can be removed?
				ReleaseTX();
			}
		}
	}
	TXLED1;					// light the TX LED
    1c6e:	5d 98       	cbi	0x0b, 5	; 11
	TxLEDPulse = TX_RX_LED_PULSE_MS;
    1c70:	84 e6       	ldi	r24, 0x64	; 100
    1c72:	80 93 07 03 	sts	0x0307, r24	; 0x800307 <TxLEDPulse>
	// TODO - ZE - check behavior on different OSes and test what happens if an
	// open connection isn't broken cleanly (cable is yanked out, host dies
	// or locks up, or host virtual serial port hangs)
	if (_usbLineInfo.lineState > 0)	{
		int r = USB_Send(CDC_TX,buffer,size);
		if (r > 0) {
    1c76:	10 16       	cp	r1, r16
    1c78:	11 06       	cpc	r1, r17
    1c7a:	3c f0       	brlt	.+14     	; 0x1c8a <_ZN7Serial_5writeEPKhj+0xee>
  private:
    int write_error;
    size_t printNumber(unsigned long, uint8_t);
    size_t printFloat(double, uint8_t);
  protected:
    void setWriteError(int err = 1) { write_error = err; }
    1c7c:	81 e0       	ldi	r24, 0x01	; 1
    1c7e:	90 e0       	ldi	r25, 0x00	; 0
    1c80:	f6 01       	movw	r30, r12
    1c82:	93 83       	std	Z+3, r25	; 0x03
    1c84:	82 83       	std	Z+2, r24	; 0x02
			return r;
		} else {
			setWriteError();
			return 0;
    1c86:	10 e0       	ldi	r17, 0x00	; 0
    1c88:	00 e0       	ldi	r16, 0x00	; 0
		}
	}
	setWriteError();
	return 0;
}
    1c8a:	c8 01       	movw	r24, r16
    1c8c:	df 91       	pop	r29
    1c8e:	cf 91       	pop	r28
    1c90:	1f 91       	pop	r17
    1c92:	0f 91       	pop	r16
    1c94:	ff 90       	pop	r15
    1c96:	ef 90       	pop	r14
    1c98:	df 90       	pop	r13
    1c9a:	cf 90       	pop	r12
    1c9c:	bf 90       	pop	r11
    1c9e:	af 90       	pop	r10
    1ca0:	9f 90       	pop	r9
    1ca2:	8f 90       	pop	r8
    1ca4:	08 95       	ret

00001ca6 <_ZN11ArduboyCore12buttonsStateEv>:
  buttons = buttons | (((~PINC) & B01000000) >> 4);
  // A and B
  buttons = buttons | (((~PINF) & B11000000) >> 6);
#elif defined(ARDUBOY_10)
  // down, up, left right
  buttons = ((~PINF) & B11110000);
    1ca6:	4f b1       	in	r20, 0x0f	; 15
  // A (left)
  buttons = buttons | (((~PINE) & B01000000) >> 3);
    1ca8:	8c b1       	in	r24, 0x0c	; 12
  // B (right)
  buttons = buttons | (((~PINB) & B00010000) >> 2);
    1caa:	23 b1       	in	r18, 0x03	; 3
  buttons = buttons | (((~PINF) & B11000000) >> 6);
#elif defined(ARDUBOY_10)
  // down, up, left right
  buttons = ((~PINF) & B11110000);
  // A (left)
  buttons = buttons | (((~PINE) & B01000000) >> 3);
    1cac:	90 e0       	ldi	r25, 0x00	; 0
    1cae:	80 95       	com	r24
    1cb0:	90 95       	com	r25
    1cb2:	33 e0       	ldi	r19, 0x03	; 3
    1cb4:	95 95       	asr	r25
    1cb6:	87 95       	ror	r24
    1cb8:	3a 95       	dec	r19
    1cba:	e1 f7       	brne	.-8      	; 0x1cb4 <_ZN11ArduboyCore12buttonsStateEv+0xe>
    1cbc:	88 70       	andi	r24, 0x08	; 8
  // B (right)
  buttons = buttons | (((~PINB) & B00010000) >> 2);
    1cbe:	30 e0       	ldi	r19, 0x00	; 0
    1cc0:	20 95       	com	r18
    1cc2:	30 95       	com	r19
    1cc4:	35 95       	asr	r19
    1cc6:	27 95       	ror	r18
    1cc8:	35 95       	asr	r19
    1cca:	27 95       	ror	r18
    1ccc:	24 70       	andi	r18, 0x04	; 4
    1cce:	82 2b       	or	r24, r18
  buttons = buttons | (((~PINC) & B01000000) >> 4);
  // A and B
  buttons = buttons | (((~PINF) & B11000000) >> 6);
#elif defined(ARDUBOY_10)
  // down, up, left right
  buttons = ((~PINF) & B11110000);
    1cd0:	94 2f       	mov	r25, r20
    1cd2:	90 95       	com	r25
    1cd4:	90 7f       	andi	r25, 0xF0	; 240
  // B (right)
  buttons = buttons | (((~PINB) & B00010000) >> 2);
#endif
  
  return buttons;
}
    1cd6:	89 2b       	or	r24, r25
    1cd8:	08 95       	ret

00001cda <_ZN11ArduboyCore4idleEv>:

/* Power Management */

void ArduboyCore::idle()
{
  set_sleep_mode(SLEEP_MODE_IDLE);
    1cda:	83 b7       	in	r24, 0x33	; 51
    1cdc:	81 7f       	andi	r24, 0xF1	; 241
    1cde:	83 bf       	out	0x33, r24	; 51
  sleep_mode();
    1ce0:	83 b7       	in	r24, 0x33	; 51
    1ce2:	81 60       	ori	r24, 0x01	; 1
    1ce4:	83 bf       	out	0x33, r24	; 51
    1ce6:	88 95       	sleep
    1ce8:	83 b7       	in	r24, 0x33	; 51
    1cea:	8e 7f       	andi	r24, 0xFE	; 254
    1cec:	83 bf       	out	0x33, r24	; 51
}
    1cee:	08 95       	ret

00001cf0 <_ZN11ArduboyCore14LCDCommandModeEv>:
  *csport &= ~cspinmask;
}

void ArduboyCore::LCDCommandMode()
{
  *csport |= cspinmask;
    1cf0:	e0 91 f8 02 	lds	r30, 0x02F8	; 0x8002f8 <_ZN11ArduboyCore6csportE>
    1cf4:	f0 91 f9 02 	lds	r31, 0x02F9	; 0x8002f9 <_ZN11ArduboyCore6csportE+0x1>
    1cf8:	90 81       	ld	r25, Z
    1cfa:	80 91 f7 02 	lds	r24, 0x02F7	; 0x8002f7 <_ZN11ArduboyCore9cspinmaskE>
    1cfe:	98 2b       	or	r25, r24
    1d00:	90 83       	st	Z, r25
  *dcport &= ~dcpinmask;
    1d02:	a0 91 f5 02 	lds	r26, 0x02F5	; 0x8002f5 <_ZN11ArduboyCore6dcportE>
    1d06:	b0 91 f6 02 	lds	r27, 0x02F6	; 0x8002f6 <_ZN11ArduboyCore6dcportE+0x1>
    1d0a:	2c 91       	ld	r18, X
    1d0c:	90 91 f4 02 	lds	r25, 0x02F4	; 0x8002f4 <_ZN11ArduboyCore9dcpinmaskE>
    1d10:	90 95       	com	r25
    1d12:	92 23       	and	r25, r18
    1d14:	9c 93       	st	X, r25
  *csport &= ~cspinmask;
    1d16:	90 81       	ld	r25, Z
    1d18:	80 95       	com	r24
    1d1a:	89 23       	and	r24, r25
    1d1c:	80 83       	st	Z, r24
}
    1d1e:	08 95       	ret

00001d20 <_ZN11ArduboyCore11LCDDataModeEv>:
  LCDDataMode();
}

void ArduboyCore::LCDDataMode()
{
  *dcport |= dcpinmask;
    1d20:	e0 91 f5 02 	lds	r30, 0x02F5	; 0x8002f5 <_ZN11ArduboyCore6dcportE>
    1d24:	f0 91 f6 02 	lds	r31, 0x02F6	; 0x8002f6 <_ZN11ArduboyCore6dcportE+0x1>
    1d28:	80 81       	ld	r24, Z
    1d2a:	90 91 f4 02 	lds	r25, 0x02F4	; 0x8002f4 <_ZN11ArduboyCore9dcpinmaskE>
    1d2e:	89 2b       	or	r24, r25
    1d30:	80 83       	st	Z, r24
  *csport &= ~cspinmask;
    1d32:	e0 91 f8 02 	lds	r30, 0x02F8	; 0x8002f8 <_ZN11ArduboyCore6csportE>
    1d36:	f0 91 f9 02 	lds	r31, 0x02F9	; 0x8002f9 <_ZN11ArduboyCore6csportE+0x1>
    1d3a:	90 81       	ld	r25, Z
    1d3c:	80 91 f7 02 	lds	r24, 0x02F7	; 0x8002f7 <_ZN11ArduboyCore9cspinmaskE>
    1d40:	80 95       	com	r24
    1d42:	89 23       	and	r24, r25
    1d44:	80 83       	st	Z, r24
}
    1d46:	08 95       	ret

00001d48 <_ZN12ArduboyTunes8playNoteEhh.part.2>:
      stopNote(0);
      break;
  }
}

void ArduboyTunes::playNote(byte chan, byte note)
    1d48:	cf 92       	push	r12
    1d4a:	df 92       	push	r13
    1d4c:	ef 92       	push	r14
    1d4e:	ff 92       	push	r15
    1d50:	0f 93       	push	r16
    1d52:	1f 93       	push	r17
    1d54:	cf 93       	push	r28
  // we only have frequencies for 128 notes
  if (note > 127) {
    return;
  }

  timer_num = pgm_read_byte(tune_pin_to_timer_PGM + chan);
    1d56:	e8 2f       	mov	r30, r24
    1d58:	f0 e0       	ldi	r31, 0x00	; 0
    1d5a:	e9 59       	subi	r30, 0x99	; 153
    1d5c:	f0 4f       	sbci	r31, 0xF0	; 240
    1d5e:	c4 91       	lpm	r28, Z
    1d60:	e6 2f       	mov	r30, r22
    1d62:	f0 e0       	ldi	r31, 0x00	; 0
  if (note < 48) {
    1d64:	60 33       	cpi	r22, 0x30	; 48
    1d66:	98 f5       	brcc	.+102    	; 0x1dce <_ZN12ArduboyTunes8playNoteEhh.part.2+0x86>
    frequency2 = pgm_read_byte(_midi_byte_note_frequencies + note);
    1d68:	e8 5e       	subi	r30, 0xE8	; 232
    1d6a:	f0 4f       	sbci	r31, 0xF0	; 240
    1d6c:	e4 91       	lpm	r30, Z
    1d6e:	0e 2f       	mov	r16, r30
    1d70:	10 e0       	ldi	r17, 0x00	; 0
    frequency2 = pgm_read_word(_midi_word_note_frequencies + note - 48);
  }

  //******  16-bit timer  *********
  // two choices for the 16 bit timers: ck/1 or ck/64
  ocr = F_CPU / frequency2 - 1;
    1d72:	f1 2c       	mov	r15, r1
    1d74:	e1 2c       	mov	r14, r1
    1d76:	60 e0       	ldi	r22, 0x00	; 0
    1d78:	74 e2       	ldi	r23, 0x24	; 36
    1d7a:	84 ef       	ldi	r24, 0xF4	; 244
    1d7c:	90 e0       	ldi	r25, 0x00	; 0
    1d7e:	a7 01       	movw	r20, r14
    1d80:	98 01       	movw	r18, r16
    1d82:	0e 94 e9 26 	call	0x4dd2	; 0x4dd2 <__divmodsi4>
    1d86:	21 50       	subi	r18, 0x01	; 1
    1d88:	31 09       	sbc	r19, r1
    1d8a:	41 09       	sbc	r20, r1
    1d8c:	51 09       	sbc	r21, r1
  prescalar_bits = 0b001;
    1d8e:	91 e0       	ldi	r25, 0x01	; 1
  if (ocr > 0xffff) {
    1d90:	21 15       	cp	r18, r1
    1d92:	31 05       	cpc	r19, r1
    1d94:	81 e0       	ldi	r24, 0x01	; 1
    1d96:	48 07       	cpc	r20, r24
    1d98:	51 05       	cpc	r21, r1
    1d9a:	6c f0       	brlt	.+26     	; 0x1db6 <_ZN12ArduboyTunes8playNoteEhh.part.2+0x6e>
    ocr = F_CPU / frequency2 / 64 - 1;
    1d9c:	60 e9       	ldi	r22, 0x90	; 144
    1d9e:	70 ed       	ldi	r23, 0xD0	; 208
    1da0:	83 e0       	ldi	r24, 0x03	; 3
    1da2:	90 e0       	ldi	r25, 0x00	; 0
    1da4:	a7 01       	movw	r20, r14
    1da6:	98 01       	movw	r18, r16
    1da8:	0e 94 e9 26 	call	0x4dd2	; 0x4dd2 <__divmodsi4>
    1dac:	21 50       	subi	r18, 0x01	; 1
    1dae:	31 09       	sbc	r19, r1
    1db0:	41 09       	sbc	r20, r1
    1db2:	51 09       	sbc	r21, r1
    prescalar_bits = 0b011;
    1db4:	93 e0       	ldi	r25, 0x03	; 3
  }
  // Set the OCR for the given timer, then turn on the interrupts
  switch (timer_num) {
    1db6:	c1 30       	cpi	r28, 0x01	; 1
    1db8:	89 f0       	breq	.+34     	; 0x1ddc <_ZN12ArduboyTunes8playNoteEhh.part.2+0x94>
    1dba:	c3 30       	cpi	r28, 0x03	; 3
    1dbc:	f9 f0       	breq	.+62     	; 0x1dfc <_ZN12ArduboyTunes8playNoteEhh.part.2+0xb4>
      wait_timer_frequency2 = frequency2;  // for "tune_delay" function
      wait_timer_playing = true;
      bitWrite(TIMSK3, OCIE3A, 1);
      break;
  }
}
    1dbe:	cf 91       	pop	r28
    1dc0:	1f 91       	pop	r17
    1dc2:	0f 91       	pop	r16
    1dc4:	ff 90       	pop	r15
    1dc6:	ef 90       	pop	r14
    1dc8:	df 90       	pop	r13
    1dca:	cf 90       	pop	r12
    1dcc:	08 95       	ret

  timer_num = pgm_read_byte(tune_pin_to_timer_PGM + chan);
  if (note < 48) {
    frequency2 = pgm_read_byte(_midi_byte_note_frequencies + note);
  } else {
    frequency2 = pgm_read_word(_midi_word_note_frequencies + note - 48);
    1dce:	ee 0f       	add	r30, r30
    1dd0:	ff 1f       	adc	r31, r31
    1dd2:	e8 5e       	subi	r30, 0xE8	; 232
    1dd4:	f1 4f       	sbci	r31, 0xF1	; 241
    1dd6:	05 91       	lpm	r16, Z+
    1dd8:	14 91       	lpm	r17, Z
    1dda:	cb cf       	rjmp	.-106    	; 0x1d72 <_ZN12ArduboyTunes8playNoteEhh.part.2+0x2a>
    prescalar_bits = 0b011;
  }
  // Set the OCR for the given timer, then turn on the interrupts
  switch (timer_num) {
    case 1:
      TCCR1B = (TCCR1B & 0b11111000) | prescalar_bits;
    1ddc:	80 91 81 00 	lds	r24, 0x0081	; 0x800081 <__DATA_REGION_ORIGIN__+0x21>
    1de0:	88 7f       	andi	r24, 0xF8	; 248
    1de2:	89 2b       	or	r24, r25
    1de4:	80 93 81 00 	sts	0x0081, r24	; 0x800081 <__DATA_REGION_ORIGIN__+0x21>
      OCR1A = ocr;
    1de8:	30 93 89 00 	sts	0x0089, r19	; 0x800089 <__DATA_REGION_ORIGIN__+0x29>
    1dec:	20 93 88 00 	sts	0x0088, r18	; 0x800088 <__DATA_REGION_ORIGIN__+0x28>
      bitWrite(TIMSK1, OCIE1A, 1);
    1df0:	80 91 6f 00 	lds	r24, 0x006F	; 0x80006f <__DATA_REGION_ORIGIN__+0xf>
    1df4:	82 60       	ori	r24, 0x02	; 2
    1df6:	80 93 6f 00 	sts	0x006F, r24	; 0x80006f <__DATA_REGION_ORIGIN__+0xf>
    1dfa:	e1 cf       	rjmp	.-62     	; 0x1dbe <_ZN12ArduboyTunes8playNoteEhh.part.2+0x76>
      break;
    case 3:
      TCCR3B = (TCCR3B & 0b11111000) | prescalar_bits;
    1dfc:	80 91 91 00 	lds	r24, 0x0091	; 0x800091 <__DATA_REGION_ORIGIN__+0x31>
    1e00:	88 7f       	andi	r24, 0xF8	; 248
    1e02:	89 2b       	or	r24, r25
    1e04:	80 93 91 00 	sts	0x0091, r24	; 0x800091 <__DATA_REGION_ORIGIN__+0x31>
      OCR3A = ocr;
    1e08:	30 93 99 00 	sts	0x0099, r19	; 0x800099 <__DATA_REGION_ORIGIN__+0x39>
    1e0c:	20 93 98 00 	sts	0x0098, r18	; 0x800098 <__DATA_REGION_ORIGIN__+0x38>
      wait_timer_frequency2 = frequency2;  // for "tune_delay" function
    1e10:	10 93 e7 02 	sts	0x02E7, r17	; 0x8002e7 <wait_timer_frequency2+0x1>
    1e14:	00 93 e6 02 	sts	0x02E6, r16	; 0x8002e6 <wait_timer_frequency2>
      wait_timer_playing = true;
    1e18:	81 e0       	ldi	r24, 0x01	; 1
    1e1a:	80 93 e5 02 	sts	0x02E5, r24	; 0x8002e5 <wait_timer_playing>
      bitWrite(TIMSK3, OCIE3A, 1);
    1e1e:	80 91 71 00 	lds	r24, 0x0071	; 0x800071 <__DATA_REGION_ORIGIN__+0x11>
    1e22:	82 60       	ori	r24, 0x02	; 2
    1e24:	80 93 71 00 	sts	0x0071, r24	; 0x800071 <__DATA_REGION_ORIGIN__+0x11>
    1e28:	ca cf       	rjmp	.-108    	; 0x1dbe <_ZN12ArduboyTunes8playNoteEhh.part.2+0x76>

00001e2a <_ZN12ArduboyTunes8stopNoteEh>:
}

void ArduboyTunes::stopNote(byte chan)
{
  byte timer_num;
  timer_num = pgm_read_byte(tune_pin_to_timer_PGM + chan);
    1e2a:	e8 2f       	mov	r30, r24
    1e2c:	f0 e0       	ldi	r31, 0x00	; 0
    1e2e:	e9 59       	subi	r30, 0x99	; 153
    1e30:	f0 4f       	sbci	r31, 0xF0	; 240
    1e32:	e4 91       	lpm	r30, Z
  switch (timer_num) {
    1e34:	e1 30       	cpi	r30, 0x01	; 1
    1e36:	19 f0       	breq	.+6      	; 0x1e3e <_ZN12ArduboyTunes8stopNoteEh+0x14>
    1e38:	e3 30       	cpi	r30, 0x03	; 3
    1e3a:	89 f0       	breq	.+34     	; 0x1e5e <_ZN12ArduboyTunes8stopNoteEh+0x34>
    1e3c:	08 95       	ret
    case 1:
      TIMSK1 &= ~(1 << OCIE1A);                 // disable the interrupt
    1e3e:	80 91 6f 00 	lds	r24, 0x006F	; 0x80006f <__DATA_REGION_ORIGIN__+0xf>
    1e42:	8d 7f       	andi	r24, 0xFD	; 253
    1e44:	80 93 6f 00 	sts	0x006F, r24	; 0x80006f <__DATA_REGION_ORIGIN__+0xf>
      *_tunes_timer1_pin_port &= ~(_tunes_timer1_pin_mask);   // keep pin low after stop
    1e48:	80 91 f0 02 	lds	r24, 0x02F0	; 0x8002f0 <_tunes_timer1_pin_mask>
    1e4c:	e0 91 f1 02 	lds	r30, 0x02F1	; 0x8002f1 <_tunes_timer1_pin_port>
    1e50:	f0 91 f2 02 	lds	r31, 0x02F2	; 0x8002f2 <_tunes_timer1_pin_port+0x1>
      break;
    case 3:
      wait_timer_playing = false;
      *_tunes_timer3_pin_port &= ~(_tunes_timer3_pin_mask);   // keep pin low after stop
    1e54:	90 81       	ld	r25, Z
    1e56:	80 95       	com	r24
    1e58:	89 23       	and	r24, r25
    1e5a:	80 83       	st	Z, r24
      break;
  }
}
    1e5c:	08 95       	ret
    case 1:
      TIMSK1 &= ~(1 << OCIE1A);                 // disable the interrupt
      *_tunes_timer1_pin_port &= ~(_tunes_timer1_pin_mask);   // keep pin low after stop
      break;
    case 3:
      wait_timer_playing = false;
    1e5e:	10 92 e5 02 	sts	0x02E5, r1	; 0x8002e5 <wait_timer_playing>
      *_tunes_timer3_pin_port &= ~(_tunes_timer3_pin_mask);   // keep pin low after stop
    1e62:	80 91 ed 02 	lds	r24, 0x02ED	; 0x8002ed <_tunes_timer3_pin_mask>
    1e66:	e0 91 ee 02 	lds	r30, 0x02EE	; 0x8002ee <_tunes_timer3_pin_port>
    1e6a:	f0 91 ef 02 	lds	r31, 0x02EF	; 0x8002ef <_tunes_timer3_pin_port+0x1>
    1e6e:	f2 cf       	rjmp	.-28     	; 0x1e54 <_ZN12ArduboyTunes8stopNoteEh+0x2a>

00001e70 <_ZN12ArduboyTunes4stepEv>:
{
  byte command, opcode, chan;
  unsigned duration;

  while (1) {
    command = pgm_read_byte(score_cursor++);
    1e70:	e0 91 19 03 	lds	r30, 0x0319	; 0x800319 <score_cursor>
    1e74:	f0 91 1a 03 	lds	r31, 0x031A	; 0x80031a <score_cursor+0x1>
    1e78:	bf 01       	movw	r22, r30
    1e7a:	6f 5f       	subi	r22, 0xFF	; 255
    1e7c:	7f 4f       	sbci	r23, 0xFF	; 255
    1e7e:	70 93 1a 03 	sts	0x031A, r23	; 0x80031a <score_cursor+0x1>
    1e82:	60 93 19 03 	sts	0x0319, r22	; 0x800319 <score_cursor>
    1e86:	24 91       	lpm	r18, Z
    opcode = command & 0xf0;
    1e88:	92 2f       	mov	r25, r18
    1e8a:	90 7f       	andi	r25, 0xF0	; 240
    chan = command & 0x0f;
    1e8c:	82 2f       	mov	r24, r18
    1e8e:	8f 70       	andi	r24, 0x0F	; 15
    if (opcode == TUNE_OP_STOPNOTE) { /* stop note */
    1e90:	90 38       	cpi	r25, 0x80	; 128
    1e92:	19 f4       	brne	.+6      	; 0x1e9a <_ZN12ArduboyTunes4stepEv+0x2a>
      stopNote(chan);
    1e94:	0e 94 15 0f 	call	0x1e2a	; 0x1e2a <_ZN12ArduboyTunes8stopNoteEh>
    1e98:	eb cf       	rjmp	.-42     	; 0x1e70 <_ZN12ArduboyTunes4stepEv>
    }
    else if (opcode == TUNE_OP_PLAYNOTE) { /* play note */
    1e9a:	90 39       	cpi	r25, 0x90	; 144
    1e9c:	81 f4       	brne	.+32     	; 0x1ebe <_ZN12ArduboyTunes4stepEv+0x4e>
      playNote(chan, pgm_read_byte(score_cursor++));
    1e9e:	32 96       	adiw	r30, 0x02	; 2
    1ea0:	f0 93 1a 03 	sts	0x031A, r31	; 0x80031a <score_cursor+0x1>
    1ea4:	e0 93 19 03 	sts	0x0319, r30	; 0x800319 <score_cursor>
    1ea8:	fb 01       	movw	r30, r22
    1eaa:	64 91       	lpm	r22, Z
  byte prescalar_bits;
  unsigned int frequency2; /* frequency times 2 */
  unsigned long ocr;

  // we can't plan on a channel that does not exist
  if (chan >= _tune_num_chans)
    1eac:	90 91 17 03 	lds	r25, 0x0317	; 0x800317 <_tune_num_chans>
    1eb0:	89 17       	cp	r24, r25
    1eb2:	f0 f6       	brcc	.-68     	; 0x1e70 <_ZN12ArduboyTunes4stepEv>
    return;

  // we only have frequencies for 128 notes
  if (note > 127) {
    1eb4:	67 fd       	sbrc	r22, 7
    1eb6:	dc cf       	rjmp	.-72     	; 0x1e70 <_ZN12ArduboyTunes4stepEv>
    1eb8:	0e 94 a4 0e 	call	0x1d48	; 0x1d48 <_ZN12ArduboyTunes8playNoteEhh.part.2>
    1ebc:	d9 cf       	rjmp	.-78     	; 0x1e70 <_ZN12ArduboyTunes4stepEv>
      stopNote(chan);
    }
    else if (opcode == TUNE_OP_PLAYNOTE) { /* play note */
      playNote(chan, pgm_read_byte(score_cursor++));
    }
    else if (opcode == TUNE_OP_RESTART) { /* restart score */
    1ebe:	90 3e       	cpi	r25, 0xE0	; 224
    1ec0:	49 f4       	brne	.+18     	; 0x1ed4 <_ZN12ArduboyTunes4stepEv+0x64>
      score_cursor = score_start;
    1ec2:	80 91 1b 03 	lds	r24, 0x031B	; 0x80031b <score_start>
    1ec6:	90 91 1c 03 	lds	r25, 0x031C	; 0x80031c <score_start+0x1>
    1eca:	90 93 1a 03 	sts	0x031A, r25	; 0x80031a <score_cursor+0x1>
    1ece:	80 93 19 03 	sts	0x0319, r24	; 0x800319 <score_cursor>
    1ed2:	ce cf       	rjmp	.-100    	; 0x1e70 <_ZN12ArduboyTunes4stepEv>
    }
    else if (opcode == TUNE_OP_STOP) { /* stop score */
    1ed4:	90 3f       	cpi	r25, 0xF0	; 240
    1ed6:	19 f4       	brne	.+6      	; 0x1ede <_ZN12ArduboyTunes4stepEv+0x6e>
      tune_playing = false;
    1ed8:	10 92 18 03 	sts	0x0318, r1	; 0x800318 <tune_playing>
    1edc:	08 95       	ret
      break;
    }
    else if (opcode < 0x80) { /* wait count in msec. */
    1ede:	97 fd       	sbrc	r25, 7
    1ee0:	c7 cf       	rjmp	.-114    	; 0x1e70 <_ZN12ArduboyTunes4stepEv>
      duration = ((unsigned)command << 8) | (pgm_read_byte(score_cursor++));
    1ee2:	32 96       	adiw	r30, 0x02	; 2
    1ee4:	f0 93 1a 03 	sts	0x031A, r31	; 0x80031a <score_cursor+0x1>
    1ee8:	e0 93 19 03 	sts	0x0319, r30	; 0x800319 <score_cursor>
    1eec:	fb 01       	movw	r30, r22
    1eee:	64 91       	lpm	r22, Z
      wait_toggle_count = ((unsigned long) wait_timer_frequency2 * duration + 500) / 1000;
    1ef0:	a0 91 e6 02 	lds	r26, 0x02E6	; 0x8002e6 <wait_timer_frequency2>
    1ef4:	b0 91 e7 02 	lds	r27, 0x02E7	; 0x8002e7 <wait_timer_frequency2+0x1>
    else if (opcode == TUNE_OP_STOP) { /* stop score */
      tune_playing = false;
      break;
    }
    else if (opcode < 0x80) { /* wait count in msec. */
      duration = ((unsigned)command << 8) | (pgm_read_byte(score_cursor++));
    1ef8:	32 2f       	mov	r19, r18
    1efa:	26 2f       	mov	r18, r22
      wait_toggle_count = ((unsigned long) wait_timer_frequency2 * duration + 500) / 1000;
    1efc:	0e 94 3d 27 	call	0x4e7a	; 0x4e7a <__umulhisi3>
    1f00:	6c 50       	subi	r22, 0x0C	; 12
    1f02:	7e 4f       	sbci	r23, 0xFE	; 254
    1f04:	8f 4f       	sbci	r24, 0xFF	; 255
    1f06:	9f 4f       	sbci	r25, 0xFF	; 255
    1f08:	28 ee       	ldi	r18, 0xE8	; 232
    1f0a:	33 e0       	ldi	r19, 0x03	; 3
    1f0c:	40 e0       	ldi	r20, 0x00	; 0
    1f0e:	50 e0       	ldi	r21, 0x00	; 0
    1f10:	0e 94 1b 27 	call	0x4e36	; 0x4e36 <__udivmodsi4>
    1f14:	20 93 e1 02 	sts	0x02E1, r18	; 0x8002e1 <wait_toggle_count>
    1f18:	30 93 e2 02 	sts	0x02E2, r19	; 0x8002e2 <wait_toggle_count+0x1>
    1f1c:	40 93 e3 02 	sts	0x02E3, r20	; 0x8002e3 <wait_toggle_count+0x2>
    1f20:	50 93 e4 02 	sts	0x02E4, r21	; 0x8002e4 <wait_toggle_count+0x3>
      if (wait_toggle_count == 0) wait_toggle_count = 1;
    1f24:	80 91 e1 02 	lds	r24, 0x02E1	; 0x8002e1 <wait_toggle_count>
    1f28:	90 91 e2 02 	lds	r25, 0x02E2	; 0x8002e2 <wait_toggle_count+0x1>
    1f2c:	a0 91 e3 02 	lds	r26, 0x02E3	; 0x8002e3 <wait_toggle_count+0x2>
    1f30:	b0 91 e4 02 	lds	r27, 0x02E4	; 0x8002e4 <wait_toggle_count+0x3>
    1f34:	89 2b       	or	r24, r25
    1f36:	8a 2b       	or	r24, r26
    1f38:	8b 2b       	or	r24, r27
    1f3a:	61 f4       	brne	.+24     	; 0x1f54 <_ZN12ArduboyTunes4stepEv+0xe4>
    1f3c:	81 e0       	ldi	r24, 0x01	; 1
    1f3e:	90 e0       	ldi	r25, 0x00	; 0
    1f40:	a0 e0       	ldi	r26, 0x00	; 0
    1f42:	b0 e0       	ldi	r27, 0x00	; 0
    1f44:	80 93 e1 02 	sts	0x02E1, r24	; 0x8002e1 <wait_toggle_count>
    1f48:	90 93 e2 02 	sts	0x02E2, r25	; 0x8002e2 <wait_toggle_count+0x1>
    1f4c:	a0 93 e3 02 	sts	0x02E3, r26	; 0x8002e3 <wait_toggle_count+0x2>
    1f50:	b0 93 e4 02 	sts	0x02E4, r27	; 0x8002e4 <wait_toggle_count+0x3>
      break;
    }
  }
}
    1f54:	08 95       	ret

00001f56 <_ZN9MyArduboy10playScore2EPKhh.constprop.29>:
void MyArduboy::saveAudioOnOff(void)
{
    myAudio.saveOnOff();
}

void MyArduboy::playScore2(const byte *score, uint8_t priority)
    1f56:	0f 93       	push	r16
    1f58:	1f 93       	push	r17
    1f5a:	cf 93       	push	r28
    1f5c:	df 93       	push	r29
{
    if (!isAudioEnabled()) return;
    1f5e:	20 91 1d 03 	lds	r18, 0x031D	; 0x80031d <_ZN12ArduboyAudio13audio_enabledE>
    1f62:	22 23       	and	r18, r18
    1f64:	29 f1       	breq	.+74     	; 0x1fb0 <_ZN9MyArduboy10playScore2EPKhh.constprop.29+0x5a>
    1f66:	16 2f       	mov	r17, r22
    1f68:	ec 01       	movw	r28, r24
  tune_playing = false;
}

bool ArduboyTunes::playing()
{
  return tune_playing;
    1f6a:	80 91 18 03 	lds	r24, 0x0318	; 0x800318 <tune_playing>
    if (pTunes->playing()) {
    1f6e:	88 23       	and	r24, r24
    1f70:	81 f0       	breq	.+32     	; 0x1f92 <_ZN9MyArduboy10playScore2EPKhh.constprop.29+0x3c>
        if (priority > playScorePriority) return;
    1f72:	80 91 8c 07 	lds	r24, 0x078C	; 0x80078c <arduboy+0x41e>
    1f76:	86 17       	cp	r24, r22
    1f78:	d8 f0       	brcs	.+54     	; 0x1fb0 <_ZN9MyArduboy10playScore2EPKhh.constprop.29+0x5a>
  tune_playing = true;  /* release the interrupt routine */
}

void ArduboyTunes::stopScore (void)
{
  for (uint8_t i = 0; i < _tune_num_chans; i++)
    1f7a:	00 e0       	ldi	r16, 0x00	; 0
    1f7c:	80 91 17 03 	lds	r24, 0x0317	; 0x800317 <_tune_num_chans>
    1f80:	08 17       	cp	r16, r24
    1f82:	28 f4       	brcc	.+10     	; 0x1f8e <_ZN9MyArduboy10playScore2EPKhh.constprop.29+0x38>
    stopNote(i);
    1f84:	80 2f       	mov	r24, r16
    1f86:	0e 94 15 0f 	call	0x1e2a	; 0x1e2a <_ZN12ArduboyTunes8stopNoteEh>
  tune_playing = true;  /* release the interrupt routine */
}

void ArduboyTunes::stopScore (void)
{
  for (uint8_t i = 0; i < _tune_num_chans; i++)
    1f8a:	0f 5f       	subi	r16, 0xFF	; 255
    1f8c:	f7 cf       	rjmp	.-18     	; 0x1f7c <_ZN9MyArduboy10playScore2EPKhh.constprop.29+0x26>
    stopNote(i);
  tune_playing = false;
    1f8e:	10 92 18 03 	sts	0x0318, r1	; 0x800318 <tune_playing>
        pTunes->stopScore();
    }
    playScorePriority = priority;
    1f92:	10 93 8c 07 	sts	0x078C, r17	; 0x80078c <arduboy+0x41e>
  }
}

void ArduboyTunes::playScore(const byte *score)
{
  score_start = score;
    1f96:	d0 93 1c 03 	sts	0x031C, r29	; 0x80031c <score_start+0x1>
    1f9a:	c0 93 1b 03 	sts	0x031B, r28	; 0x80031b <score_start>
  score_cursor = score_start;
    1f9e:	d0 93 1a 03 	sts	0x031A, r29	; 0x80031a <score_cursor+0x1>
    1fa2:	c0 93 19 03 	sts	0x0319, r28	; 0x800319 <score_cursor>
  step();  /* execute initial commands */
    1fa6:	0e 94 38 0f 	call	0x1e70	; 0x1e70 <_ZN12ArduboyTunes4stepEv>
  tune_playing = true;  /* release the interrupt routine */
    1faa:	81 e0       	ldi	r24, 0x01	; 1
    1fac:	80 93 18 03 	sts	0x0318, r24	; 0x800318 <tune_playing>
    pTunes->playScore(score);
}
    1fb0:	df 91       	pop	r29
    1fb2:	cf 91       	pop	r28
    1fb4:	1f 91       	pop	r17
    1fb6:	0f 91       	pop	r16
    1fb8:	08 95       	ret

00001fba <_ZN12ArduboyAudio3offEv>:
  return audio_enabled;
}

void ArduboyAudio::off()
{
  audio_enabled = false;
    1fba:	10 92 1d 03 	sts	0x031D, r1	; 0x80031d <_ZN12ArduboyAudio13audio_enabledE>
  power_timer1_disable();
    1fbe:	e4 e6       	ldi	r30, 0x64	; 100
    1fc0:	f0 e0       	ldi	r31, 0x00	; 0
    1fc2:	80 81       	ld	r24, Z
    1fc4:	88 60       	ori	r24, 0x08	; 8
    1fc6:	80 83       	st	Z, r24
  power_timer3_disable();
    1fc8:	e5 e6       	ldi	r30, 0x65	; 101
    1fca:	f0 e0       	ldi	r31, 0x00	; 0
    1fcc:	80 81       	ld	r24, Z
    1fce:	88 60       	ori	r24, 0x08	; 8
    1fd0:	80 83       	st	Z, r24
}
    1fd2:	08 95       	ret

00001fd4 <_ZN12ArduboyAudio2onEv>:

bool ArduboyAudio::audio_enabled = false;

void ArduboyAudio::on()
{
  power_timer1_enable();
    1fd4:	e4 e6       	ldi	r30, 0x64	; 100
    1fd6:	f0 e0       	ldi	r31, 0x00	; 0
    1fd8:	80 81       	ld	r24, Z
    1fda:	87 7f       	andi	r24, 0xF7	; 247
    1fdc:	80 83       	st	Z, r24
  power_timer3_enable();
    1fde:	e5 e6       	ldi	r30, 0x65	; 101
    1fe0:	f0 e0       	ldi	r31, 0x00	; 0
    1fe2:	80 81       	ld	r24, Z
    1fe4:	87 7f       	andi	r24, 0xF7	; 247
    1fe6:	80 83       	st	Z, r24
  audio_enabled = true;
    1fe8:	81 e0       	ldi	r24, 0x01	; 1
    1fea:	80 93 1d 03 	sts	0x031D, r24	; 0x80031d <_ZN12ArduboyAudio13audio_enabledE>
}
    1fee:	08 95       	ret

00001ff0 <_ZN7Arduboy9drawPixelEiih>:
}

void Arduboy::drawPixel(int x, int y, uint8_t color)
{
  #ifdef PIXEL_SAFE_MODE
  if (x < 0 || x > (WIDTH-1) || y < 0 || y > (HEIGHT-1))
    1ff0:	60 38       	cpi	r22, 0x80	; 128
    1ff2:	71 05       	cpc	r23, r1
    1ff4:	e8 f4       	brcc	.+58     	; 0x2030 <_ZN7Arduboy9drawPixelEiih+0x40>
    1ff6:	40 34       	cpi	r20, 0x40	; 64
    1ff8:	51 05       	cpc	r21, r1
    1ffa:	d0 f4       	brcc	.+52     	; 0x2030 <_ZN7Arduboy9drawPixelEiih+0x40>
  {
    return;
  }
  #endif

  uint8_t row = (uint8_t)y / 8;
    1ffc:	34 2f       	mov	r19, r20
    1ffe:	36 95       	lsr	r19
    2000:	36 95       	lsr	r19
    2002:	36 95       	lsr	r19
    2004:	a0 e8       	ldi	r26, 0x80	; 128
    2006:	3a 9f       	mul	r19, r26
    2008:	f0 01       	movw	r30, r0
    200a:	11 24       	eor	r1, r1
    200c:	e6 0f       	add	r30, r22
    200e:	f7 1f       	adc	r31, r23
    2010:	e8 0f       	add	r30, r24
    2012:	f9 1f       	adc	r31, r25
    2014:	34 89       	ldd	r19, Z+20	; 0x14
    2016:	ca 01       	movw	r24, r20
    2018:	87 70       	andi	r24, 0x07	; 7
    201a:	99 27       	eor	r25, r25
    201c:	41 e0       	ldi	r20, 0x01	; 1
    201e:	50 e0       	ldi	r21, 0x00	; 0
    2020:	01 c0       	rjmp	.+2      	; 0x2024 <_ZN7Arduboy9drawPixelEiih+0x34>
    2022:	44 0f       	add	r20, r20
    2024:	8a 95       	dec	r24
    2026:	ea f7       	brpl	.-6      	; 0x2022 <_ZN7Arduboy9drawPixelEiih+0x32>
  if (color)
    2028:	22 23       	and	r18, r18
    202a:	19 f0       	breq	.+6      	; 0x2032 <_ZN7Arduboy9drawPixelEiih+0x42>
  {
    sBuffer[(row*WIDTH) + (uint8_t)x] |=   _BV((uint8_t)y % 8);
    202c:	43 2b       	or	r20, r19
  }
  else
  {
    sBuffer[(row*WIDTH) + (uint8_t)x] &= ~ _BV((uint8_t)y % 8);
    202e:	44 8b       	std	Z+20, r20	; 0x14
  }
}
    2030:	08 95       	ret
  {
    sBuffer[(row*WIDTH) + (uint8_t)x] |=   _BV((uint8_t)y % 8);
  }
  else
  {
    sBuffer[(row*WIDTH) + (uint8_t)x] &= ~ _BV((uint8_t)y % 8);
    2032:	40 95       	com	r20
    2034:	43 23       	and	r20, r19
    2036:	fb cf       	rjmp	.-10     	; 0x202e <_ZN7Arduboy9drawPixelEiih+0x3e>

00002038 <_ZN7Arduboy5writeEh>:
{
  wrap = w;
}

size_t Arduboy::write(uint8_t c)
{
    2038:	2f 92       	push	r2
    203a:	3f 92       	push	r3
    203c:	4f 92       	push	r4
    203e:	5f 92       	push	r5
    2040:	6f 92       	push	r6
    2042:	7f 92       	push	r7
    2044:	8f 92       	push	r8
    2046:	9f 92       	push	r9
    2048:	af 92       	push	r10
    204a:	bf 92       	push	r11
    204c:	cf 92       	push	r12
    204e:	df 92       	push	r13
    2050:	ef 92       	push	r14
    2052:	ff 92       	push	r15
    2054:	0f 93       	push	r16
    2056:	1f 93       	push	r17
    2058:	cf 93       	push	r28
    205a:	df 93       	push	r29
    205c:	cd b7       	in	r28, 0x3d	; 61
    205e:	de b7       	in	r29, 0x3e	; 62
    2060:	2d 97       	sbiw	r28, 0x0d	; 13
    2062:	0f b6       	in	r0, 0x3f	; 63
    2064:	f8 94       	cli
    2066:	de bf       	out	0x3e, r29	; 62
    2068:	0f be       	out	0x3f, r0	; 63
    206a:	cd bf       	out	0x3d, r28	; 61
  if (c == '\n')
    206c:	6a 30       	cpi	r22, 0x0A	; 10
    206e:	69 f5       	brne	.+90     	; 0x20ca <_ZN7Arduboy5writeEh+0x92>
  {
    cursor_y += textsize*8;
    2070:	fc 01       	movw	r30, r24
    2072:	ea 5e       	subi	r30, 0xEA	; 234
    2074:	fb 4f       	sbci	r31, 0xFB	; 251
    2076:	dc 01       	movw	r26, r24
    2078:	a8 5e       	subi	r26, 0xE8	; 232
    207a:	bb 4f       	sbci	r27, 0xFB	; 251
    207c:	2c 91       	ld	r18, X
    207e:	48 e0       	ldi	r20, 0x08	; 8
    2080:	24 9f       	mul	r18, r20
    2082:	90 01       	movw	r18, r0
    2084:	11 24       	eor	r1, r1
    2086:	40 81       	ld	r20, Z
    2088:	51 81       	ldd	r21, Z+1	; 0x01
    208a:	24 0f       	add	r18, r20
    208c:	35 1f       	adc	r19, r21
    208e:	31 83       	std	Z+1, r19	; 0x01
    2090:	20 83       	st	Z, r18
    cursor_x = 0;
    2092:	14 97       	sbiw	r26, 0x04	; 4
    2094:	1d 92       	st	X+, r1
    2096:	1c 92       	st	X, r1
      // calling ourselves recursively for 'newline' is 
      // 12 bytes smaller than doing the same math here
      write('\n');
    }
  }
}
    2098:	2d 96       	adiw	r28, 0x0d	; 13
    209a:	0f b6       	in	r0, 0x3f	; 63
    209c:	f8 94       	cli
    209e:	de bf       	out	0x3e, r29	; 62
    20a0:	0f be       	out	0x3f, r0	; 63
    20a2:	cd bf       	out	0x3d, r28	; 61
    20a4:	df 91       	pop	r29
    20a6:	cf 91       	pop	r28
    20a8:	1f 91       	pop	r17
    20aa:	0f 91       	pop	r16
    20ac:	ff 90       	pop	r15
    20ae:	ef 90       	pop	r14
    20b0:	df 90       	pop	r13
    20b2:	cf 90       	pop	r12
    20b4:	bf 90       	pop	r11
    20b6:	af 90       	pop	r10
    20b8:	9f 90       	pop	r9
    20ba:	8f 90       	pop	r8
    20bc:	7f 90       	pop	r7
    20be:	6f 90       	pop	r6
    20c0:	5f 90       	pop	r5
    20c2:	4f 90       	pop	r4
    20c4:	3f 90       	pop	r3
    20c6:	2f 90       	pop	r2
    20c8:	08 95       	ret
  if (c == '\n')
  {
    cursor_y += textsize*8;
    cursor_x = 0;
  }
  else if (c == '\r')
    20ca:	6d 30       	cpi	r22, 0x0D	; 13
    20cc:	29 f3       	breq	.-54     	; 0x2098 <_ZN7Arduboy5writeEh+0x60>
    20ce:	9d 87       	std	Y+13, r25	; 0x0d
    20d0:	8c 87       	std	Y+12, r24	; 0x0c
  {
    // skip em
  }
  else
  {
    drawChar(cursor_x, cursor_y, c, 1, 0, textsize);
    20d2:	8c 5e       	subi	r24, 0xEC	; 236
    20d4:	9b 4f       	sbci	r25, 0xFB	; 251
    20d6:	9a 83       	std	Y+2, r25	; 0x02
    20d8:	89 83       	std	Y+1, r24	; 0x01
    20da:	fc 01       	movw	r30, r24
    20dc:	80 80       	ld	r8, Z
    20de:	91 80       	ldd	r9, Z+1	; 0x01
    20e0:	2c 85       	ldd	r18, Y+12	; 0x0c
    20e2:	3d 85       	ldd	r19, Y+13	; 0x0d
    20e4:	28 5e       	subi	r18, 0xE8	; 232
    20e6:	3b 4f       	sbci	r19, 0xFB	; 251
    20e8:	3c 83       	std	Y+4, r19	; 0x04
    20ea:	2b 83       	std	Y+3, r18	; 0x03
void Arduboy::drawChar
(int16_t x, int16_t y, unsigned char c, uint8_t color, uint8_t bg, uint8_t size)
{
  boolean draw_background = bg != color;

  if ((x >= WIDTH) ||         // Clip right
    20ec:	30 e8       	ldi	r19, 0x80	; 128
    20ee:	83 16       	cp	r8, r19
    20f0:	91 04       	cpc	r9, r1
    20f2:	0c f0       	brlt	.+2      	; 0x20f6 <_ZN7Arduboy5writeEh+0xbe>
    20f4:	71 c0       	rjmp	.+226    	; 0x21d8 <_ZN7Arduboy5writeEh+0x1a0>
  {
    // skip em
  }
  else
  {
    drawChar(cursor_x, cursor_y, c, 1, 0, textsize);
    20f6:	ec 85       	ldd	r30, Y+12	; 0x0c
    20f8:	fd 85       	ldd	r31, Y+13	; 0x0d
    20fa:	ea 5e       	subi	r30, 0xEA	; 234
    20fc:	fb 4f       	sbci	r31, 0xFB	; 251
    20fe:	60 80       	ld	r6, Z
    2100:	71 80       	ldd	r7, Z+1	; 0x01
void Arduboy::drawChar
(int16_t x, int16_t y, unsigned char c, uint8_t color, uint8_t bg, uint8_t size)
{
  boolean draw_background = bg != color;

  if ((x >= WIDTH) ||         // Clip right
    2102:	40 e4       	ldi	r20, 0x40	; 64
    2104:	64 16       	cp	r6, r20
    2106:	71 04       	cpc	r7, r1
    2108:	0c f0       	brlt	.+2      	; 0x210c <_ZN7Arduboy5writeEh+0xd4>
    210a:	66 c0       	rjmp	.+204    	; 0x21d8 <_ZN7Arduboy5writeEh+0x1a0>
  {
    // skip em
  }
  else
  {
    drawChar(cursor_x, cursor_y, c, 1, 0, textsize);
    210c:	ab 81       	ldd	r26, Y+3	; 0x03
    210e:	bc 81       	ldd	r27, Y+4	; 0x04
    2110:	4c 90       	ld	r4, X
{
  boolean draw_background = bg != color;

  if ((x >= WIDTH) ||         // Clip right
    (y >= HEIGHT) ||        // Clip bottom
    ((x + 5 * size - 1) < 0) ||   // Clip left
    2112:	45 e0       	ldi	r20, 0x05	; 5
    2114:	94 01       	movw	r18, r8
    2116:	44 9e       	mul	r4, r20
    2118:	20 0d       	add	r18, r0
    211a:	31 1d       	adc	r19, r1
    211c:	11 24       	eor	r1, r1
(int16_t x, int16_t y, unsigned char c, uint8_t color, uint8_t bg, uint8_t size)
{
  boolean draw_background = bg != color;

  if ((x >= WIDTH) ||         // Clip right
    (y >= HEIGHT) ||        // Clip bottom
    211e:	12 16       	cp	r1, r18
    2120:	13 06       	cpc	r1, r19
    2122:	0c f0       	brlt	.+2      	; 0x2126 <_ZN7Arduboy5writeEh+0xee>
    2124:	59 c0       	rjmp	.+178    	; 0x21d8 <_ZN7Arduboy5writeEh+0x1a0>
    ((x + 5 * size - 1) < 0) ||   // Clip left
    ((y + 8 * size - 1) < 0)    // Clip top
    2126:	24 2c       	mov	r2, r4
    2128:	31 2c       	mov	r3, r1
    212a:	91 01       	movw	r18, r2
    212c:	53 e0       	ldi	r21, 0x03	; 3
    212e:	22 0f       	add	r18, r18
    2130:	33 1f       	adc	r19, r19
    2132:	5a 95       	dec	r21
    2134:	e1 f7       	brne	.-8      	; 0x212e <_ZN7Arduboy5writeEh+0xf6>
    2136:	26 0d       	add	r18, r6
    2138:	37 1d       	adc	r19, r7
{
  boolean draw_background = bg != color;

  if ((x >= WIDTH) ||         // Clip right
    (y >= HEIGHT) ||        // Clip bottom
    ((x + 5 * size - 1) < 0) ||   // Clip left
    213a:	12 16       	cp	r1, r18
    213c:	13 06       	cpc	r1, r19
    213e:	0c f0       	brlt	.+2      	; 0x2142 <_ZN7Arduboy5writeEh+0x10a>
    2140:	4b c0       	rjmp	.+150    	; 0x21d8 <_ZN7Arduboy5writeEh+0x1a0>
    {
      line = 0x0;
    }
    else
    {
      line = pgm_read_byte(font+(c*5)+i);
    2142:	64 9f       	mul	r22, r20
    2144:	b0 01       	movw	r22, r0
    2146:	11 24       	eor	r1, r1
    2148:	10 e0       	ldi	r17, 0x00	; 0
    214a:	00 e0       	ldi	r16, 0x00	; 0
    214c:	fb 01       	movw	r30, r22
    214e:	e8 58       	subi	r30, 0x88	; 136
    2150:	f6 4f       	sbci	r31, 0xF6	; 246
    2152:	fb 87       	std	Y+11, r31	; 0x0b
    2154:	ea 87       	std	Y+10, r30	; 0x0a
  for (int8_t i=0; i<6; i++ )
  {
    uint8_t line;
    if (i == 5)
    {
      line = 0x0;
    2156:	e0 e0       	ldi	r30, 0x00	; 0
  }

  for (int8_t i=0; i<6; i++ )
  {
    uint8_t line;
    if (i == 5)
    2158:	05 30       	cpi	r16, 0x05	; 5
    215a:	29 f0       	breq	.+10     	; 0x2166 <_ZN7Arduboy5writeEh+0x12e>
    {
      line = 0x0;
    }
    else
    {
      line = pgm_read_byte(font+(c*5)+i);
    215c:	ea 85       	ldd	r30, Y+10	; 0x0a
    215e:	fb 85       	ldd	r31, Y+11	; 0x0b
    2160:	e0 0f       	add	r30, r16
    2162:	f1 1f       	adc	r31, r17
    2164:	e4 91       	lpm	r30, Z
    2166:	53 01       	movw	r10, r6
  for (int8_t i=0; i<6; i++ )
  {
    uint8_t line;
    if (i == 5)
    {
      line = 0x0;
    2168:	98 e0       	ldi	r25, 0x08	; 8
    216a:	59 2e       	mov	r5, r25
      line = pgm_read_byte(font+(c*5)+i);
    }

    for (int8_t j = 0; j<8; j++)
    {
      uint8_t draw_color = (line & 0x1) ? color : bg;
    216c:	2e 2f       	mov	r18, r30
    216e:	30 e0       	ldi	r19, 0x00	; 0
    2170:	3e 83       	std	Y+6, r19	; 0x06
    2172:	2d 83       	std	Y+5, r18	; 0x05
    2174:	e1 70       	andi	r30, 0x01	; 1
    2176:	ef 83       	std	Y+7, r30	; 0x07
    2178:	f1 2c       	mov	r15, r1
    217a:	e1 2c       	mov	r14, r1

      if (draw_color || draw_background) {
        for (uint8_t a = 0; a < size; a++ ) {
    217c:	e4 14       	cp	r14, r4
    217e:	d8 f4       	brcc	.+54     	; 0x21b6 <_ZN7Arduboy5writeEh+0x17e>
    2180:	c4 01       	movw	r24, r8
    2182:	8e 0d       	add	r24, r14
    2184:	9f 1d       	adc	r25, r15
    2186:	99 87       	std	Y+9, r25	; 0x09
    2188:	88 87       	std	Y+8, r24	; 0x08
    218a:	d1 2c       	mov	r13, r1
    218c:	c1 2c       	mov	r12, r1
          for (uint8_t b = 0; b < size; b++ ) {
    218e:	c4 14       	cp	r12, r4
    2190:	70 f4       	brcc	.+28     	; 0x21ae <_ZN7Arduboy5writeEh+0x176>
            drawPixel(x + (i * size) + a, y + (j * size) + b, draw_color);
    2192:	a6 01       	movw	r20, r12
    2194:	4a 0d       	add	r20, r10
    2196:	5b 1d       	adc	r21, r11
    2198:	2f 81       	ldd	r18, Y+7	; 0x07
    219a:	68 85       	ldd	r22, Y+8	; 0x08
    219c:	79 85       	ldd	r23, Y+9	; 0x09
    219e:	8c 85       	ldd	r24, Y+12	; 0x0c
    21a0:	9d 85       	ldd	r25, Y+13	; 0x0d
    21a2:	0e 94 f8 0f 	call	0x1ff0	; 0x1ff0 <_ZN7Arduboy9drawPixelEiih>
    21a6:	9f ef       	ldi	r25, 0xFF	; 255
    21a8:	c9 1a       	sub	r12, r25
    21aa:	d9 0a       	sbc	r13, r25
    21ac:	f0 cf       	rjmp	.-32     	; 0x218e <_ZN7Arduboy5writeEh+0x156>
    21ae:	af ef       	ldi	r26, 0xFF	; 255
    21b0:	ea 1a       	sub	r14, r26
    21b2:	fa 0a       	sbc	r15, r26
    21b4:	e3 cf       	rjmp	.-58     	; 0x217c <_ZN7Arduboy5writeEh+0x144>
          }
        }
      }
      line >>= 1;
    21b6:	ed 81       	ldd	r30, Y+5	; 0x05
    21b8:	fe 81       	ldd	r31, Y+6	; 0x06
    21ba:	f5 95       	asr	r31
    21bc:	e7 95       	ror	r30
    21be:	5a 94       	dec	r5
    21c0:	a2 0c       	add	r10, r2
    21c2:	b3 1c       	adc	r11, r3
    else
    {
      line = pgm_read_byte(font+(c*5)+i);
    }

    for (int8_t j = 0; j<8; j++)
    21c4:	51 10       	cpse	r5, r1
    21c6:	d2 cf       	rjmp	.-92     	; 0x216c <_ZN7Arduboy5writeEh+0x134>
    21c8:	0f 5f       	subi	r16, 0xFF	; 255
    21ca:	1f 4f       	sbci	r17, 0xFF	; 255
    21cc:	82 0c       	add	r8, r2
    21ce:	93 1c       	adc	r9, r3
  )
  {
    return;
  }

  for (int8_t i=0; i<6; i++ )
    21d0:	06 30       	cpi	r16, 0x06	; 6
    21d2:	11 05       	cpc	r17, r1
    21d4:	09 f0       	breq	.+2      	; 0x21d8 <_ZN7Arduboy5writeEh+0x1a0>
    21d6:	bf cf       	rjmp	.-130    	; 0x2156 <_ZN7Arduboy5writeEh+0x11e>
    // skip em
  }
  else
  {
    drawChar(cursor_x, cursor_y, c, 1, 0, textsize);
    cursor_x += textsize*6;
    21d8:	eb 81       	ldd	r30, Y+3	; 0x03
    21da:	fc 81       	ldd	r31, Y+4	; 0x04
    21dc:	20 81       	ld	r18, Z
    21de:	42 2f       	mov	r20, r18
    21e0:	50 e0       	ldi	r21, 0x00	; 0
    21e2:	a9 81       	ldd	r26, Y+1	; 0x01
    21e4:	ba 81       	ldd	r27, Y+2	; 0x02
    21e6:	8d 91       	ld	r24, X+
    21e8:	9c 91       	ld	r25, X
    21ea:	b6 e0       	ldi	r27, 0x06	; 6
    21ec:	2b 9f       	mul	r18, r27
    21ee:	80 0d       	add	r24, r0
    21f0:	91 1d       	adc	r25, r1
    21f2:	11 24       	eor	r1, r1
    21f4:	e9 81       	ldd	r30, Y+1	; 0x01
    21f6:	fa 81       	ldd	r31, Y+2	; 0x02
    21f8:	91 83       	std	Z+1, r25	; 0x01
    21fa:	80 83       	st	Z, r24
    if (wrap && (cursor_x > (WIDTH - textsize*6)))
    21fc:	ec 85       	ldd	r30, Y+12	; 0x0c
    21fe:	fd 85       	ldd	r31, Y+13	; 0x0d
    2200:	e7 5e       	subi	r30, 0xE7	; 231
    2202:	fb 4f       	sbci	r31, 0xFB	; 251
    2204:	20 81       	ld	r18, Z
    2206:	22 23       	and	r18, r18
    2208:	09 f4       	brne	.+2      	; 0x220c <_ZN7Arduboy5writeEh+0x1d4>
    220a:	46 cf       	rjmp	.-372    	; 0x2098 <_ZN7Arduboy5writeEh+0x60>
    220c:	6a ef       	ldi	r22, 0xFA	; 250
    220e:	64 03       	mulsu	r22, r20
    2210:	90 01       	movw	r18, r0
    2212:	65 9f       	mul	r22, r21
    2214:	30 0d       	add	r19, r0
    2216:	11 24       	eor	r1, r1
    2218:	20 58       	subi	r18, 0x80	; 128
    221a:	3f 4f       	sbci	r19, 0xFF	; 255
    221c:	28 17       	cp	r18, r24
    221e:	39 07       	cpc	r19, r25
    2220:	0c f0       	brlt	.+2      	; 0x2224 <_ZN7Arduboy5writeEh+0x1ec>
    2222:	3a cf       	rjmp	.-396    	; 0x2098 <_ZN7Arduboy5writeEh+0x60>
    {
      // calling ourselves recursively for 'newline' is 
      // 12 bytes smaller than doing the same math here
      write('\n');
    2224:	ac 85       	ldd	r26, Y+12	; 0x0c
    2226:	bd 85       	ldd	r27, Y+13	; 0x0d
    2228:	ed 91       	ld	r30, X+
    222a:	fc 91       	ld	r31, X
    222c:	11 97       	sbiw	r26, 0x01	; 1
    222e:	01 90       	ld	r0, Z+
    2230:	f0 81       	ld	r31, Z
    2232:	e0 2d       	mov	r30, r0
    2234:	6a e0       	ldi	r22, 0x0A	; 10
    2236:	cd 01       	movw	r24, r26
    }
  }
}
    2238:	2d 96       	adiw	r28, 0x0d	; 13
    223a:	0f b6       	in	r0, 0x3f	; 63
    223c:	f8 94       	cli
    223e:	de bf       	out	0x3e, r29	; 62
    2240:	0f be       	out	0x3f, r0	; 63
    2242:	cd bf       	out	0x3d, r28	; 61
    2244:	df 91       	pop	r29
    2246:	cf 91       	pop	r28
    2248:	1f 91       	pop	r17
    224a:	0f 91       	pop	r16
    224c:	ff 90       	pop	r15
    224e:	ef 90       	pop	r14
    2250:	df 90       	pop	r13
    2252:	cf 90       	pop	r12
    2254:	bf 90       	pop	r11
    2256:	af 90       	pop	r10
    2258:	9f 90       	pop	r9
    225a:	8f 90       	pop	r8
    225c:	7f 90       	pop	r7
    225e:	6f 90       	pop	r6
    2260:	5f 90       	pop	r5
    2262:	4f 90       	pop	r4
    2264:	3f 90       	pop	r3
    2266:	2f 90       	pop	r2
    cursor_x += textsize*6;
    if (wrap && (cursor_x > (WIDTH - textsize*6)))
    {
      // calling ourselves recursively for 'newline' is 
      // 12 bytes smaller than doing the same math here
      write('\n');
    2268:	09 94       	ijmp

0000226a <_ZL10playSound2v>:
    arduboy.playScore2(sound1, 255);
}

static void playSound2(void)
{
    arduboy.playScore2(sound2, 255);
    226a:	6f ef       	ldi	r22, 0xFF	; 255
    226c:	82 e7       	ldi	r24, 0x72	; 114
    226e:	99 e0       	ldi	r25, 0x09	; 9
    2270:	0c 94 ab 0f 	jmp	0x1f56	; 0x1f56 <_ZN9MyArduboy10playScore2EPKhh.constprop.29>

00002274 <_Z10updateLogov>:

bool updateLogo(void)
{
    2274:	cf 93       	push	r28
    2276:	df 93       	push	r29
    counter--;
    2278:	d0 91 fa 02 	lds	r29, 0x02FA	; 0x8002fa <_ZL7counter.lto_priv.56>
    227c:	d1 50       	subi	r29, 0x01	; 1
    227e:	d0 93 fa 02 	sts	0x02FA, r29	; 0x8002fa <_ZL7counter.lto_priv.56>
    signalOn = (SIGNAL_PTN >> (counter - 15) / 3) & 1;
    2282:	2d 2f       	mov	r18, r29
    2284:	2f 50       	subi	r18, 0x0F	; 15
    2286:	33 0b       	sbc	r19, r19
    2288:	c9 01       	movw	r24, r18
    228a:	63 e0       	ldi	r22, 0x03	; 3
    228c:	70 e0       	ldi	r23, 0x00	; 0
    228e:	0e 94 77 29 	call	0x52ee	; 0x52ee <__divmodhi4>
    2292:	8a e3       	ldi	r24, 0x3A	; 58
    2294:	9a ea       	ldi	r25, 0xAA	; 170
    2296:	a3 ee       	ldi	r26, 0xE3	; 227
    2298:	be ee       	ldi	r27, 0xEE	; 238
    229a:	04 c0       	rjmp	.+8      	; 0x22a4 <_Z10updateLogov+0x30>
    229c:	b6 95       	lsr	r27
    229e:	a7 95       	ror	r26
    22a0:	97 95       	ror	r25
    22a2:	87 95       	ror	r24
    22a4:	6a 95       	dec	r22
    22a6:	d2 f7       	brpl	.-12     	; 0x229c <_Z10updateLogov+0x28>
    22a8:	c8 2f       	mov	r28, r24
    22aa:	c1 70       	andi	r28, 0x01	; 1
    22ac:	c0 93 b4 02 	sts	0x02B4, r28	; 0x8002b4 <_ZL8signalOn>

void ArduboyCore::setRGBled(uint8_t red, uint8_t green, uint8_t blue)
{
#ifdef ARDUBOY_10 // RGB, all the pretty colors
  // inversion is necessary because these are common annode LEDs
  analogWrite(RED_LED, 255 - red);
    22b0:	6f ef       	ldi	r22, 0xFF	; 255
    22b2:	70 e0       	ldi	r23, 0x00	; 0
    22b4:	8a e0       	ldi	r24, 0x0A	; 10
    22b6:	0e 94 d4 0c 	call	0x19a8	; 0x19a8 <analogWrite>
  analogWrite(GREEN_LED, 255 - green);
    22ba:	6f ef       	ldi	r22, 0xFF	; 255
    22bc:	70 e0       	ldi	r23, 0x00	; 0
    22be:	8b e0       	ldi	r24, 0x0B	; 11
    22c0:	0e 94 d4 0c 	call	0x19a8	; 0x19a8 <analogWrite>
    arduboy.setRGBled(0, 0, signalOn * 127);
    22c4:	8f e7       	ldi	r24, 0x7F	; 127
    22c6:	c8 9f       	mul	r28, r24
    22c8:	80 2d       	mov	r24, r0
    22ca:	11 24       	eor	r1, r1
  analogWrite(BLUE_LED, 255 - blue);
    22cc:	6f ef       	ldi	r22, 0xFF	; 255
    22ce:	70 e0       	ldi	r23, 0x00	; 0
    22d0:	68 1b       	sub	r22, r24
    22d2:	71 09       	sbc	r23, r1
    22d4:	89 e0       	ldi	r24, 0x09	; 9
    22d6:	0e 94 d4 0c 	call	0x19a8	; 0x19a8 <analogWrite>
    return (counter <= 0);
    22da:	81 e0       	ldi	r24, 0x01	; 1
    22dc:	d1 11       	cpse	r29, r1
    22de:	80 e0       	ldi	r24, 0x00	; 0
}
    22e0:	df 91       	pop	r29
    22e2:	cf 91       	pop	r28
    22e4:	08 95       	ret

000022e6 <_ZL15drawScoreFigureiii>:
{
    arduboy.drawBitmap(x, y, imgPlayer + (dir * 4 + anim) * 8, 8, 8, WHITE);
}

static void drawScoreFigure(int x, int y, int value)
{
    22e6:	cf 92       	push	r12
    22e8:	df 92       	push	r13
    22ea:	ef 92       	push	r14
    22ec:	0f 93       	push	r16
    22ee:	1f 93       	push	r17
    22f0:	cf 93       	push	r28
    22f2:	df 93       	push	r29
    22f4:	ec 01       	movw	r28, r24
    22f6:	6b 01       	movw	r12, r22
    22f8:	8a 01       	movw	r16, r20
    if (value > 9) {
    22fa:	4a 30       	cpi	r20, 0x0A	; 10
    22fc:	51 05       	cpc	r21, r1
    22fe:	5c f0       	brlt	.+22     	; 0x2316 <_ZL15drawScoreFigureiii+0x30>
        drawScoreFigure(x - 10, y, value / 10);
    2300:	ca 01       	movw	r24, r20
    2302:	6a e0       	ldi	r22, 0x0A	; 10
    2304:	70 e0       	ldi	r23, 0x00	; 0
    2306:	0e 94 77 29 	call	0x52ee	; 0x52ee <__divmodhi4>
    230a:	ab 01       	movw	r20, r22
    230c:	b6 01       	movw	r22, r12
    230e:	ce 01       	movw	r24, r28
    2310:	0a 97       	sbiw	r24, 0x0a	; 10
    2312:	0e 94 73 11 	call	0x22e6	; 0x22e6 <_ZL15drawScoreFigureiii>
    }
    arduboy.drawBitmap(x, y, imgNumber + (value % 10) * 16, 8, 16, WHITE);
    2316:	c8 01       	movw	r24, r16
    2318:	6a e0       	ldi	r22, 0x0A	; 10
    231a:	70 e0       	ldi	r23, 0x00	; 0
    231c:	0e 94 77 29 	call	0x52ee	; 0x52ee <__divmodhi4>
    2320:	ac 01       	movw	r20, r24
    2322:	84 e0       	ldi	r24, 0x04	; 4
    2324:	44 0f       	add	r20, r20
    2326:	55 1f       	adc	r21, r21
    2328:	8a 95       	dec	r24
    232a:	e1 f7       	brne	.-8      	; 0x2324 <_ZL15drawScoreFigureiii+0x3e>
    232c:	4b 5b       	subi	r20, 0xBB	; 187
    232e:	5b 4f       	sbci	r21, 0xFB	; 251
    2330:	ee 24       	eor	r14, r14
    2332:	e3 94       	inc	r14
    2334:	00 e1       	ldi	r16, 0x10	; 16
    2336:	28 e0       	ldi	r18, 0x08	; 8
    2338:	b6 01       	movw	r22, r12
    233a:	ce 01       	movw	r24, r28
    233c:	0e 94 31 09 	call	0x1262	; 0x1262 <_ZN7Arduboy10drawBitmapEiiPKhhhh.constprop.28>
}
    2340:	df 91       	pop	r29
    2342:	cf 91       	pop	r28
    2344:	1f 91       	pop	r17
    2346:	0f 91       	pop	r16
    2348:	ef 90       	pop	r14
    234a:	df 90       	pop	r13
    234c:	cf 90       	pop	r12
    234e:	08 95       	ret

00002350 <_ZN9MyArduboy5writeEh>:
    setCursor(x, y);
    return print(p);
}

size_t MyArduboy::write(uint8_t c)
{
    2350:	2f 92       	push	r2
    2352:	3f 92       	push	r3
    2354:	4f 92       	push	r4
    2356:	5f 92       	push	r5
    2358:	6f 92       	push	r6
    235a:	7f 92       	push	r7
    235c:	8f 92       	push	r8
    235e:	9f 92       	push	r9
    2360:	af 92       	push	r10
    2362:	bf 92       	push	r11
    2364:	cf 92       	push	r12
    2366:	df 92       	push	r13
    2368:	ef 92       	push	r14
    236a:	ff 92       	push	r15
    236c:	0f 93       	push	r16
    236e:	1f 93       	push	r17
    2370:	cf 93       	push	r28
    2372:	df 93       	push	r29
    2374:	cd b7       	in	r28, 0x3d	; 61
    2376:	de b7       	in	r29, 0x3e	; 62
    2378:	2f 97       	sbiw	r28, 0x0f	; 15
    237a:	0f b6       	in	r0, 0x3f	; 63
    237c:	f8 94       	cli
    237e:	de bf       	out	0x3e, r29	; 62
    2380:	0f be       	out	0x3f, r0	; 63
    2382:	cd bf       	out	0x3d, r28	; 61
    if (c == '\n') {
    2384:	6a 30       	cpi	r22, 0x0A	; 10
    2386:	71 f5       	brne	.+92     	; 0x23e4 <_ZN9MyArduboy5writeEh+0x94>
        cursor_y += textSize * 6;
    2388:	fc 01       	movw	r30, r24
    238a:	ea 5e       	subi	r30, 0xEA	; 234
    238c:	fb 4f       	sbci	r31, 0xFB	; 251
    238e:	dc 01       	movw	r26, r24
    2390:	a8 5e       	subi	r26, 0xE8	; 232
    2392:	bb 4f       	sbci	r27, 0xFB	; 251
    2394:	4c 91       	ld	r20, X
    2396:	20 81       	ld	r18, Z
    2398:	31 81       	ldd	r19, Z+1	; 0x01
    239a:	56 e0       	ldi	r21, 0x06	; 6
    239c:	45 9f       	mul	r20, r21
    239e:	20 0d       	add	r18, r0
    23a0:	31 1d       	adc	r19, r1
    23a2:	11 24       	eor	r1, r1
    23a4:	31 83       	std	Z+1, r19	; 0x01
    23a6:	20 83       	st	Z, r18
        cursor_x = 0;
    23a8:	14 97       	sbiw	r26, 0x04	; 4
    23aa:	1d 92       	st	X+, r1
    23ac:	1c 92       	st	X, r1
        myDrawChar(cursor_x, cursor_y, c, textcolor, textbg, textSize);
        cursor_x += textSize * 6;
        if (textWrap && (cursor_x > (WIDTH - textSize * 6))) write('\n');
    }
    return 1; // temporary
}
    23ae:	81 e0       	ldi	r24, 0x01	; 1
    23b0:	90 e0       	ldi	r25, 0x00	; 0
    23b2:	2f 96       	adiw	r28, 0x0f	; 15
    23b4:	0f b6       	in	r0, 0x3f	; 63
    23b6:	f8 94       	cli
    23b8:	de bf       	out	0x3e, r29	; 62
    23ba:	0f be       	out	0x3f, r0	; 63
    23bc:	cd bf       	out	0x3d, r28	; 61
    23be:	df 91       	pop	r29
    23c0:	cf 91       	pop	r28
    23c2:	1f 91       	pop	r17
    23c4:	0f 91       	pop	r16
    23c6:	ff 90       	pop	r15
    23c8:	ef 90       	pop	r14
    23ca:	df 90       	pop	r13
    23cc:	cf 90       	pop	r12
    23ce:	bf 90       	pop	r11
    23d0:	af 90       	pop	r10
    23d2:	9f 90       	pop	r9
    23d4:	8f 90       	pop	r8
    23d6:	7f 90       	pop	r7
    23d8:	6f 90       	pop	r6
    23da:	5f 90       	pop	r5
    23dc:	4f 90       	pop	r4
    23de:	3f 90       	pop	r3
    23e0:	2f 90       	pop	r2
    23e2:	08 95       	ret
size_t MyArduboy::write(uint8_t c)
{
    if (c == '\n') {
        cursor_y += textSize * 6;
        cursor_x = 0;
    } else if (c >= ' ' && c <= '_') {
    23e4:	20 ee       	ldi	r18, 0xE0	; 224
    23e6:	26 0f       	add	r18, r22
    23e8:	20 34       	cpi	r18, 0x40	; 64
    23ea:	08 f7       	brcc	.-62     	; 0x23ae <_ZN9MyArduboy5writeEh+0x5e>
    23ec:	9f 87       	std	Y+15, r25	; 0x0f
    23ee:	8e 87       	std	Y+14, r24	; 0x0e
        myDrawChar(cursor_x, cursor_y, c, textcolor, textbg, textSize);
    23f0:	8c 5e       	subi	r24, 0xEC	; 236
    23f2:	9b 4f       	sbci	r25, 0xFB	; 251
    23f4:	9e 83       	std	Y+6, r25	; 0x06
    23f6:	8d 83       	std	Y+5, r24	; 0x05
    23f8:	fc 01       	movw	r30, r24
    23fa:	00 81       	ld	r16, Z
    23fc:	11 81       	ldd	r17, Z+1	; 0x01
    23fe:	2e 85       	ldd	r18, Y+14	; 0x0e
    2400:	3f 85       	ldd	r19, Y+15	; 0x0f
    2402:	28 5e       	subi	r18, 0xE8	; 232
    2404:	3b 4f       	sbci	r19, 0xFB	; 251
    2406:	39 87       	std	Y+9, r19	; 0x09
    2408:	28 87       	std	Y+8, r18	; 0x08

void MyArduboy::myDrawChar(int16_t x, int16_t y, unsigned char c, uint8_t color, uint8_t bg, uint8_t size)
{
    bool draw_bg = bg != color;

    if (x >= WIDTH || y >= HEIGHT || x + 5 * size < 0 || y + 6 * size < 0) return;
    240a:	00 38       	cpi	r16, 0x80	; 128
    240c:	11 05       	cpc	r17, r1
    240e:	0c f0       	brlt	.+2      	; 0x2412 <_ZN9MyArduboy5writeEh+0xc2>
    2410:	65 c0       	rjmp	.+202    	; 0x24dc <_ZN9MyArduboy5writeEh+0x18c>
{
    if (c == '\n') {
        cursor_y += textSize * 6;
        cursor_x = 0;
    } else if (c >= ' ' && c <= '_') {
        myDrawChar(cursor_x, cursor_y, c, textcolor, textbg, textSize);
    2412:	ee 85       	ldd	r30, Y+14	; 0x0e
    2414:	ff 85       	ldd	r31, Y+15	; 0x0f
    2416:	ea 5e       	subi	r30, 0xEA	; 234
    2418:	fb 4f       	sbci	r31, 0xFB	; 251
    241a:	80 81       	ld	r24, Z
    241c:	91 81       	ldd	r25, Z+1	; 0x01
    241e:	9b 83       	std	Y+3, r25	; 0x03
    2420:	8a 83       	std	Y+2, r24	; 0x02

void MyArduboy::myDrawChar(int16_t x, int16_t y, unsigned char c, uint8_t color, uint8_t bg, uint8_t size)
{
    bool draw_bg = bg != color;

    if (x >= WIDTH || y >= HEIGHT || x + 5 * size < 0 || y + 6 * size < 0) return;
    2422:	80 34       	cpi	r24, 0x40	; 64
    2424:	91 05       	cpc	r25, r1
    2426:	0c f0       	brlt	.+2      	; 0x242a <_ZN9MyArduboy5writeEh+0xda>
    2428:	59 c0       	rjmp	.+178    	; 0x24dc <_ZN9MyArduboy5writeEh+0x18c>
{
    if (c == '\n') {
        cursor_y += textSize * 6;
        cursor_x = 0;
    } else if (c >= ' ' && c <= '_') {
        myDrawChar(cursor_x, cursor_y, c, textcolor, textbg, textSize);
    242a:	d9 01       	movw	r26, r18
    242c:	8c 91       	ld	r24, X
    242e:	48 2e       	mov	r4, r24
    2430:	51 2c       	mov	r5, r1

void MyArduboy::myDrawChar(int16_t x, int16_t y, unsigned char c, uint8_t color, uint8_t bg, uint8_t size)
{
    bool draw_bg = bg != color;

    if (x >= WIDTH || y >= HEIGHT || x + 5 * size < 0 || y + 6 * size < 0) return;
    2432:	98 01       	movw	r18, r16
    2434:	b5 e0       	ldi	r27, 0x05	; 5
    2436:	8b 9f       	mul	r24, r27
    2438:	20 0d       	add	r18, r0
    243a:	31 1d       	adc	r19, r1
    243c:	11 24       	eor	r1, r1
    243e:	37 fd       	sbrc	r19, 7
    2440:	4d c0       	rjmp	.+154    	; 0x24dc <_ZN9MyArduboy5writeEh+0x18c>
    2442:	2a 81       	ldd	r18, Y+2	; 0x02
    2444:	3b 81       	ldd	r19, Y+3	; 0x03
    2446:	e6 e0       	ldi	r30, 0x06	; 6
    2448:	8e 9f       	mul	r24, r30
    244a:	20 0d       	add	r18, r0
    244c:	31 1d       	adc	r19, r1
    244e:	11 24       	eor	r1, r1
    2450:	37 fd       	sbrc	r19, 7
    2452:	44 c0       	rjmp	.+136    	; 0x24dc <_ZN9MyArduboy5writeEh+0x18c>
{
    if (c == '\n') {
        cursor_y += textSize * 6;
        cursor_x = 0;
    } else if (c >= ' ' && c <= '_') {
        myDrawChar(cursor_x, cursor_y, c, textcolor, textbg, textSize);
    2454:	ee 85       	ldd	r30, Y+14	; 0x0e
    2456:	ff 85       	ldd	r31, Y+15	; 0x0f
    2458:	e5 5e       	subi	r30, 0xE5	; 229
    245a:	fb 4f       	sbci	r31, 0xFB	; 251
    245c:	70 80       	ld	r7, Z
    245e:	ee 85       	ldd	r30, Y+14	; 0x0e
    2460:	ff 85       	ldd	r31, Y+15	; 0x0f
    2462:	e6 5e       	subi	r30, 0xE6	; 230
    2464:	fb 4f       	sbci	r31, 0xFB	; 251
    2466:	60 80       	ld	r6, Z
void MyArduboy::myDrawChar(int16_t x, int16_t y, unsigned char c, uint8_t color, uint8_t bg, uint8_t size)
{
    bool draw_bg = bg != color;

    if (x >= WIDTH || y >= HEIGHT || x + 5 * size < 0 || y + 6 * size < 0) return;
    uint32_t ptn = pgm_read_dword(imgFont + (c - ' '));
    2468:	24 e0       	ldi	r18, 0x04	; 4
    246a:	62 9f       	mul	r22, r18
    246c:	f0 01       	movw	r30, r0
    246e:	11 24       	eor	r1, r1
    2470:	e9 53       	subi	r30, 0x39	; 57
    2472:	ff 4f       	sbci	r31, 0xFF	; 255
    2474:	85 90       	lpm	r8, Z+
    2476:	95 90       	lpm	r9, Z+
    2478:	a5 90       	lpm	r10, Z+
    247a:	b4 90       	lpm	r11, Z
    if (size == 1) {
    247c:	81 30       	cpi	r24, 0x01	; 1
    247e:	09 f0       	breq	.+2      	; 0x2482 <_ZN9MyArduboy5writeEh+0x132>
    2480:	5f c0       	rjmp	.+190    	; 0x2540 <_ZN9MyArduboy5writeEh+0x1f0>
    2482:	26 e0       	ldi	r18, 0x06	; 6
    2484:	d2 2e       	mov	r13, r18
    2486:	f1 2c       	mov	r15, r1
    2488:	e1 2c       	mov	r14, r1
        for (int8_t i = 0; i < 6; i++) {
            for (int8_t j = 0; j < 6; j++) {
                bool draw_fg = ptn & 0x1;
                if (draw_fg || draw_bg) {
    248a:	d5 01       	movw	r26, r10
    248c:	c4 01       	movw	r24, r8
    248e:	81 70       	andi	r24, 0x01	; 1
    2490:	99 27       	eor	r25, r25
    2492:	aa 27       	eor	r26, r26
    2494:	bb 27       	eor	r27, r27
    2496:	80 fc       	sbrc	r8, 0
    2498:	02 c0       	rjmp	.+4      	; 0x249e <_ZN9MyArduboy5writeEh+0x14e>
    249a:	76 14       	cp	r7, r6
    249c:	79 f0       	breq	.+30     	; 0x24bc <_ZN9MyArduboy5writeEh+0x16c>
{
    if (c == '\n') {
        cursor_y += textSize * 6;
        cursor_x = 0;
    } else if (c >= ' ' && c <= '_') {
        myDrawChar(cursor_x, cursor_y, c, textcolor, textbg, textSize);
    249e:	26 2d       	mov	r18, r6
    if (size == 1) {
        for (int8_t i = 0; i < 6; i++) {
            for (int8_t j = 0; j < 6; j++) {
                bool draw_fg = ptn & 0x1;
                if (draw_fg || draw_bg) {
                    drawPixel(x + i, y + j, (draw_fg) ? color : bg);
    24a0:	89 2b       	or	r24, r25
    24a2:	8a 2b       	or	r24, r26
    24a4:	8b 2b       	or	r24, r27
    24a6:	09 f4       	brne	.+2      	; 0x24aa <_ZN9MyArduboy5writeEh+0x15a>
{
    if (c == '\n') {
        cursor_y += textSize * 6;
        cursor_x = 0;
    } else if (c >= ' ' && c <= '_') {
        myDrawChar(cursor_x, cursor_y, c, textcolor, textbg, textSize);
    24a8:	27 2d       	mov	r18, r7
    if (size == 1) {
        for (int8_t i = 0; i < 6; i++) {
            for (int8_t j = 0; j < 6; j++) {
                bool draw_fg = ptn & 0x1;
                if (draw_fg || draw_bg) {
                    drawPixel(x + i, y + j, (draw_fg) ? color : bg);
    24aa:	4a 81       	ldd	r20, Y+2	; 0x02
    24ac:	5b 81       	ldd	r21, Y+3	; 0x03
    24ae:	4e 0d       	add	r20, r14
    24b0:	5f 1d       	adc	r21, r15
    24b2:	b8 01       	movw	r22, r16
    24b4:	8e 85       	ldd	r24, Y+14	; 0x0e
    24b6:	9f 85       	ldd	r25, Y+15	; 0x0f
    24b8:	0e 94 f8 0f 	call	0x1ff0	; 0x1ff0 <_ZN7Arduboy9drawPixelEiih>
                }
                ptn >>= 1;
    24bc:	b6 94       	lsr	r11
    24be:	a7 94       	ror	r10
    24c0:	97 94       	ror	r9
    24c2:	87 94       	ror	r8
    24c4:	3f ef       	ldi	r19, 0xFF	; 255
    24c6:	e3 1a       	sub	r14, r19
    24c8:	f3 0a       	sbc	r15, r19

    if (x >= WIDTH || y >= HEIGHT || x + 5 * size < 0 || y + 6 * size < 0) return;
    uint32_t ptn = pgm_read_dword(imgFont + (c - ' '));
    if (size == 1) {
        for (int8_t i = 0; i < 6; i++) {
            for (int8_t j = 0; j < 6; j++) {
    24ca:	56 e0       	ldi	r21, 0x06	; 6
    24cc:	e5 16       	cp	r14, r21
    24ce:	f1 04       	cpc	r15, r1
    24d0:	e1 f6       	brne	.-72     	; 0x248a <_ZN9MyArduboy5writeEh+0x13a>
    24d2:	da 94       	dec	r13
    24d4:	0f 5f       	subi	r16, 0xFF	; 255
    24d6:	1f 4f       	sbci	r17, 0xFF	; 255
    bool draw_bg = bg != color;

    if (x >= WIDTH || y >= HEIGHT || x + 5 * size < 0 || y + 6 * size < 0) return;
    uint32_t ptn = pgm_read_dword(imgFont + (c - ' '));
    if (size == 1) {
        for (int8_t i = 0; i < 6; i++) {
    24d8:	d1 10       	cpse	r13, r1
    24da:	d5 cf       	rjmp	.-86     	; 0x2486 <_ZN9MyArduboy5writeEh+0x136>
    if (c == '\n') {
        cursor_y += textSize * 6;
        cursor_x = 0;
    } else if (c >= ' ' && c <= '_') {
        myDrawChar(cursor_x, cursor_y, c, textcolor, textbg, textSize);
        cursor_x += textSize * 6;
    24dc:	a8 85       	ldd	r26, Y+8	; 0x08
    24de:	b9 85       	ldd	r27, Y+9	; 0x09
    24e0:	2c 91       	ld	r18, X
    24e2:	42 2f       	mov	r20, r18
    24e4:	50 e0       	ldi	r21, 0x00	; 0
    24e6:	ed 81       	ldd	r30, Y+5	; 0x05
    24e8:	fe 81       	ldd	r31, Y+6	; 0x06
    24ea:	80 81       	ld	r24, Z
    24ec:	91 81       	ldd	r25, Z+1	; 0x01
    24ee:	f6 e0       	ldi	r31, 0x06	; 6
    24f0:	2f 9f       	mul	r18, r31
    24f2:	80 0d       	add	r24, r0
    24f4:	91 1d       	adc	r25, r1
    24f6:	11 24       	eor	r1, r1
    24f8:	ad 81       	ldd	r26, Y+5	; 0x05
    24fa:	be 81       	ldd	r27, Y+6	; 0x06
    24fc:	8d 93       	st	X+, r24
    24fe:	9c 93       	st	X, r25
        if (textWrap && (cursor_x > (WIDTH - textSize * 6))) write('\n');
    2500:	ee 85       	ldd	r30, Y+14	; 0x0e
    2502:	ff 85       	ldd	r31, Y+15	; 0x0f
    2504:	e7 5e       	subi	r30, 0xE7	; 231
    2506:	fb 4f       	sbci	r31, 0xFB	; 251
    2508:	20 81       	ld	r18, Z
    250a:	22 23       	and	r18, r18
    250c:	09 f4       	brne	.+2      	; 0x2510 <_ZN9MyArduboy5writeEh+0x1c0>
    250e:	4f cf       	rjmp	.-354    	; 0x23ae <_ZN9MyArduboy5writeEh+0x5e>
    2510:	6a ef       	ldi	r22, 0xFA	; 250
    2512:	64 03       	mulsu	r22, r20
    2514:	90 01       	movw	r18, r0
    2516:	65 9f       	mul	r22, r21
    2518:	30 0d       	add	r19, r0
    251a:	11 24       	eor	r1, r1
    251c:	20 58       	subi	r18, 0x80	; 128
    251e:	3f 4f       	sbci	r19, 0xFF	; 255
    2520:	28 17       	cp	r18, r24
    2522:	39 07       	cpc	r19, r25
    2524:	0c f0       	brlt	.+2      	; 0x2528 <_ZN9MyArduboy5writeEh+0x1d8>
    2526:	43 cf       	rjmp	.-378    	; 0x23ae <_ZN9MyArduboy5writeEh+0x5e>
    2528:	ae 85       	ldd	r26, Y+14	; 0x0e
    252a:	bf 85       	ldd	r27, Y+15	; 0x0f
    252c:	ed 91       	ld	r30, X+
    252e:	fc 91       	ld	r31, X
    2530:	11 97       	sbiw	r26, 0x01	; 1
    2532:	01 90       	ld	r0, Z+
    2534:	f0 81       	ld	r31, Z
    2536:	e0 2d       	mov	r30, r0
    2538:	6a e0       	ldi	r22, 0x0A	; 10
    253a:	cd 01       	movw	r24, r26
    253c:	09 95       	icall
    253e:	37 cf       	rjmp	.-402    	; 0x23ae <_ZN9MyArduboy5writeEh+0x5e>
    2540:	18 01       	movw	r2, r16
{
    bool draw_bg = bg != color;

    if (x >= WIDTH || y >= HEIGHT || x + 5 * size < 0 || y + 6 * size < 0) return;
    uint32_t ptn = pgm_read_dword(imgFont + (c - ' '));
    if (size == 1) {
    2542:	86 e0       	ldi	r24, 0x06	; 6
    2544:	89 83       	std	Y+1, r24	; 0x01
    2546:	0a 81       	ldd	r16, Y+2	; 0x02
    2548:	1b 81       	ldd	r17, Y+3	; 0x03
    254a:	96 e0       	ldi	r25, 0x06	; 6
    254c:	9c 83       	std	Y+4, r25	; 0x04

void Arduboy::fillRect
(int16_t x, int16_t y, uint8_t w, uint8_t h, uint8_t color)
{
  // stupidest version - update in subclasses if desired!
  for (int16_t i=x; i<x+w; i++)
    254e:	d1 01       	movw	r26, r2
    2550:	a4 0d       	add	r26, r4
    2552:	b5 1d       	adc	r27, r5
    2554:	bd 87       	std	Y+13, r27	; 0x0d
    2556:	ac 87       	std	Y+12, r26	; 0x0c
        }
    } else {
        for (int8_t i = 0; i < 6; i++) {
            for (int8_t j = 0; j < 6; j++) {
                bool draw_fg = ptn & 0x1;
                if (draw_fg || draw_bg) {
    2558:	d5 01       	movw	r26, r10
    255a:	c4 01       	movw	r24, r8
    255c:	81 70       	andi	r24, 0x01	; 1
    255e:	99 27       	eor	r25, r25
    2560:	aa 27       	eor	r26, r26
    2562:	bb 27       	eor	r27, r27
    2564:	80 fc       	sbrc	r8, 0
    2566:	02 c0       	rjmp	.+4      	; 0x256c <_ZN9MyArduboy5writeEh+0x21c>
    2568:	76 14       	cp	r7, r6
    256a:	81 f1       	breq	.+96     	; 0x25cc <_ZN9MyArduboy5writeEh+0x27c>
                    fillRect(x + i * size, y + j * size, size, size, (draw_fg) ? color : bg);
    256c:	89 2b       	or	r24, r25
    256e:	8a 2b       	or	r24, r26
    2570:	8b 2b       	or	r24, r27
    2572:	31 f1       	breq	.+76     	; 0x25c0 <_ZN9MyArduboy5writeEh+0x270>
{
    if (c == '\n') {
        cursor_y += textSize * 6;
        cursor_x = 0;
    } else if (c >= ' ' && c <= '_') {
        myDrawChar(cursor_x, cursor_y, c, textcolor, textbg, textSize);
    2574:	6f 82       	std	Y+7, r6	; 0x07
    2576:	61 01       	movw	r12, r2
}

void Arduboy::drawFastVLine
(int16_t x, int16_t y, uint8_t h, uint8_t color)
{
  int end = y+h;
    2578:	f8 01       	movw	r30, r16
    257a:	e4 0d       	add	r30, r4
    257c:	f5 1d       	adc	r31, r5
    257e:	fb 87       	std	Y+11, r31	; 0x0b
    2580:	ea 87       	std	Y+10, r30	; 0x0a

void Arduboy::fillRect
(int16_t x, int16_t y, uint8_t w, uint8_t h, uint8_t color)
{
  // stupidest version - update in subclasses if desired!
  for (int16_t i=x; i<x+w; i++)
    2582:	2c 85       	ldd	r18, Y+12	; 0x0c
    2584:	3d 85       	ldd	r19, Y+13	; 0x0d
    2586:	c2 16       	cp	r12, r18
    2588:	d3 06       	cpc	r13, r19
    258a:	04 f5       	brge	.+64     	; 0x25cc <_ZN9MyArduboy5writeEh+0x27c>

void Arduboy::drawFastVLine
(int16_t x, int16_t y, uint8_t h, uint8_t color)
{
  int end = y+h;
  for (int a = max(0,y); a < min(end,HEIGHT); a++)
    258c:	78 01       	movw	r14, r16
    258e:	17 ff       	sbrs	r17, 7
    2590:	02 c0       	rjmp	.+4      	; 0x2596 <_ZN9MyArduboy5writeEh+0x246>
    2592:	f1 2c       	mov	r15, r1
    2594:	e1 2c       	mov	r14, r1
    2596:	8a 85       	ldd	r24, Y+10	; 0x0a
    2598:	9b 85       	ldd	r25, Y+11	; 0x0b
    259a:	81 34       	cpi	r24, 0x41	; 65
    259c:	91 05       	cpc	r25, r1
    259e:	14 f0       	brlt	.+4      	; 0x25a4 <_ZN9MyArduboy5writeEh+0x254>
    25a0:	80 e4       	ldi	r24, 0x40	; 64
    25a2:	90 e0       	ldi	r25, 0x00	; 0
    25a4:	e8 16       	cp	r14, r24
    25a6:	f9 06       	cpc	r15, r25
    25a8:	6c f4       	brge	.+26     	; 0x25c4 <_ZN9MyArduboy5writeEh+0x274>
  {
    drawPixel(x,a,color);
    25aa:	2f 81       	ldd	r18, Y+7	; 0x07
    25ac:	a7 01       	movw	r20, r14
    25ae:	b6 01       	movw	r22, r12
    25b0:	8e 85       	ldd	r24, Y+14	; 0x0e
    25b2:	9f 85       	ldd	r25, Y+15	; 0x0f
    25b4:	0e 94 f8 0f 	call	0x1ff0	; 0x1ff0 <_ZN7Arduboy9drawPixelEiih>

void Arduboy::drawFastVLine
(int16_t x, int16_t y, uint8_t h, uint8_t color)
{
  int end = y+h;
  for (int a = max(0,y); a < min(end,HEIGHT); a++)
    25b8:	3f ef       	ldi	r19, 0xFF	; 255
    25ba:	e3 1a       	sub	r14, r19
    25bc:	f3 0a       	sbc	r15, r19
    25be:	eb cf       	rjmp	.-42     	; 0x2596 <_ZN9MyArduboy5writeEh+0x246>
    25c0:	7f 82       	std	Y+7, r7	; 0x07
    25c2:	d9 cf       	rjmp	.-78     	; 0x2576 <_ZN9MyArduboy5writeEh+0x226>

void Arduboy::fillRect
(int16_t x, int16_t y, uint8_t w, uint8_t h, uint8_t color)
{
  // stupidest version - update in subclasses if desired!
  for (int16_t i=x; i<x+w; i++)
    25c4:	5f ef       	ldi	r21, 0xFF	; 255
    25c6:	c5 1a       	sub	r12, r21
    25c8:	d5 0a       	sbc	r13, r21
    25ca:	db cf       	rjmp	.-74     	; 0x2582 <_ZN9MyArduboy5writeEh+0x232>
            for (int8_t j = 0; j < 6; j++) {
                bool draw_fg = ptn & 0x1;
                if (draw_fg || draw_bg) {
                    fillRect(x + i * size, y + j * size, size, size, (draw_fg) ? color : bg);
                }
                ptn >>= 1;
    25cc:	b6 94       	lsr	r11
    25ce:	a7 94       	ror	r10
    25d0:	97 94       	ror	r9
    25d2:	87 94       	ror	r8
    25d4:	8c 81       	ldd	r24, Y+4	; 0x04
    25d6:	81 50       	subi	r24, 0x01	; 1
    25d8:	8c 83       	std	Y+4, r24	; 0x04
    25da:	04 0d       	add	r16, r4
    25dc:	15 1d       	adc	r17, r5
                ptn >>= 1;
            }
        }
    } else {
        for (int8_t i = 0; i < 6; i++) {
            for (int8_t j = 0; j < 6; j++) {
    25de:	81 11       	cpse	r24, r1
    25e0:	bb cf       	rjmp	.-138    	; 0x2558 <_ZN9MyArduboy5writeEh+0x208>
    25e2:	99 81       	ldd	r25, Y+1	; 0x01
    25e4:	91 50       	subi	r25, 0x01	; 1
    25e6:	99 83       	std	Y+1, r25	; 0x01
    25e8:	24 0c       	add	r2, r4
    25ea:	35 1c       	adc	r3, r5
                }
                ptn >>= 1;
            }
        }
    } else {
        for (int8_t i = 0; i < 6; i++) {
    25ec:	91 11       	cpse	r25, r1
    25ee:	ab cf       	rjmp	.-170    	; 0x2546 <_ZN9MyArduboy5writeEh+0x1f6>
    25f0:	75 cf       	rjmp	.-278    	; 0x24dc <_ZN9MyArduboy5writeEh+0x18c>

000025f2 <_ZN5Print5printEPK19__FlashStringHelper.constprop.36>:

size_t Print::print(const __FlashStringHelper *ifsh)
    25f2:	ef 92       	push	r14
    25f4:	ff 92       	push	r15
    25f6:	0f 93       	push	r16
    25f8:	1f 93       	push	r17
    25fa:	cf 93       	push	r28
    25fc:	df 93       	push	r29
    25fe:	8c 01       	movw	r16, r24
    2600:	7b 01       	movw	r14, r22
{
  PGM_P p = reinterpret_cast<PGM_P>(ifsh);
  size_t n = 0;
    2602:	d0 e0       	ldi	r29, 0x00	; 0
    2604:	c0 e0       	ldi	r28, 0x00	; 0
  while (1) {
    unsigned char c = pgm_read_byte(p++);
    2606:	f7 01       	movw	r30, r14
    2608:	ec 0f       	add	r30, r28
    260a:	fd 1f       	adc	r31, r29
    260c:	64 91       	lpm	r22, Z
    if (c == 0) break;
    260e:	66 23       	and	r22, r22
    2610:	39 f0       	breq	.+14     	; 0x2620 <_ZN5Print5printEPK19__FlashStringHelper.constprop.36+0x2e>
    if (write(c)) n++;
    2612:	c8 01       	movw	r24, r16
    2614:	0e 94 a8 11 	call	0x2350	; 0x2350 <_ZN9MyArduboy5writeEh>
    2618:	89 2b       	or	r24, r25
    261a:	11 f0       	breq	.+4      	; 0x2620 <_ZN5Print5printEPK19__FlashStringHelper.constprop.36+0x2e>
    261c:	21 96       	adiw	r28, 0x01	; 1
    261e:	f3 cf       	rjmp	.-26     	; 0x2606 <_ZN5Print5printEPK19__FlashStringHelper.constprop.36+0x14>
    else break;
  }
  return n;
}
    2620:	ce 01       	movw	r24, r28
    2622:	df 91       	pop	r29
    2624:	cf 91       	pop	r28
    2626:	1f 91       	pop	r17
    2628:	0f 91       	pop	r16
    262a:	ff 90       	pop	r15
    262c:	ef 90       	pop	r14
    262e:	08 95       	ret

00002630 <_Z8drawLogov>:

void drawLogo(void)
{
    2630:	8f 92       	push	r8
    2632:	9f 92       	push	r9
    2634:	af 92       	push	r10
    2636:	bf 92       	push	r11
    2638:	cf 92       	push	r12
    263a:	df 92       	push	r13
    263c:	ef 92       	push	r14
    263e:	0f 93       	push	r16
    2640:	cf 93       	push	r28
    2642:	df 93       	push	r29
  clear();
}

void Arduboy::clear()
{
  fillScreen(BLACK);
    2644:	0e 94 52 0a 	call	0x14a4	; 0x14a4 <_ZN7Arduboy10fillScreenEh.constprop.23>
    arduboy.clear();
    int shake = (120 - counter) / 40;
    2648:	20 91 fa 02 	lds	r18, 0x02FA	; 0x8002fa <_ZL7counter.lto_priv.56>
    264c:	88 e7       	ldi	r24, 0x78	; 120
    264e:	90 e0       	ldi	r25, 0x00	; 0
    2650:	82 1b       	sub	r24, r18
    2652:	91 09       	sbc	r25, r1
    2654:	68 e2       	ldi	r22, 0x28	; 40
    2656:	70 e0       	ldi	r23, 0x00	; 0
    2658:	0e 94 77 29 	call	0x52ee	; 0x52ee <__divmodhi4>
    265c:	4b 01       	movw	r8, r22
    265e:	86 e1       	ldi	r24, 0x16	; 22
    2660:	c8 2e       	mov	r12, r24
    2662:	85 e0       	ldi	r24, 0x05	; 5
    2664:	d8 2e       	mov	r13, r24
    2666:	9c e1       	ldi	r25, 0x1C	; 28
    2668:	a9 2e       	mov	r10, r25
    266a:	b1 2c       	mov	r11, r1
    for (int i = 0; i < 3; i++) {
    266c:	d0 e0       	ldi	r29, 0x00	; 0
    266e:	c0 e0       	ldi	r28, 0x00	; 0
        int y = 12 + (i == shake) * signalOn;
    2670:	81 e0       	ldi	r24, 0x01	; 1
    2672:	90 e0       	ldi	r25, 0x00	; 0
    2674:	8c 16       	cp	r8, r28
    2676:	9d 06       	cpc	r9, r29
    2678:	11 f0       	breq	.+4      	; 0x267e <_Z8drawLogov+0x4e>
    267a:	90 e0       	ldi	r25, 0x00	; 0
    267c:	80 e0       	ldi	r24, 0x00	; 0
    267e:	20 91 b4 02 	lds	r18, 0x02B4	; 0x8002b4 <_ZL8signalOn>
    2682:	28 9f       	mul	r18, r24
    2684:	b0 01       	movw	r22, r0
    2686:	29 9f       	mul	r18, r25
    2688:	70 0d       	add	r23, r0
    268a:	11 24       	eor	r1, r1
    268c:	64 5f       	subi	r22, 0xF4	; 244
    268e:	7f 4f       	sbci	r23, 0xFF	; 255
        arduboy.drawBitmap(28 + i * 24, y, imgOBN + i * 96, 24, 32, WHITE);
    2690:	ee 24       	eor	r14, r14
    2692:	e3 94       	inc	r14
    2694:	00 e2       	ldi	r16, 0x20	; 32
    2696:	28 e1       	ldi	r18, 0x18	; 24
    2698:	a6 01       	movw	r20, r12
    269a:	c5 01       	movw	r24, r10
    269c:	0e 94 31 09 	call	0x1262	; 0x1262 <_ZN7Arduboy10drawBitmapEiiPKhhhh.constprop.28>

void drawLogo(void)
{
    arduboy.clear();
    int shake = (120 - counter) / 40;
    for (int i = 0; i < 3; i++) {
    26a0:	21 96       	adiw	r28, 0x01	; 1
    26a2:	88 e1       	ldi	r24, 0x18	; 24
    26a4:	a8 0e       	add	r10, r24
    26a6:	b1 1c       	adc	r11, r1
    26a8:	80 e6       	ldi	r24, 0x60	; 96
    26aa:	c8 0e       	add	r12, r24
    26ac:	d1 1c       	adc	r13, r1
    26ae:	c3 30       	cpi	r28, 0x03	; 3
    26b0:	d1 05       	cpc	r29, r1
    26b2:	f1 f6       	brne	.-68     	; 0x2670 <_Z8drawLogov+0x40>
        int y = 12 + (i == shake) * signalOn;
        arduboy.drawBitmap(28 + i * 24, y, imgOBN + i * 96, 24, 32, WHITE);
    }
    arduboy.drawBitmap(68, 44, imgSoft, 32, 8, WHITE);
    26b4:	08 e0       	ldi	r16, 0x08	; 8
    26b6:	20 e2       	ldi	r18, 0x20	; 32
    26b8:	46 ef       	ldi	r20, 0xF6	; 246
    26ba:	54 e0       	ldi	r21, 0x04	; 4
    26bc:	6c e2       	ldi	r22, 0x2C	; 44
    26be:	70 e0       	ldi	r23, 0x00	; 0
    26c0:	84 e4       	ldi	r24, 0x44	; 68
    26c2:	90 e0       	ldi	r25, 0x00	; 0
    26c4:	0e 94 31 09 	call	0x1262	; 0x1262 <_ZN7Arduboy10drawBitmapEiiPKhhhh.constprop.28>
  }
}

void Arduboy::setCursor(int16_t x, int16_t y)
{
  cursor_x = x;
    26c8:	80 e1       	ldi	r24, 0x10	; 16
    26ca:	90 e0       	ldi	r25, 0x00	; 0
    26cc:	90 93 83 07 	sts	0x0783, r25	; 0x800783 <arduboy+0x415>
    26d0:	80 93 82 07 	sts	0x0782, r24	; 0x800782 <arduboy+0x414>
  cursor_y = y;
    26d4:	8a e3       	ldi	r24, 0x3A	; 58
    26d6:	90 e0       	ldi	r25, 0x00	; 0
    26d8:	90 93 85 07 	sts	0x0785, r25	; 0x800785 <arduboy+0x417>
    26dc:	80 93 84 07 	sts	0x0784, r24	; 0x800784 <arduboy+0x416>
}

size_t MyArduboy::printEx(int16_t x, int16_t y, const __FlashStringHelper *p)
{
    setCursor(x, y);
    return print(p);
    26e0:	65 ee       	ldi	r22, 0xE5	; 229
    26e2:	74 e0       	ldi	r23, 0x04	; 4
    26e4:	8e e6       	ldi	r24, 0x6E	; 110
    26e6:	93 e0       	ldi	r25, 0x03	; 3
    arduboy.printEx(16, 58, F(APP_CODE " VER " APP_VERSION));
}
    26e8:	df 91       	pop	r29
    26ea:	cf 91       	pop	r28
    26ec:	0f 91       	pop	r16
    26ee:	ef 90       	pop	r14
    26f0:	df 90       	pop	r13
    26f2:	cf 90       	pop	r12
    26f4:	bf 90       	pop	r11
    26f6:	af 90       	pop	r10
    26f8:	9f 90       	pop	r9
    26fa:	8f 90       	pop	r8
    26fc:	0c 94 f9 12 	jmp	0x25f2	; 0x25f2 <_ZN5Print5printEPK19__FlashStringHelper.constprop.36>

00002700 <_ZN5Print5flushEv>:
    size_t println(unsigned long, int = DEC);
    size_t println(double, int = 2);
    size_t println(const Printable&);
    size_t println(void);

    virtual void flush() { /* Empty implementation for backward compatibility */ }
    2700:	08 95       	ret

00002702 <_ZN5Print17availableForWriteEv>:
      return write((const uint8_t *)buffer, size);
    }

    // default to zero, meaning "a single write may block"
    // should be overriden by subclasses with buffering
    virtual int availableForWrite() { return 0; }
    2702:	90 e0       	ldi	r25, 0x00	; 0
    2704:	80 e0       	ldi	r24, 0x00	; 0
    2706:	08 95       	ret

00002708 <_ZN5Print5writeEPKc.part.2.constprop.38>:
    void clearWriteError() { setWriteError(0); }
  
    virtual size_t write(uint8_t) = 0;
    size_t write(const char *str) {
      if (str == NULL) return 0;
      return write((const uint8_t *)str, strlen(str));
    2708:	fb 01       	movw	r30, r22
    270a:	01 90       	ld	r0, Z+
    270c:	00 20       	and	r0, r0
    270e:	e9 f7       	brne	.-6      	; 0x270a <_ZN5Print5writeEPKc.part.2.constprop.38+0x2>
    2710:	31 97       	sbiw	r30, 0x01	; 1
    2712:	af 01       	movw	r20, r30
    2714:	46 1b       	sub	r20, r22
    2716:	57 0b       	sbc	r21, r23
    2718:	0c 94 fa 0b 	jmp	0x17f4	; 0x17f4 <_ZN5Print5writeEPKhj>

0000271c <_ZN5Print11printNumberEmh.constprop.27>:
  return n;
}

// Private Methods /////////////////////////////////////////////////////////////

size_t Print::printNumber(unsigned long n, uint8_t base)
    271c:	8f 92       	push	r8
    271e:	9f 92       	push	r9
    2720:	af 92       	push	r10
    2722:	bf 92       	push	r11
    2724:	0f 93       	push	r16
    2726:	1f 93       	push	r17
    2728:	cf 93       	push	r28
    272a:	df 93       	push	r29
    272c:	cd b7       	in	r28, 0x3d	; 61
    272e:	de b7       	in	r29, 0x3e	; 62
    2730:	a1 97       	sbiw	r28, 0x21	; 33
    2732:	0f b6       	in	r0, 0x3f	; 63
    2734:	f8 94       	cli
    2736:	de bf       	out	0x3e, r29	; 62
    2738:	0f be       	out	0x3f, r0	; 63
    273a:	cd bf       	out	0x3d, r28	; 61
{
  char buf[8 * sizeof(long) + 1]; // Assumes 8-bit chars plus zero byte.
  char *str = &buf[sizeof(buf) - 1];

  *str = '\0';
    273c:	19 a2       	std	Y+33, r1	; 0x21

  // prevent crash if called with base == 1
  if (base < 2) base = 10;
    273e:	42 30       	cpi	r20, 0x02	; 2
    2740:	08 f4       	brcc	.+2      	; 0x2744 <_ZN5Print11printNumberEmh.constprop.27+0x28>
    2742:	4a e0       	ldi	r20, 0x0A	; 10
    2744:	8e 01       	movw	r16, r28
    2746:	0f 5d       	subi	r16, 0xDF	; 223
    2748:	1f 4f       	sbci	r17, 0xFF	; 255

  do {
    char c = n % base;
    274a:	84 2e       	mov	r8, r20
    274c:	91 2c       	mov	r9, r1
    274e:	b1 2c       	mov	r11, r1
    2750:	a1 2c       	mov	r10, r1
    2752:	a5 01       	movw	r20, r10
    2754:	94 01       	movw	r18, r8
    2756:	0e 94 1b 27 	call	0x4e36	; 0x4e36 <__udivmodsi4>
    275a:	e6 2f       	mov	r30, r22
    n /= base;
    275c:	b9 01       	movw	r22, r18
    275e:	ca 01       	movw	r24, r20

    *--str = c < 10 ? c + '0' : c + 'A' - 10;
    2760:	ea 30       	cpi	r30, 0x0A	; 10
    2762:	04 f5       	brge	.+64     	; 0x27a4 <_ZN5Print11printNumberEmh.constprop.27+0x88>
    2764:	e0 5d       	subi	r30, 0xD0	; 208
    2766:	d8 01       	movw	r26, r16
    2768:	ee 93       	st	-X, r30
    276a:	8d 01       	movw	r16, r26
  } while(n);
    276c:	23 2b       	or	r18, r19
    276e:	24 2b       	or	r18, r20
    2770:	25 2b       	or	r18, r21
    2772:	79 f7       	brne	.-34     	; 0x2752 <_ZN5Print11printNumberEmh.constprop.27+0x36>
    int getWriteError() { return write_error; }
    void clearWriteError() { setWriteError(0); }
  
    virtual size_t write(uint8_t) = 0;
    size_t write(const char *str) {
      if (str == NULL) return 0;
    2774:	90 e0       	ldi	r25, 0x00	; 0
    2776:	80 e0       	ldi	r24, 0x00	; 0
    2778:	10 97       	sbiw	r26, 0x00	; 0
    277a:	29 f0       	breq	.+10     	; 0x2786 <_ZN5Print11printNumberEmh.constprop.27+0x6a>
    277c:	bd 01       	movw	r22, r26
    277e:	8e e6       	ldi	r24, 0x6E	; 110
    2780:	93 e0       	ldi	r25, 0x03	; 3
    2782:	0e 94 84 13 	call	0x2708	; 0x2708 <_ZN5Print5writeEPKc.part.2.constprop.38>

  return write(str);
}
    2786:	a1 96       	adiw	r28, 0x21	; 33
    2788:	0f b6       	in	r0, 0x3f	; 63
    278a:	f8 94       	cli
    278c:	de bf       	out	0x3e, r29	; 62
    278e:	0f be       	out	0x3f, r0	; 63
    2790:	cd bf       	out	0x3d, r28	; 61
    2792:	df 91       	pop	r29
    2794:	cf 91       	pop	r28
    2796:	1f 91       	pop	r17
    2798:	0f 91       	pop	r16
    279a:	bf 90       	pop	r11
    279c:	af 90       	pop	r10
    279e:	9f 90       	pop	r9
    27a0:	8f 90       	pop	r8
    27a2:	08 95       	ret

  do {
    char c = n % base;
    n /= base;

    *--str = c < 10 ? c + '0' : c + 'A' - 10;
    27a4:	e9 5c       	subi	r30, 0xC9	; 201
    27a6:	df cf       	rjmp	.-66     	; 0x2766 <_ZN5Print11printNumberEmh.constprop.27+0x4a>

000027a8 <__cxa_pure_virtual>:
extern "C" void __cxa_deleted_virtual(void) __attribute__ ((__noreturn__));

void __cxa_pure_virtual(void) {
  // We might want to write some diagnostics to uart in this case
  //std::terminate();
  abort();
    27a8:	0e 94 a5 29 	call	0x534a	; 0x534a <abort>

000027ac <_ZL10eepWrite32m>:
    eeprom_write_word((uint16_t *)eepAddr, val);
    eepAddr += 2;
}

void eepWrite32(uint32_t val)
{
    27ac:	ab 01       	movw	r20, r22
    27ae:	bc 01       	movw	r22, r24
    eeprom_busy_wait();
    27b0:	f9 99       	sbic	0x1f, 1	; 31
    27b2:	fe cf       	rjmp	.-4      	; 0x27b0 <_ZL10eepWrite32m+0x4>
    eeprom_write_dword((uint32_t *)eepAddr, val);
    27b4:	80 91 da 02 	lds	r24, 0x02DA	; 0x8002da <_ZL7eepAddr>
    27b8:	90 91 db 02 	lds	r25, 0x02DB	; 0x8002db <_ZL7eepAddr+0x1>
    27bc:	0e 94 cc 26 	call	0x4d98	; 0x4d98 <eeprom_write_dword>
    eepAddr += 4;
    27c0:	80 91 da 02 	lds	r24, 0x02DA	; 0x8002da <_ZL7eepAddr>
    27c4:	90 91 db 02 	lds	r25, 0x02DB	; 0x8002db <_ZL7eepAddr+0x1>
    27c8:	04 96       	adiw	r24, 0x04	; 4
    27ca:	90 93 db 02 	sts	0x02DB, r25	; 0x8002db <_ZL7eepAddr+0x1>
    27ce:	80 93 da 02 	sts	0x02DA, r24	; 0x8002da <_ZL7eepAddr>
}
    27d2:	08 95       	ret

000027d4 <_ZL10eepWrite16j>:
    eepAddr++;
}

void eepWrite16(uint16_t val)
{
    eeprom_busy_wait();
    27d4:	f9 99       	sbic	0x1f, 1	; 31
    27d6:	fe cf       	rjmp	.-4      	; 0x27d4 <_ZL10eepWrite16j>
    eeprom_write_word((uint16_t *)eepAddr, val);
    27d8:	bc 01       	movw	r22, r24
    27da:	80 91 da 02 	lds	r24, 0x02DA	; 0x8002da <_ZL7eepAddr>
    27de:	90 91 db 02 	lds	r25, 0x02DB	; 0x8002db <_ZL7eepAddr+0x1>
    27e2:	0e 94 d4 26 	call	0x4da8	; 0x4da8 <eeprom_write_word>
    eepAddr += 2;
    27e6:	80 91 da 02 	lds	r24, 0x02DA	; 0x8002da <_ZL7eepAddr>
    27ea:	90 91 db 02 	lds	r25, 0x02DB	; 0x8002db <_ZL7eepAddr+0x1>
    27ee:	02 96       	adiw	r24, 0x02	; 2
    27f0:	90 93 db 02 	sts	0x02DB, r25	; 0x8002db <_ZL7eepAddr+0x1>
    27f4:	80 93 da 02 	sts	0x02DA, r24	; 0x8002da <_ZL7eepAddr>
}
    27f8:	08 95       	ret

000027fa <_ZL9eepRead32v>:
    eepAddr += 2;
    return ret;
}

uint32_t eepRead32(void)
{
    27fa:	cf 93       	push	r28
    27fc:	df 93       	push	r29
    eeprom_busy_wait();
    27fe:	f9 99       	sbic	0x1f, 1	; 31
    2800:	fe cf       	rjmp	.-4      	; 0x27fe <_ZL9eepRead32v+0x4>
    uint32_t ret = eeprom_read_dword((const uint32_t *) eepAddr);
    2802:	c0 91 da 02 	lds	r28, 0x02DA	; 0x8002da <_ZL7eepAddr>
    2806:	d0 91 db 02 	lds	r29, 0x02DB	; 0x8002db <_ZL7eepAddr+0x1>
    280a:	ce 01       	movw	r24, r28
    280c:	0e 94 b2 26 	call	0x4d64	; 0x4d64 <eeprom_read_dword>
    eepAddr += 4;
    2810:	24 96       	adiw	r28, 0x04	; 4
    2812:	d0 93 db 02 	sts	0x02DB, r29	; 0x8002db <_ZL7eepAddr+0x1>
    2816:	c0 93 da 02 	sts	0x02DA, r28	; 0x8002da <_ZL7eepAddr>
    return ret;
}
    281a:	df 91       	pop	r29
    281c:	cf 91       	pop	r28
    281e:	08 95       	ret

00002820 <_ZL9eepRead16v>:
    eeprom_busy_wait();
    return eeprom_read_byte((const uint8_t *) eepAddr++);
}

uint16_t eepRead16(void)
{
    2820:	cf 93       	push	r28
    2822:	df 93       	push	r29
    eeprom_busy_wait();
    2824:	f9 99       	sbic	0x1f, 1	; 31
    2826:	fe cf       	rjmp	.-4      	; 0x2824 <_ZL9eepRead16v+0x4>
    uint16_t ret = eeprom_read_word((const uint16_t *)eepAddr);
    2828:	c0 91 da 02 	lds	r28, 0x02DA	; 0x8002da <_ZL7eepAddr>
    282c:	d0 91 db 02 	lds	r29, 0x02DB	; 0x8002db <_ZL7eepAddr+0x1>
    2830:	ce 01       	movw	r24, r28
    2832:	0e 94 b8 26 	call	0x4d70	; 0x4d70 <eeprom_read_word>
    eepAddr += 2;
    2836:	22 96       	adiw	r28, 0x02	; 2
    2838:	d0 93 db 02 	sts	0x02DB, r29	; 0x8002db <_ZL7eepAddr+0x1>
    283c:	c0 93 da 02 	sts	0x02DA, r28	; 0x8002da <_ZL7eepAddr>
    return ret;
}
    2840:	df 91       	pop	r29
    2842:	cf 91       	pop	r28
    2844:	08 95       	ret

00002846 <_Z9drawTitlev>:
    randomSeed(rand() ^ micros()); // Shuffle random
    return ret;
}

void drawTitle(void)
{
    2846:	2f 92       	push	r2
    2848:	3f 92       	push	r3
    284a:	4f 92       	push	r4
    284c:	5f 92       	push	r5
    284e:	6f 92       	push	r6
    2850:	7f 92       	push	r7
    2852:	8f 92       	push	r8
    2854:	9f 92       	push	r9
    2856:	af 92       	push	r10
    2858:	bf 92       	push	r11
    285a:	cf 92       	push	r12
    285c:	df 92       	push	r13
    285e:	ef 92       	push	r14
    2860:	ff 92       	push	r15
    2862:	0f 93       	push	r16
    2864:	1f 93       	push	r17
    2866:	cf 93       	push	r28
    2868:	df 93       	push	r29
    286a:	cd b7       	in	r28, 0x3d	; 61
    286c:	de b7       	in	r29, 0x3e	; 62
    286e:	68 97       	sbiw	r28, 0x18	; 24
    2870:	0f b6       	in	r0, 0x3f	; 63
    2872:	f8 94       	cli
    2874:	de bf       	out	0x3e, r29	; 62
    2876:	0f be       	out	0x3f, r0	; 63
    2878:	cd bf       	out	0x3d, r28	; 61
    if (toDraw) {
    287a:	80 91 d9 02 	lds	r24, 0x02D9	; 0x8002d9 <_ZL6toDraw>
    287e:	88 23       	and	r24, r24
    2880:	71 f0       	breq	.+28     	; 0x289e <_Z9drawTitlev+0x58>
    2882:	10 91 d8 02 	lds	r17, 0x02D8	; 0x8002d8 <_ZL5state>
  clear();
}

void Arduboy::clear()
{
  fillScreen(BLACK);
    2886:	0e 94 52 0a 	call	0x14a4	; 0x14a4 <_ZN7Arduboy10fillScreenEh.constprop.23>
        char buf[22];
        const char *p;
        arduboy.clear();
        switch (state) {
    288a:	11 30       	cpi	r17, 0x01	; 1
    288c:	09 f4       	brne	.+2      	; 0x2890 <_Z9drawTitlev+0x4a>
    288e:	0c c1       	rjmp	.+536    	; 0x2aa8 <_Z9drawTitlev+0x262>
    2890:	08 f4       	brcc	.+2      	; 0x2894 <_Z9drawTitlev+0x4e>
    2892:	47 c0       	rjmp	.+142    	; 0x2922 <_Z9drawTitlev+0xdc>
    2894:	12 30       	cpi	r17, 0x02	; 2
    2896:	09 f4       	brne	.+2      	; 0x289a <_Z9drawTitlev+0x54>
    2898:	fd c1       	rjmp	.+1018   	; 0x2c94 <_Z9drawTitlev+0x44e>
                    arduboy.printEx(64 - len * 3, i * 6 + 8, buf);
                }
            }
            break;
        }
        toDraw = false;
    289a:	10 92 d9 02 	sts	0x02D9, r1	; 0x8002d9 <_ZL6toDraw>
    }

    /*  Animation  */
    if (state == STATE_MENU) {
    289e:	80 91 d8 02 	lds	r24, 0x02D8	; 0x8002d8 <_ZL5state>
    28a2:	81 11       	cpse	r24, r1
    28a4:	25 c0       	rjmp	.+74     	; 0x28f0 <_Z9drawTitlev+0xaa>
        uint8_t ani = max(3 - eyesWait / 4, 0);
    28a6:	80 91 b9 02 	lds	r24, 0x02B9	; 0x8002b9 <_ZL8eyesWait>
    28aa:	86 95       	lsr	r24
    28ac:	86 95       	lsr	r24
    28ae:	63 e0       	ldi	r22, 0x03	; 3
    28b0:	70 e0       	ldi	r23, 0x00	; 0
    28b2:	68 1b       	sub	r22, r24
    28b4:	71 09       	sbc	r23, r1
    28b6:	77 fd       	sbrc	r23, 7
    28b8:	60 e0       	ldi	r22, 0x00	; 0
        if (ani == 3) ani = 1;
    28ba:	63 30       	cpi	r22, 0x03	; 3
    28bc:	09 f4       	brne	.+2      	; 0x28c0 <_Z9drawTitlev+0x7a>
    28be:	61 e0       	ldi	r22, 0x01	; 1
        memcpy_P(arduboy.getBuffer() + 660, imgEyes + ani * 10, 10);
    28c0:	8a e0       	ldi	r24, 0x0A	; 10
    28c2:	68 9f       	mul	r22, r24
    28c4:	b0 01       	movw	r22, r0
    28c6:	11 24       	eor	r1, r1
    28c8:	6d 5b       	subi	r22, 0xBD	; 189
    28ca:	79 4f       	sbci	r23, 0xF9	; 249
    28cc:	4a e0       	ldi	r20, 0x0A	; 10
    28ce:	50 e0       	ldi	r21, 0x00	; 0
    28d0:	86 e1       	ldi	r24, 0x16	; 22
    28d2:	96 e0       	ldi	r25, 0x06	; 6
    28d4:	0e 94 8f 26 	call	0x4d1e	; 0x4d1e <memcpy_P>
        //arduboy.fillRect2(20, 40, 10, 8, BLACK);
        //arduboy.drawBitmap(20, 40, imgEyes + ani * 10, 10, 8, WHITE);
        arduboy.drawBitmap(22, 26, imgHeadLight, 7, 8, lightColor);
    28d8:	e0 90 b8 02 	lds	r14, 0x02B8	; 0x8002b8 <_ZL10lightColor>
    28dc:	08 e0       	ldi	r16, 0x08	; 8
    28de:	27 e0       	ldi	r18, 0x07	; 7
    28e0:	4c e3       	ldi	r20, 0x3C	; 60
    28e2:	56 e0       	ldi	r21, 0x06	; 6
    28e4:	6a e1       	ldi	r22, 0x1A	; 26
    28e6:	70 e0       	ldi	r23, 0x00	; 0
    28e8:	86 e1       	ldi	r24, 0x16	; 22
    28ea:	90 e0       	ldi	r25, 0x00	; 0
    28ec:	0e 94 31 09 	call	0x1262	; 0x1262 <_ZN7Arduboy10drawBitmapEiiPKhhhh.constprop.28>
    }
}
    28f0:	68 96       	adiw	r28, 0x18	; 24
    28f2:	0f b6       	in	r0, 0x3f	; 63
    28f4:	f8 94       	cli
    28f6:	de bf       	out	0x3e, r29	; 62
    28f8:	0f be       	out	0x3f, r0	; 63
    28fa:	cd bf       	out	0x3d, r28	; 61
    28fc:	df 91       	pop	r29
    28fe:	cf 91       	pop	r28
    2900:	1f 91       	pop	r17
    2902:	0f 91       	pop	r16
    2904:	ff 90       	pop	r15
    2906:	ef 90       	pop	r14
    2908:	df 90       	pop	r13
    290a:	cf 90       	pop	r12
    290c:	bf 90       	pop	r11
    290e:	af 90       	pop	r10
    2910:	9f 90       	pop	r9
    2912:	8f 90       	pop	r8
    2914:	7f 90       	pop	r7
    2916:	6f 90       	pop	r6
    2918:	5f 90       	pop	r5
    291a:	4f 90       	pop	r4
    291c:	3f 90       	pop	r3
    291e:	2f 90       	pop	r2
    2920:	08 95       	ret
        char buf[22];
        const char *p;
        arduboy.clear();
        switch (state) {
        case STATE_MENU:
            arduboy.drawBitmap(3, 0, imgTitle1, 84, 20, WHITE);
    2922:	ee 24       	eor	r14, r14
    2924:	e3 94       	inc	r14
    2926:	04 e1       	ldi	r16, 0x14	; 20
    2928:	24 e5       	ldi	r18, 0x54	; 84
    292a:	46 e7       	ldi	r20, 0x76	; 118
    292c:	58 e0       	ldi	r21, 0x08	; 8
    292e:	70 e0       	ldi	r23, 0x00	; 0
    2930:	60 e0       	ldi	r22, 0x00	; 0
    2932:	83 e0       	ldi	r24, 0x03	; 3
    2934:	90 e0       	ldi	r25, 0x00	; 0
    2936:	0e 94 31 09 	call	0x1262	; 0x1262 <_ZN7Arduboy10drawBitmapEiiPKhhhh.constprop.28>
            arduboy.drawBitmap(45, 19, imgTitle2, 80, 20, WHITE);
    293a:	20 e5       	ldi	r18, 0x50	; 80
    293c:	46 e8       	ldi	r20, 0x86	; 134
    293e:	57 e0       	ldi	r21, 0x07	; 7
    2940:	63 e1       	ldi	r22, 0x13	; 19
    2942:	70 e0       	ldi	r23, 0x00	; 0
    2944:	8d e2       	ldi	r24, 0x2D	; 45
    2946:	90 e0       	ldi	r25, 0x00	; 0
    2948:	0e 94 31 09 	call	0x1262	; 0x1262 <_ZN7Arduboy10drawBitmapEiiPKhhhh.constprop.28>
            arduboy.drawBitmap(4, 24, imgMan, 40, 40, WHITE);
    294c:	08 e2       	ldi	r16, 0x28	; 40
    294e:	28 e2       	ldi	r18, 0x28	; 40
    2950:	4e eb       	ldi	r20, 0xBE	; 190
    2952:	56 e0       	ldi	r21, 0x06	; 6
    2954:	68 e1       	ldi	r22, 0x18	; 24
    2956:	70 e0       	ldi	r23, 0x00	; 0
    2958:	84 e0       	ldi	r24, 0x04	; 4
    295a:	90 e0       	ldi	r25, 0x00	; 0
    295c:	0e 94 31 09 	call	0x1262	; 0x1262 <_ZN7Arduboy10drawBitmapEiiPKhhhh.constprop.28>
            if (lastScore > 0) {
    2960:	80 91 d6 02 	lds	r24, 0x02D6	; 0x8002d6 <_ZL9lastScore>
    2964:	90 91 d7 02 	lds	r25, 0x02D7	; 0x8002d7 <_ZL9lastScore+0x1>
    2968:	9e 01       	movw	r18, r28
    296a:	2f 5f       	subi	r18, 0xFF	; 255
    296c:	3f 4f       	sbci	r19, 0xFF	; 255
    296e:	79 01       	movw	r14, r18
    2970:	89 2b       	or	r24, r25
    2972:	09 f4       	brne	.+2      	; 0x2976 <_Z9drawTitlev+0x130>
    2974:	43 c0       	rjmp	.+134    	; 0x29fc <_Z9drawTitlev+0x1b6>
  }
}

void Arduboy::setCursor(int16_t x, int16_t y)
{
  cursor_x = x;
    2976:	02 e6       	ldi	r16, 0x62	; 98
    2978:	10 e0       	ldi	r17, 0x00	; 0
    297a:	10 93 83 07 	sts	0x0783, r17	; 0x800783 <arduboy+0x415>
    297e:	00 93 82 07 	sts	0x0782, r16	; 0x800782 <arduboy+0x414>
  cursor_y = y;
    2982:	10 92 85 07 	sts	0x0785, r1	; 0x800785 <arduboy+0x417>
    2986:	10 92 84 07 	sts	0x0784, r1	; 0x800784 <arduboy+0x416>
    298a:	69 eb       	ldi	r22, 0xB9	; 185
    298c:	76 e0       	ldi	r23, 0x06	; 6
    298e:	8e e6       	ldi	r24, 0x6E	; 110
    2990:	93 e0       	ldi	r25, 0x03	; 3
    2992:	0e 94 f9 12 	call	0x25f2	; 0x25f2 <_ZN5Print5printEPK19__FlashStringHelper.constprop.36>
  }
}

void Arduboy::setCursor(int16_t x, int16_t y)
{
  cursor_x = x;
    2996:	10 93 83 07 	sts	0x0783, r17	; 0x800783 <arduboy+0x415>
    299a:	00 93 82 07 	sts	0x0782, r16	; 0x800782 <arduboy+0x414>
  cursor_y = y;
    299e:	86 e0       	ldi	r24, 0x06	; 6
    29a0:	90 e0       	ldi	r25, 0x00	; 0
    29a2:	90 93 85 07 	sts	0x0785, r25	; 0x800785 <arduboy+0x417>
    29a6:	80 93 84 07 	sts	0x0784, r24	; 0x800784 <arduboy+0x416>
    29aa:	63 eb       	ldi	r22, 0xB3	; 179
    29ac:	76 e0       	ldi	r23, 0x06	; 6
    29ae:	8e e6       	ldi	r24, 0x6E	; 110
    29b0:	93 e0       	ldi	r25, 0x03	; 3
    29b2:	0e 94 f9 12 	call	0x25f2	; 0x25f2 <_ZN5Print5printEPK19__FlashStringHelper.constprop.36>
                arduboy.printEx(98, 0, F("LAST"));
                arduboy.printEx(98, 6, F("SCORE"));
                sprintf(buf, "%5d", lastScore);
    29b6:	80 91 d7 02 	lds	r24, 0x02D7	; 0x8002d7 <_ZL9lastScore+0x1>
    29ba:	8f 93       	push	r24
    29bc:	80 91 d6 02 	lds	r24, 0x02D6	; 0x8002d6 <_ZL9lastScore>
    29c0:	8f 93       	push	r24
    29c2:	8b e4       	ldi	r24, 0x4B	; 75
    29c4:	91 e0       	ldi	r25, 0x01	; 1
    29c6:	9f 93       	push	r25
    29c8:	8f 93       	push	r24
    29ca:	ff 92       	push	r15
    29cc:	ef 92       	push	r14
    29ce:	0e 94 aa 29 	call	0x5354	; 0x5354 <sprintf>
  }
}

void Arduboy::setCursor(int16_t x, int16_t y)
{
  cursor_x = x;
    29d2:	10 93 83 07 	sts	0x0783, r17	; 0x800783 <arduboy+0x415>
    29d6:	00 93 82 07 	sts	0x0782, r16	; 0x800782 <arduboy+0x414>
  cursor_y = y;
    29da:	8e e0       	ldi	r24, 0x0E	; 14
    29dc:	90 e0       	ldi	r25, 0x00	; 0
    29de:	90 93 85 07 	sts	0x0785, r25	; 0x800785 <arduboy+0x417>
    29e2:	80 93 84 07 	sts	0x0784, r24	; 0x800784 <arduboy+0x416>
    29e6:	b7 01       	movw	r22, r14
    29e8:	8e e6       	ldi	r24, 0x6E	; 110
    29ea:	93 e0       	ldi	r25, 0x03	; 3
    29ec:	0e 94 84 13 	call	0x2708	; 0x2708 <_ZN5Print5writeEPKc.part.2.constprop.38>
    29f0:	0f 90       	pop	r0
    29f2:	0f 90       	pop	r0
    29f4:	0f 90       	pop	r0
    29f6:	0f 90       	pop	r0
    29f8:	0f 90       	pop	r0
    29fa:	0f 90       	pop	r0
    29fc:	6b ea       	ldi	r22, 0xAB	; 171
    29fe:	a6 2e       	mov	r10, r22
    2a00:	66 e0       	ldi	r22, 0x06	; 6
    2a02:	b6 2e       	mov	r11, r22
    randomSeed(rand() ^ micros()); // Shuffle random
    return ret;
}

void drawTitle(void)
{
    2a04:	78 e2       	ldi	r23, 0x28	; 40
    2a06:	c7 2e       	mov	r12, r23
    2a08:	d1 2c       	mov	r13, r1
    2a0a:	10 e0       	ldi	r17, 0x00	; 0
    2a0c:	00 e0       	ldi	r16, 0x00	; 0
                arduboy.printEx(98, 6, F("SCORE"));
                sprintf(buf, "%5d", lastScore);
                arduboy.printEx(98, 14, buf);
            }
            for (int i = 0; i < 4; i++) {
                p = pgm_read_word(menusTable + i);
    2a0e:	f5 01       	movw	r30, r10
    2a10:	85 90       	lpm	r8, Z+
    2a12:	94 90       	lpm	r9, Z
                strcpy_P(buf, p);
    2a14:	b4 01       	movw	r22, r8
    2a16:	c7 01       	movw	r24, r14
    2a18:	0e 94 98 26 	call	0x4d30	; 0x4d30 <strcpy_P>
                arduboy.printEx(64 - (i == menuPos) * 4, i * 6 + 40, buf);
    2a1c:	80 91 d5 02 	lds	r24, 0x02D5	; 0x8002d5 <_ZL7menuPos>
    2a20:	08 2e       	mov	r0, r24
    2a22:	00 0c       	add	r0, r0
    2a24:	99 0b       	sbc	r25, r25
    2a26:	80 17       	cp	r24, r16
    2a28:	91 07       	cpc	r25, r17
    2a2a:	d9 f5       	brne	.+118    	; 0x2aa2 <_Z9drawTitlev+0x25c>
    2a2c:	8c e3       	ldi	r24, 0x3C	; 60
    2a2e:	90 e0       	ldi	r25, 0x00	; 0
  }
}

void Arduboy::setCursor(int16_t x, int16_t y)
{
  cursor_x = x;
    2a30:	90 93 83 07 	sts	0x0783, r25	; 0x800783 <arduboy+0x415>
    2a34:	80 93 82 07 	sts	0x0782, r24	; 0x800782 <arduboy+0x414>
  cursor_y = y;
    2a38:	d0 92 85 07 	sts	0x0785, r13	; 0x800785 <arduboy+0x417>
    2a3c:	c0 92 84 07 	sts	0x0784, r12	; 0x800784 <arduboy+0x416>
    2a40:	b7 01       	movw	r22, r14
    2a42:	8e e6       	ldi	r24, 0x6E	; 110
    2a44:	93 e0       	ldi	r25, 0x03	; 3
    2a46:	0e 94 84 13 	call	0x2708	; 0x2708 <_ZN5Print5writeEPKc.part.2.constprop.38>
                if (p == menuSound) {
    2a4a:	34 ea       	ldi	r19, 0xA4	; 164
    2a4c:	83 16       	cp	r8, r19
    2a4e:	36 e0       	ldi	r19, 0x06	; 6
    2a50:	93 06       	cpc	r9, r19
    2a52:	61 f4       	brne	.+24     	; 0x2a6c <_Z9drawTitlev+0x226>
                    arduboy.print((sound) ? F("ON") : F("OFF"));
    2a54:	80 91 d4 02 	lds	r24, 0x02D4	; 0x8002d4 <_ZL5sound>
    2a58:	61 ea       	ldi	r22, 0xA1	; 161
    2a5a:	76 e0       	ldi	r23, 0x06	; 6
    2a5c:	81 11       	cpse	r24, r1
    2a5e:	02 c0       	rjmp	.+4      	; 0x2a64 <_Z9drawTitlev+0x21e>
    2a60:	6d e9       	ldi	r22, 0x9D	; 157
    2a62:	76 e0       	ldi	r23, 0x06	; 6
    2a64:	8e e6       	ldi	r24, 0x6E	; 110
    2a66:	93 e0       	ldi	r25, 0x03	; 3
    2a68:	0e 94 f9 12 	call	0x25f2	; 0x25f2 <_ZN5Print5printEPK19__FlashStringHelper.constprop.36>
                arduboy.printEx(98, 0, F("LAST"));
                arduboy.printEx(98, 6, F("SCORE"));
                sprintf(buf, "%5d", lastScore);
                arduboy.printEx(98, 14, buf);
            }
            for (int i = 0; i < 4; i++) {
    2a6c:	0f 5f       	subi	r16, 0xFF	; 255
    2a6e:	1f 4f       	sbci	r17, 0xFF	; 255
    2a70:	82 e0       	ldi	r24, 0x02	; 2
    2a72:	a8 0e       	add	r10, r24
    2a74:	b1 1c       	adc	r11, r1
    2a76:	96 e0       	ldi	r25, 0x06	; 6
    2a78:	c9 0e       	add	r12, r25
    2a7a:	d1 1c       	adc	r13, r1
    2a7c:	04 30       	cpi	r16, 0x04	; 4
    2a7e:	11 05       	cpc	r17, r1
    2a80:	31 f6       	brne	.-116    	; 0x2a0e <_Z9drawTitlev+0x1c8>
                arduboy.printEx(64 - (i == menuPos) * 4, i * 6 + 40, buf);
                if (p == menuSound) {
                    arduboy.print((sound) ? F("ON") : F("OFF"));
                }
            }
            arduboy.fillRect2(52, menuPos * 6 + 40, 5, 5, WHITE);
    2a82:	60 91 d5 02 	lds	r22, 0x02D5	; 0x8002d5 <_ZL7menuPos>
    2a86:	e6 e0       	ldi	r30, 0x06	; 6
    2a88:	6e 02       	muls	r22, r30
    2a8a:	b0 01       	movw	r22, r0
    2a8c:	11 24       	eor	r1, r1
    2a8e:	68 5d       	subi	r22, 0xD8	; 216
    2a90:	7f 4f       	sbci	r23, 0xFF	; 255
    2a92:	01 e0       	ldi	r16, 0x01	; 1
    2a94:	25 e0       	ldi	r18, 0x05	; 5
    2a96:	45 e0       	ldi	r20, 0x05	; 5
    2a98:	84 e3       	ldi	r24, 0x34	; 52
    2a9a:	90 e0       	ldi	r25, 0x00	; 0
    2a9c:	0e 94 bb 08 	call	0x1176	; 0x1176 <_ZN9MyArduboy9fillRect2Eiihah.constprop.30>
    2aa0:	fc ce       	rjmp	.-520    	; 0x289a <_Z9drawTitlev+0x54>
                arduboy.printEx(98, 14, buf);
            }
            for (int i = 0; i < 4; i++) {
                p = pgm_read_word(menusTable + i);
                strcpy_P(buf, p);
                arduboy.printEx(64 - (i == menuPos) * 4, i * 6 + 40, buf);
    2aa2:	80 e4       	ldi	r24, 0x40	; 64
    2aa4:	90 e0       	ldi	r25, 0x00	; 0
    2aa6:	c4 cf       	rjmp	.-120    	; 0x2a30 <_Z9drawTitlev+0x1ea>
  }
}

void Arduboy::setCursor(int16_t x, int16_t y)
{
  cursor_x = x;
    2aa8:	86 e1       	ldi	r24, 0x16	; 22
    2aaa:	90 e0       	ldi	r25, 0x00	; 0
    2aac:	90 93 83 07 	sts	0x0783, r25	; 0x800783 <arduboy+0x415>
    2ab0:	80 93 82 07 	sts	0x0782, r24	; 0x800782 <arduboy+0x414>
  cursor_y = y;
    2ab4:	84 e0       	ldi	r24, 0x04	; 4
    2ab6:	90 e0       	ldi	r25, 0x00	; 0
    2ab8:	90 93 85 07 	sts	0x0785, r25	; 0x800785 <arduboy+0x417>
    2abc:	80 93 84 07 	sts	0x0784, r24	; 0x800784 <arduboy+0x416>
    2ac0:	6e e8       	ldi	r22, 0x8E	; 142
    2ac2:	76 e0       	ldi	r23, 0x06	; 6
    2ac4:	8e e6       	ldi	r24, 0x6E	; 110
    2ac6:	93 e0       	ldi	r25, 0x03	; 3
    2ac8:	0e 94 f9 12 	call	0x25f2	; 0x25f2 <_ZN5Print5printEPK19__FlashStringHelper.constprop.36>
    2acc:	e2 e0       	ldi	r30, 0x02	; 2
    2ace:	f4 e0       	ldi	r31, 0x04	; 4
    2ad0:	21 e8       	ldi	r18, 0x81	; 129
    2ad2:	34 e0       	ldi	r19, 0x04	; 4
}

void MyArduboy::fillBeltWhite(buffer_t *p, uint8_t d, uint8_t w)
{
    for (; w > 0; w--) {
        *p++ |= d;
    2ad4:	80 81       	ld	r24, Z
    2ad6:	80 61       	ori	r24, 0x10	; 16
    2ad8:	81 93       	st	Z+, r24
    }
}

void MyArduboy::fillBeltWhite(buffer_t *p, uint8_t d, uint8_t w)
{
    for (; w > 0; w--) {
    2ada:	2e 17       	cp	r18, r30
    2adc:	3f 07       	cpc	r19, r31
    2ade:	d1 f7       	brne	.-12     	; 0x2ad4 <_Z9drawTitlev+0x28e>
    2ae0:	40 ec       	ldi	r20, 0xC0	; 192
    2ae2:	24 2e       	mov	r2, r20
    2ae4:	42 e0       	ldi	r20, 0x02	; 2
    2ae6:	34 2e       	mov	r3, r20
    2ae8:	c1 2c       	mov	r12, r1
    2aea:	d1 2c       	mov	r13, r1
    2aec:	76 01       	movw	r14, r12
    2aee:	c3 94       	inc	r12
    2af0:	04 e0       	ldi	r16, 0x04	; 4
    2af2:	10 e0       	ldi	r17, 0x00	; 0
    2af4:	46 01       	movw	r8, r12
    2af6:	f1 e0       	ldi	r31, 0x01	; 1
    2af8:	8f 1a       	sub	r8, r31
    2afa:	91 08       	sbc	r9, r1
            arduboy.printEx(22, 4, F("BEST 10 SCORES"));
            arduboy.drawFastHLine2(0, 12, 127, 12);
            for (int i = 0; i < 2; i++) {
                for (int j = 0; j < 5; j++) {
                    int r = i * 5 + j;
                    arduboy.printEx(i * 60 + 4 - (r == 9) * 6, j * 6 + 14, F("["));
    2afc:	38 8e       	std	Y+24, r3	; 0x18
    2afe:	2f 8a       	std	Y+23, r2	; 0x17
    2b00:	26 01       	movw	r4, r12
    2b02:	37 01       	movw	r6, r14
    2b04:	3e e0       	ldi	r19, 0x0E	; 14
    2b06:	a3 2e       	mov	r10, r19
    2b08:	b1 2c       	mov	r11, r1
    2b0a:	90 e0       	ldi	r25, 0x00	; 0
    2b0c:	80 e0       	ldi	r24, 0x00	; 0
    2b0e:	29 e0       	ldi	r18, 0x09	; 9
    2b10:	82 16       	cp	r8, r18
    2b12:	91 04       	cpc	r9, r1
    2b14:	11 f4       	brne	.+4      	; 0x2b1a <_Z9drawTitlev+0x2d4>
    2b16:	86 e0       	ldi	r24, 0x06	; 6
    2b18:	90 e0       	ldi	r25, 0x00	; 0
    2b1a:	f8 01       	movw	r30, r16
    2b1c:	e8 1b       	sub	r30, r24
    2b1e:	f9 0b       	sbc	r31, r25
  }
}

void Arduboy::setCursor(int16_t x, int16_t y)
{
  cursor_x = x;
    2b20:	f0 93 83 07 	sts	0x0783, r31	; 0x800783 <arduboy+0x415>
    2b24:	e0 93 82 07 	sts	0x0782, r30	; 0x800782 <arduboy+0x414>
  cursor_y = y;
    2b28:	b0 92 85 07 	sts	0x0785, r11	; 0x800785 <arduboy+0x417>
    2b2c:	a0 92 84 07 	sts	0x0784, r10	; 0x800784 <arduboy+0x416>
}

size_t MyArduboy::printEx(int16_t x, int16_t y, const __FlashStringHelper *p)
{
    setCursor(x, y);
    return print(p);
    2b30:	6c e8       	ldi	r22, 0x8C	; 140
    2b32:	76 e0       	ldi	r23, 0x06	; 6
    2b34:	8e e6       	ldi	r24, 0x6E	; 110
    2b36:	93 e0       	ldi	r25, 0x03	; 3
    2b38:	0e 94 f9 12 	call	0x25f2	; 0x25f2 <_ZN5Print5printEPK19__FlashStringHelper.constprop.36>
    if (n < 0) {
      int t = print('-');
      n = -n;
      return printNumber(n, 10) + t;
    }
    return printNumber(n, 10);
    2b3c:	4a e0       	ldi	r20, 0x0A	; 10
    2b3e:	c3 01       	movw	r24, r6
    2b40:	b2 01       	movw	r22, r4
    2b42:	0e 94 8e 13 	call	0x271c	; 0x271c <_ZN5Print11printNumberEmh.constprop.27>
                    arduboy.print(r + 1);
                    arduboy.print(F("] "));
    2b46:	69 e8       	ldi	r22, 0x89	; 137
    2b48:	76 e0       	ldi	r23, 0x06	; 6
    2b4a:	8e e6       	ldi	r24, 0x6E	; 110
    2b4c:	93 e0       	ldi	r25, 0x03	; 3
    2b4e:	0e 94 f9 12 	call	0x25f2	; 0x25f2 <_ZN5Print5printEPK19__FlashStringHelper.constprop.36>
                    arduboy.print(hiScore[r]);
    2b52:	ef 89       	ldd	r30, Y+23	; 0x17
    2b54:	f8 8d       	ldd	r31, Y+24	; 0x18
    2b56:	61 91       	ld	r22, Z+
    2b58:	71 91       	ld	r23, Z+
    2b5a:	f8 8f       	std	Y+24, r31	; 0x18
    2b5c:	ef 8b       	std	Y+23, r30	; 0x17
  return print((long) n, base);
}

size_t Print::print(unsigned int n, int base)
{
  return print((unsigned long) n, base);
    2b5e:	90 e0       	ldi	r25, 0x00	; 0
    2b60:	80 e0       	ldi	r24, 0x00	; 0
}

size_t Print::print(unsigned long n, int base)
{
  if (base == 0) return write(n);
  else return printNumber(n, base);
    2b62:	4a e0       	ldi	r20, 0x0A	; 10
    2b64:	0e 94 8e 13 	call	0x271c	; 0x271c <_ZN5Print11printNumberEmh.constprop.27>
    2b68:	ff ef       	ldi	r31, 0xFF	; 255
    2b6a:	8f 1a       	sub	r8, r31
    2b6c:	9f 0a       	sbc	r9, r31
    2b6e:	26 e0       	ldi	r18, 0x06	; 6
    2b70:	a2 0e       	add	r10, r18
    2b72:	b1 1c       	adc	r11, r1
    2b74:	3f ef       	ldi	r19, 0xFF	; 255
    2b76:	43 1a       	sub	r4, r19
    2b78:	53 0a       	sbc	r5, r19
    2b7a:	63 0a       	sbc	r6, r19
    2b7c:	73 0a       	sbc	r7, r19
            break;
        case STATE_RECORD:
            arduboy.printEx(22, 4, F("BEST 10 SCORES"));
            arduboy.drawFastHLine2(0, 12, 127, 12);
            for (int i = 0; i < 2; i++) {
                for (int j = 0; j < 5; j++) {
    2b7e:	8c e2       	ldi	r24, 0x2C	; 44
    2b80:	a8 16       	cp	r10, r24
    2b82:	b1 04       	cpc	r11, r1
    2b84:	11 f6       	brne	.-124    	; 0x2b0a <_Z9drawTitlev+0x2c4>
    2b86:	04 5c       	subi	r16, 0xC4	; 196
    2b88:	1f 4f       	sbci	r17, 0xFF	; 255
    2b8a:	95 e0       	ldi	r25, 0x05	; 5
    2b8c:	c9 0e       	add	r12, r25
    2b8e:	d1 1c       	adc	r13, r1
    2b90:	e1 1c       	adc	r14, r1
    2b92:	f1 1c       	adc	r15, r1
    2b94:	ea e0       	ldi	r30, 0x0A	; 10
    2b96:	2e 0e       	add	r2, r30
    2b98:	31 1c       	adc	r3, r1
            arduboy.fillRect2(52, menuPos * 6 + 40, 5, 5, WHITE);
            break;
        case STATE_RECORD:
            arduboy.printEx(22, 4, F("BEST 10 SCORES"));
            arduboy.drawFastHLine2(0, 12, 127, 12);
            for (int i = 0; i < 2; i++) {
    2b9a:	0c 37       	cpi	r16, 0x7C	; 124
    2b9c:	11 05       	cpc	r17, r1
    2b9e:	09 f0       	breq	.+2      	; 0x2ba2 <_Z9drawTitlev+0x35c>
    2ba0:	a9 cf       	rjmp	.-174    	; 0x2af4 <_Z9drawTitlev+0x2ae>
    2ba2:	e2 e0       	ldi	r30, 0x02	; 2
    2ba4:	f6 e0       	ldi	r31, 0x06	; 6
    2ba6:	21 e8       	ldi	r18, 0x81	; 129
    2ba8:	36 e0       	ldi	r19, 0x06	; 6
}

void MyArduboy::fillBeltWhite(buffer_t *p, uint8_t d, uint8_t w)
{
    for (; w > 0; w--) {
        *p++ |= d;
    2baa:	80 81       	ld	r24, Z
    2bac:	80 61       	ori	r24, 0x10	; 16
    2bae:	81 93       	st	Z+, r24
    }
}

void MyArduboy::fillBeltWhite(buffer_t *p, uint8_t d, uint8_t w)
{
    for (; w > 0; w--) {
    2bb0:	2e 17       	cp	r18, r30
    2bb2:	3f 07       	cpc	r19, r31
    2bb4:	d1 f7       	brne	.-12     	; 0x2baa <_Z9drawTitlev+0x364>
  }
}

void Arduboy::setCursor(int16_t x, int16_t y)
{
  cursor_x = x;
    2bb6:	00 e1       	ldi	r16, 0x10	; 16
    2bb8:	10 e0       	ldi	r17, 0x00	; 0
    2bba:	10 93 83 07 	sts	0x0783, r17	; 0x800783 <arduboy+0x415>
    2bbe:	00 93 82 07 	sts	0x0782, r16	; 0x800782 <arduboy+0x414>
  cursor_y = y;
    2bc2:	80 e3       	ldi	r24, 0x30	; 48
    2bc4:	90 e0       	ldi	r25, 0x00	; 0
    2bc6:	90 93 85 07 	sts	0x0785, r25	; 0x800785 <arduboy+0x417>
    2bca:	80 93 84 07 	sts	0x0784, r24	; 0x800784 <arduboy+0x416>
}

size_t MyArduboy::printEx(int16_t x, int16_t y, const __FlashStringHelper *p)
{
    setCursor(x, y);
    return print(p);
    2bce:	6d e7       	ldi	r22, 0x7D	; 125
    2bd0:	76 e0       	ldi	r23, 0x06	; 6
    2bd2:	8e e6       	ldi	r24, 0x6E	; 110
    2bd4:	93 e0       	ldi	r25, 0x03	; 3
    2bd6:	0e 94 f9 12 	call	0x25f2	; 0x25f2 <_ZN5Print5printEPK19__FlashStringHelper.constprop.36>
  return print((long) n, base);
}

size_t Print::print(unsigned int n, int base)
{
  return print((unsigned long) n, base);
    2bda:	60 91 be 02 	lds	r22, 0x02BE	; 0x8002be <_ZL9playCount>
    2bde:	70 91 bf 02 	lds	r23, 0x02BF	; 0x8002bf <_ZL9playCount+0x1>
    2be2:	90 e0       	ldi	r25, 0x00	; 0
    2be4:	80 e0       	ldi	r24, 0x00	; 0
}

size_t Print::print(unsigned long n, int base)
{
  if (base == 0) return write(n);
  else return printNumber(n, base);
    2be6:	4a e0       	ldi	r20, 0x0A	; 10
    2be8:	0e 94 8e 13 	call	0x271c	; 0x271c <_ZN5Print11printNumberEmh.constprop.27>
  }
}

void Arduboy::setCursor(int16_t x, int16_t y)
{
  cursor_x = x;
    2bec:	10 93 83 07 	sts	0x0783, r17	; 0x800783 <arduboy+0x415>
    2bf0:	00 93 82 07 	sts	0x0782, r16	; 0x800782 <arduboy+0x414>
  cursor_y = y;
    2bf4:	86 e3       	ldi	r24, 0x36	; 54
    2bf6:	90 e0       	ldi	r25, 0x00	; 0
    2bf8:	90 93 85 07 	sts	0x0785, r25	; 0x800785 <arduboy+0x417>
    2bfc:	80 93 84 07 	sts	0x0784, r24	; 0x800784 <arduboy+0x416>
    2c00:	61 e7       	ldi	r22, 0x71	; 113
    2c02:	76 e0       	ldi	r23, 0x06	; 6
    2c04:	8e e6       	ldi	r24, 0x6E	; 110
    2c06:	93 e0       	ldi	r25, 0x03	; 3
    2c08:	0e 94 f9 12 	call	0x25f2	; 0x25f2 <_ZN5Print5printEPK19__FlashStringHelper.constprop.36>
            }
            arduboy.drawFastHLine2(0, 44, 127, 44);
            arduboy.printEx(16, 48, F("PLAY COUNT "));
            arduboy.print(playCount);
            arduboy.printEx(16, 54, F("PLAY TIME  "));
            arduboy.print(playFrames / 3600); // minutes
    2c0c:	60 91 ba 02 	lds	r22, 0x02BA	; 0x8002ba <_ZL10playFrames>
    2c10:	70 91 bb 02 	lds	r23, 0x02BB	; 0x8002bb <_ZL10playFrames+0x1>
    2c14:	80 91 bc 02 	lds	r24, 0x02BC	; 0x8002bc <_ZL10playFrames+0x2>
    2c18:	90 91 bd 02 	lds	r25, 0x02BD	; 0x8002bd <_ZL10playFrames+0x3>
    2c1c:	20 e1       	ldi	r18, 0x10	; 16
    2c1e:	3e e0       	ldi	r19, 0x0E	; 14
    2c20:	40 e0       	ldi	r20, 0x00	; 0
    2c22:	50 e0       	ldi	r21, 0x00	; 0
    2c24:	0e 94 1b 27 	call	0x4e36	; 0x4e36 <__udivmodsi4>
    2c28:	ca 01       	movw	r24, r20
    2c2a:	b9 01       	movw	r22, r18
    2c2c:	4a e0       	ldi	r20, 0x0A	; 10
    2c2e:	0e 94 8e 13 	call	0x271c	; 0x271c <_ZN5Print11printNumberEmh.constprop.27>
            sprintf(buf, "'%02d\"", playFrames / 60 % 60); // seconds
    2c32:	60 91 ba 02 	lds	r22, 0x02BA	; 0x8002ba <_ZL10playFrames>
    2c36:	70 91 bb 02 	lds	r23, 0x02BB	; 0x8002bb <_ZL10playFrames+0x1>
    2c3a:	80 91 bc 02 	lds	r24, 0x02BC	; 0x8002bc <_ZL10playFrames+0x2>
    2c3e:	90 91 bd 02 	lds	r25, 0x02BD	; 0x8002bd <_ZL10playFrames+0x3>
    2c42:	2c e3       	ldi	r18, 0x3C	; 60
    2c44:	c2 2e       	mov	r12, r18
    2c46:	d1 2c       	mov	r13, r1
    2c48:	e1 2c       	mov	r14, r1
    2c4a:	f1 2c       	mov	r15, r1
    2c4c:	a7 01       	movw	r20, r14
    2c4e:	96 01       	movw	r18, r12
    2c50:	0e 94 1b 27 	call	0x4e36	; 0x4e36 <__udivmodsi4>
    2c54:	ca 01       	movw	r24, r20
    2c56:	b9 01       	movw	r22, r18
    2c58:	a7 01       	movw	r20, r14
    2c5a:	96 01       	movw	r18, r12
    2c5c:	0e 94 1b 27 	call	0x4e36	; 0x4e36 <__udivmodsi4>
    2c60:	9f 93       	push	r25
    2c62:	8f 93       	push	r24
    2c64:	7f 93       	push	r23
    2c66:	6f 93       	push	r22
    2c68:	8f e4       	ldi	r24, 0x4F	; 79
    2c6a:	91 e0       	ldi	r25, 0x01	; 1
    2c6c:	9f 93       	push	r25
    2c6e:	8f 93       	push	r24
    2c70:	8e 01       	movw	r16, r28
    2c72:	0f 5f       	subi	r16, 0xFF	; 255
    2c74:	1f 4f       	sbci	r17, 0xFF	; 255
    2c76:	1f 93       	push	r17
    2c78:	0f 93       	push	r16
    2c7a:	0e 94 aa 29 	call	0x5354	; 0x5354 <sprintf>
    2c7e:	b8 01       	movw	r22, r16
    2c80:	8e e6       	ldi	r24, 0x6E	; 110
    2c82:	93 e0       	ldi	r25, 0x03	; 3
    2c84:	0e 94 84 13 	call	0x2708	; 0x2708 <_ZN5Print5writeEPKc.part.2.constprop.38>
    2c88:	0f b6       	in	r0, 0x3f	; 63
    2c8a:	f8 94       	cli
    2c8c:	de bf       	out	0x3e, r29	; 62
    2c8e:	0f be       	out	0x3f, r0	; 63
    2c90:	cd bf       	out	0x3d, r28	; 61
    2c92:	03 ce       	rjmp	.-1018   	; 0x289a <_Z9drawTitlev+0x54>
    2c94:	81 e6       	ldi	r24, 0x61	; 97
    2c96:	e8 2e       	mov	r14, r24
    2c98:	86 e0       	ldi	r24, 0x06	; 6
    2c9a:	f8 2e       	mov	r15, r24
{
    if (toDraw) {
        char buf[22];
        const char *p;
        arduboy.clear();
        switch (state) {
    2c9c:	08 e0       	ldi	r16, 0x08	; 8
    2c9e:	10 e0       	ldi	r17, 0x00	; 0
            sprintf(buf, "'%02d\"", playFrames / 60 % 60); // seconds
            arduboy.print(buf);
            break;
        case STATE_CREDIT:
            for (int i = 0; i < 8; i++) {
                p = pgm_read_word(creditsTable + i);
    2ca0:	f7 01       	movw	r30, r14
    2ca2:	65 91       	lpm	r22, Z+
    2ca4:	74 91       	lpm	r23, Z
                if (p != NULL) {
    2ca6:	61 15       	cp	r22, r1
    2ca8:	71 05       	cpc	r23, r1
    2caa:	01 f1       	breq	.+64     	; 0x2cec <_Z9drawTitlev+0x4a6>
                    strcpy_P(buf, p);
    2cac:	ce 01       	movw	r24, r28
    2cae:	01 96       	adiw	r24, 0x01	; 1
    2cb0:	0e 94 98 26 	call	0x4d30	; 0x4d30 <strcpy_P>
                    uint8_t len = strnlen(buf, sizeof(buf));
    2cb4:	66 e1       	ldi	r22, 0x16	; 22
    2cb6:	70 e0       	ldi	r23, 0x00	; 0
    2cb8:	ce 01       	movw	r24, r28
    2cba:	01 96       	adiw	r24, 0x01	; 1
    2cbc:	0e 94 9f 26 	call	0x4d3e	; 0x4d3e <strnlen>
                    arduboy.printEx(64 - len * 3, i * 6 + 8, buf);
    2cc0:	38 2f       	mov	r19, r24
    2cc2:	2d ef       	ldi	r18, 0xFD	; 253
    2cc4:	23 03       	mulsu	r18, r19
    2cc6:	c0 01       	movw	r24, r0
    2cc8:	11 24       	eor	r1, r1
    2cca:	80 5c       	subi	r24, 0xC0	; 192
    2ccc:	9f 4f       	sbci	r25, 0xFF	; 255
  }
}

void Arduboy::setCursor(int16_t x, int16_t y)
{
  cursor_x = x;
    2cce:	90 93 83 07 	sts	0x0783, r25	; 0x800783 <arduboy+0x415>
    2cd2:	80 93 82 07 	sts	0x0782, r24	; 0x800782 <arduboy+0x414>
  cursor_y = y;
    2cd6:	10 93 85 07 	sts	0x0785, r17	; 0x800785 <arduboy+0x417>
    2cda:	00 93 84 07 	sts	0x0784, r16	; 0x800784 <arduboy+0x416>
    2cde:	be 01       	movw	r22, r28
    2ce0:	6f 5f       	subi	r22, 0xFF	; 255
    2ce2:	7f 4f       	sbci	r23, 0xFF	; 255
    2ce4:	8e e6       	ldi	r24, 0x6E	; 110
    2ce6:	93 e0       	ldi	r25, 0x03	; 3
    2ce8:	0e 94 84 13 	call	0x2708	; 0x2708 <_ZN5Print5writeEPKc.part.2.constprop.38>
    2cec:	32 e0       	ldi	r19, 0x02	; 2
    2cee:	e3 0e       	add	r14, r19
    2cf0:	f1 1c       	adc	r15, r1
    2cf2:	0a 5f       	subi	r16, 0xFA	; 250
    2cf4:	1f 4f       	sbci	r17, 0xFF	; 255
            arduboy.print(playFrames / 3600); // minutes
            sprintf(buf, "'%02d\"", playFrames / 60 % 60); // seconds
            arduboy.print(buf);
            break;
        case STATE_CREDIT:
            for (int i = 0; i < 8; i++) {
    2cf6:	08 33       	cpi	r16, 0x38	; 56
    2cf8:	11 05       	cpc	r17, r1
    2cfa:	91 f6       	brne	.-92     	; 0x2ca0 <_Z9drawTitlev+0x45a>
    2cfc:	ce cd       	rjmp	.-1124   	; 0x289a <_Z9drawTitlev+0x54>

00002cfe <_Z8drawGamev>:

    return (isOver && counter == 0);
}

void drawGame(void)
{
    2cfe:	2f 92       	push	r2
    2d00:	3f 92       	push	r3
    2d02:	5f 92       	push	r5
    2d04:	6f 92       	push	r6
    2d06:	7f 92       	push	r7
    2d08:	8f 92       	push	r8
    2d0a:	9f 92       	push	r9
    2d0c:	af 92       	push	r10
    2d0e:	bf 92       	push	r11
    2d10:	cf 92       	push	r12
    2d12:	df 92       	push	r13
    2d14:	ef 92       	push	r14
    2d16:	ff 92       	push	r15
    2d18:	0f 93       	push	r16
    2d1a:	1f 93       	push	r17
    2d1c:	cf 93       	push	r28
    2d1e:	df 93       	push	r29
    2d20:	cd b7       	in	r28, 0x3d	; 61
    2d22:	de b7       	in	r29, 0x3e	; 62
    2d24:	2e 97       	sbiw	r28, 0x0e	; 14
    2d26:	0f b6       	in	r0, 0x3f	; 63
    2d28:	f8 94       	cli
    2d2a:	de bf       	out	0x3e, r29	; 62
    2d2c:	0f be       	out	0x3f, r0	; 63
    2d2e:	cd bf       	out	0x3d, r28	; 61
  clear();
}

void Arduboy::clear()
{
  fillScreen(BLACK);
    2d30:	0e 94 52 0a 	call	0x14a4	; 0x14a4 <_ZN7Arduboy10fillScreenEh.constprop.23>
    arduboy.clear();

    int shake = (cavePhase > 976) ? cavePhase % 4 / 2 : 0;
    2d34:	80 91 b2 02 	lds	r24, 0x02B2	; 0x8002b2 <_ZL9cavePhase>
    2d38:	90 91 b3 02 	lds	r25, 0x02B3	; 0x8002b3 <_ZL9cavePhase+0x1>
    2d3c:	81 fb       	bst	r24, 1
    2d3e:	22 24       	eor	r2, r2
    2d40:	20 f8       	bld	r2, 0
    2d42:	31 2c       	mov	r3, r1
    2d44:	81 3d       	cpi	r24, 0xD1	; 209
    2d46:	93 40       	sbci	r25, 0x03	; 3
    2d48:	14 f4       	brge	.+4      	; 0x2d4e <_Z8drawGamev+0x50>
    2d4a:	31 2c       	mov	r3, r1
    2d4c:	21 2c       	mov	r2, r1
    int offsetTop = caveBaseTop + shake;
    2d4e:	60 91 b0 02 	lds	r22, 0x02B0	; 0x8002b0 <_ZL11caveBaseTop>
    2d52:	70 91 b1 02 	lds	r23, 0x02B1	; 0x8002b1 <_ZL11caveBaseTop+0x1>
    2d56:	c1 01       	movw	r24, r2
    2d58:	86 0f       	add	r24, r22
    2d5a:	97 1f       	adc	r25, r23
    2d5c:	9a 83       	std	Y+2, r25	; 0x02
    2d5e:	89 83       	std	Y+1, r24	; 0x01
    int offsetBottom = caveBaseBottom + shake;
    2d60:	80 90 ae 02 	lds	r8, 0x02AE	; 0x8002ae <_ZL14caveBaseBottom>
    2d64:	90 90 af 02 	lds	r9, 0x02AF	; 0x8002af <_ZL14caveBaseBottom+0x1>
    2d68:	82 0c       	add	r8, r2
    2d6a:	93 1c       	adc	r9, r3

    /*  Cave & Debris  */
    for (int i = 0; i < 128; i++) {
    2d6c:	10 e0       	ldi	r17, 0x00	; 0
    2d6e:	00 e0       	ldi	r16, 0x00	; 0

        height = caveColumn[col].top;
        if (odd == 0) {
            edge = height - caveColumn[mod(col - 1, 18)].top + 1;
        } else if (odd == 7) {
            edge = height - caveColumn[mod(col + 1, 18)].top + 1;
    2d70:	f2 e1       	ldi	r31, 0x12	; 18
    2d72:	6f 2e       	mov	r6, r31
    2d74:	71 2c       	mov	r7, r1
    if (height < 0) return;
    edge = min(max(edge, 1), height);
    arduboy.drawFastVLine2(x, height - edge, edge, WHITE);
    height -= edge;

    int shift = -offset & 7;
    2d76:	87 70       	andi	r24, 0x07	; 7
    2d78:	99 27       	eor	r25, r25
    2d7a:	9e 83       	std	Y+6, r25	; 0x06
    2d7c:	8d 83       	std	Y+5, r24	; 0x05
    2d7e:	91 95       	neg	r25
    2d80:	81 95       	neg	r24
    2d82:	91 09       	sbc	r25, r1
    2d84:	9c 01       	movw	r18, r24
    2d86:	27 70       	andi	r18, 0x07	; 7
    2d88:	33 27       	eor	r19, r19
    2d8a:	3a 87       	std	Y+10, r19	; 0x0a
    2d8c:	29 87       	std	Y+9, r18	; 0x09
    if (height < 0) return;
    edge = min(max(edge, 1), height);
    arduboy.drawFastVLine2(x, 64 - height, edge, WHITE);
    height -= edge;

    int shift = -offset & 7;
    2d8e:	88 27       	eor	r24, r24
    2d90:	99 27       	eor	r25, r25
    2d92:	88 19       	sub	r24, r8
    2d94:	99 09       	sbc	r25, r9
    2d96:	9c 01       	movw	r18, r24
    2d98:	27 70       	andi	r18, 0x07	; 7
    2d9a:	33 27       	eor	r19, r19
    2d9c:	38 87       	std	Y+8, r19	; 0x08
    2d9e:	2f 83       	std	Y+7, r18	; 0x07
    2da0:	c9 01       	movw	r24, r18
    2da2:	91 95       	neg	r25
    2da4:	81 95       	neg	r24
    2da6:	91 09       	sbc	r25, r1
    2da8:	9c 01       	movw	r18, r24
    2daa:	27 70       	andi	r18, 0x07	; 7
    2dac:	33 27       	eor	r19, r19
    2dae:	3c 87       	std	Y+12, r19	; 0x0c
    2db0:	2b 87       	std	Y+11, r18	; 0x0b
    int offsetTop = caveBaseTop + shake;
    int offsetBottom = caveBaseBottom + shake;

    /*  Cave & Debris  */
    for (int i = 0; i < 128; i++) {
        int pos = (i + caveOffset + 8) % 144;
    2db2:	e0 91 ad 02 	lds	r30, 0x02AD	; 0x8002ad <_ZL10caveOffset>
    2db6:	e0 0f       	add	r30, r16
    2db8:	f1 2f       	mov	r31, r17
    2dba:	f1 1d       	adc	r31, r1
    2dbc:	cf 01       	movw	r24, r30
    2dbe:	08 96       	adiw	r24, 0x08	; 8
    2dc0:	60 e9       	ldi	r22, 0x90	; 144
    2dc2:	70 e0       	ldi	r23, 0x00	; 0
    2dc4:	0e 94 77 29 	call	0x52ee	; 0x52ee <__divmodhi4>
    2dc8:	6c 01       	movw	r12, r24
        int col = pos / 8;
    2dca:	7c 01       	movw	r14, r24
    2dcc:	73 e0       	ldi	r23, 0x03	; 3
    2dce:	f5 94       	asr	r15
    2dd0:	e7 94       	ror	r14
    2dd2:	7a 95       	dec	r23
    2dd4:	e1 f7       	brne	.-8      	; 0x2dce <_Z8drawGamev+0xd0>
        int odd = pos & 7;
    2dd6:	5c 01       	movw	r10, r24
    2dd8:	37 e0       	ldi	r19, 0x07	; 7
    2dda:	a3 22       	and	r10, r19
    2ddc:	bb 24       	eor	r11, r11
        int height, edge; 
        uchar ptn = pgm_read_byte(imgCave + ((i + caveOffset) & 7));
    2dde:	e7 70       	andi	r30, 0x07	; 7
    2de0:	ff 27       	eor	r31, r31
    2de2:	e3 5c       	subi	r30, 0xC3	; 195
    2de4:	fb 4f       	sbci	r31, 0xFB	; 251
    2de6:	54 90       	lpm	r5, Z

        height = caveColumn[col].top;
    2de8:	c7 01       	movw	r24, r14
    2dea:	88 0f       	add	r24, r24
    2dec:	99 1f       	adc	r25, r25
    2dee:	9c 83       	std	Y+4, r25	; 0x04
    2df0:	8b 83       	std	Y+3, r24	; 0x03
    2df2:	fc 01       	movw	r30, r24
    2df4:	e7 57       	subi	r30, 0x77	; 119
    2df6:	fd 4f       	sbci	r31, 0xFD	; 253
    2df8:	90 81       	ld	r25, Z
    2dfa:	29 2f       	mov	r18, r25
    2dfc:	30 e0       	ldi	r19, 0x00	; 0
    2dfe:	3e 87       	std	Y+14, r19	; 0x0e
    2e00:	2d 87       	std	Y+13, r18	; 0x0d
        if (odd == 0) {
    2e02:	a1 14       	cp	r10, r1
    2e04:	b1 04       	cpc	r11, r1
    2e06:	09 f0       	breq	.+2      	; 0x2e0a <_Z8drawGamev+0x10c>
    2e08:	62 c0       	rjmp	.+196    	; 0x2ece <_Z8drawGamev+0x1d0>
            edge = height - caveColumn[mod(col - 1, 18)].top + 1;
    2e0a:	c7 01       	movw	r24, r14
    2e0c:	41 96       	adiw	r24, 0x11	; 17
    2e0e:	b3 01       	movw	r22, r6
    2e10:	0e 94 77 29 	call	0x52ee	; 0x52ee <__divmodhi4>
    2e14:	fc 01       	movw	r30, r24
    2e16:	ee 0f       	add	r30, r30
    2e18:	ff 1f       	adc	r31, r31
    2e1a:	e7 57       	subi	r30, 0x77	; 119
    2e1c:	fd 4f       	sbci	r31, 0xFD	; 253
    2e1e:	80 81       	ld	r24, Z
    2e20:	a9 01       	movw	r20, r18
        } else if (odd == 7) {
            edge = height - caveColumn[mod(col + 1, 18)].top + 1;
    2e22:	48 1b       	sub	r20, r24
    2e24:	51 09       	sbc	r21, r1
    2e26:	4f 5f       	subi	r20, 0xFF	; 255
    2e28:	5f 4f       	sbci	r21, 0xFF	; 255
    return debris[i].base + (debris[i].t * debris[i].t >> 6);
}

static void drawCaveTop(uchar ptn, int x, int height, int edge, int offset)
{
    height -= offset;
    2e2a:	2d 85       	ldd	r18, Y+13	; 0x0d
    2e2c:	3e 85       	ldd	r19, Y+14	; 0x0e
    2e2e:	89 81       	ldd	r24, Y+1	; 0x01
    2e30:	9a 81       	ldd	r25, Y+2	; 0x02
    2e32:	28 0f       	add	r18, r24
    2e34:	39 1f       	adc	r19, r25
    2e36:	3e 87       	std	Y+14, r19	; 0x0e
    2e38:	2d 87       	std	Y+13, r18	; 0x0d
    if (height < 0) return;
    2e3a:	37 fd       	sbrc	r19, 7
    2e3c:	5f c0       	rjmp	.+190    	; 0x2efc <_Z8drawGamev+0x1fe>
    edge = min(max(edge, 1), height);
    2e3e:	14 16       	cp	r1, r20
    2e40:	15 06       	cpc	r1, r21
    2e42:	14 f0       	brlt	.+4      	; 0x2e48 <_Z8drawGamev+0x14a>
    2e44:	41 e0       	ldi	r20, 0x01	; 1
    2e46:	50 e0       	ldi	r21, 0x00	; 0
    2e48:	2d 85       	ldd	r18, Y+13	; 0x0d
    2e4a:	3e 85       	ldd	r19, Y+14	; 0x0e
    2e4c:	24 17       	cp	r18, r20
    2e4e:	35 07       	cpc	r19, r21
    2e50:	0c f4       	brge	.+2      	; 0x2e54 <_Z8drawGamev+0x156>
    2e52:	a9 01       	movw	r20, r18
    arduboy.drawFastVLine2(x, height - edge, edge, WHITE);
    2e54:	8d 85       	ldd	r24, Y+13	; 0x0d
    2e56:	9e 85       	ldd	r25, Y+14	; 0x0e
    2e58:	84 1b       	sub	r24, r20
    2e5a:	95 0b       	sbc	r25, r21
    2e5c:	9e 87       	std	Y+14, r25	; 0x0e
    2e5e:	8d 87       	std	Y+13, r24	; 0x0d
    2e60:	bc 01       	movw	r22, r24
    2e62:	c8 01       	movw	r24, r16
    2e64:	0e 94 57 08 	call	0x10ae	; 0x10ae <_ZN9MyArduboy14drawFastVLine2Eiiah.constprop.34>
    2e68:	45 2d       	mov	r20, r5
    2e6a:	09 84       	ldd	r0, Y+9	; 0x09
    2e6c:	01 c0       	rjmp	.+2      	; 0x2e70 <_Z8drawGamev+0x172>
    2e6e:	46 95       	lsr	r20
    2e70:	0a 94       	dec	r0
    2e72:	ea f7       	brpl	.-6      	; 0x2e6e <_Z8drawGamev+0x170>
    2e74:	85 2d       	mov	r24, r5
    2e76:	0d 80       	ldd	r0, Y+5	; 0x05
    2e78:	01 c0       	rjmp	.+2      	; 0x2e7c <_Z8drawGamev+0x17e>
    2e7a:	88 0f       	add	r24, r24
    2e7c:	0a 94       	dec	r0
    2e7e:	ea f7       	brpl	.-6      	; 0x2e7a <_Z8drawGamev+0x17c>
    2e80:	48 2b       	or	r20, r24
    2e82:	f8 01       	movw	r30, r16
    2e84:	ee 57       	subi	r30, 0x7E	; 126
    2e86:	fc 4f       	sbci	r31, 0xFC	; 252
    2e88:	28 e0       	ldi	r18, 0x08	; 8
    2e8a:	30 e0       	ldi	r19, 0x00	; 0
    2e8c:	8d 85       	ldd	r24, Y+13	; 0x0d
    2e8e:	9e 85       	ldd	r25, Y+14	; 0x0e
    2e90:	28 1b       	sub	r18, r24
    2e92:	39 0b       	sbc	r19, r25
    height -= edge;

    int shift = -offset & 7;
    ptn = (ptn << shift) | (ptn >> (8 - shift));
    uchar *pBuf = arduboy.getBuffer() + x;
    for (; height > 0; pBuf += WIDTH, height -= 8) {
    2e94:	8d 85       	ldd	r24, Y+13	; 0x0d
    2e96:	9e 85       	ldd	r25, Y+14	; 0x0e
    2e98:	18 16       	cp	r1, r24
    2e9a:	19 06       	cpc	r1, r25
    2e9c:	7c f5       	brge	.+94     	; 0x2efc <_Z8drawGamev+0x1fe>
        uchar mask = (height < 8) ? 0xFF >> (8 - height) : 0xFF;
    2e9e:	08 97       	sbiw	r24, 0x08	; 8
    2ea0:	5c f5       	brge	.+86     	; 0x2ef8 <_Z8drawGamev+0x1fa>
    2ea2:	8f ef       	ldi	r24, 0xFF	; 255
    2ea4:	90 e0       	ldi	r25, 0x00	; 0
    2ea6:	02 2e       	mov	r0, r18
    2ea8:	02 c0       	rjmp	.+4      	; 0x2eae <_Z8drawGamev+0x1b0>
    2eaa:	95 95       	asr	r25
    2eac:	87 95       	ror	r24
    2eae:	0a 94       	dec	r0
    2eb0:	e2 f7       	brpl	.-8      	; 0x2eaa <_Z8drawGamev+0x1ac>
        *pBuf |= ptn & mask;
    2eb2:	84 23       	and	r24, r20
    2eb4:	90 81       	ld	r25, Z
    2eb6:	89 2b       	or	r24, r25
    2eb8:	80 83       	st	Z, r24
    height -= edge;

    int shift = -offset & 7;
    ptn = (ptn << shift) | (ptn >> (8 - shift));
    uchar *pBuf = arduboy.getBuffer() + x;
    for (; height > 0; pBuf += WIDTH, height -= 8) {
    2eba:	e0 58       	subi	r30, 0x80	; 128
    2ebc:	ff 4f       	sbci	r31, 0xFF	; 255
    2ebe:	8d 85       	ldd	r24, Y+13	; 0x0d
    2ec0:	9e 85       	ldd	r25, Y+14	; 0x0e
    2ec2:	08 97       	sbiw	r24, 0x08	; 8
    2ec4:	9e 87       	std	Y+14, r25	; 0x0e
    2ec6:	8d 87       	std	Y+13, r24	; 0x0d
    2ec8:	28 5f       	subi	r18, 0xF8	; 248
    2eca:	3f 4f       	sbci	r19, 0xFF	; 255
    2ecc:	e3 cf       	rjmp	.-58     	; 0x2e94 <_Z8drawGamev+0x196>
        if (odd == 0) {
            edge = height - caveColumn[mod(col - 1, 18)].top + 1;
        } else if (odd == 7) {
            edge = height - caveColumn[mod(col + 1, 18)].top + 1;
        } else {
            edge = 1;
    2ece:	41 e0       	ldi	r20, 0x01	; 1
    2ed0:	50 e0       	ldi	r21, 0x00	; 0
        uchar ptn = pgm_read_byte(imgCave + ((i + caveOffset) & 7));

        height = caveColumn[col].top;
        if (odd == 0) {
            edge = height - caveColumn[mod(col - 1, 18)].top + 1;
        } else if (odd == 7) {
    2ed2:	87 e0       	ldi	r24, 0x07	; 7
    2ed4:	a8 16       	cp	r10, r24
    2ed6:	b1 04       	cpc	r11, r1
    2ed8:	09 f0       	breq	.+2      	; 0x2edc <_Z8drawGamev+0x1de>
    2eda:	a7 cf       	rjmp	.-178    	; 0x2e2a <_Z8drawGamev+0x12c>
            edge = height - caveColumn[mod(col + 1, 18)].top + 1;
    2edc:	c7 01       	movw	r24, r14
    2ede:	43 96       	adiw	r24, 0x13	; 19
    2ee0:	b3 01       	movw	r22, r6
    2ee2:	0e 94 77 29 	call	0x52ee	; 0x52ee <__divmodhi4>
    2ee6:	fc 01       	movw	r30, r24
    2ee8:	ee 0f       	add	r30, r30
    2eea:	ff 1f       	adc	r31, r31
    2eec:	e7 57       	subi	r30, 0x77	; 119
    2eee:	fd 4f       	sbci	r31, 0xFD	; 253
    2ef0:	80 81       	ld	r24, Z
    2ef2:	4d 85       	ldd	r20, Y+13	; 0x0d
    2ef4:	5e 85       	ldd	r21, Y+14	; 0x0e
    2ef6:	95 cf       	rjmp	.-214    	; 0x2e22 <_Z8drawGamev+0x124>

    int shift = -offset & 7;
    ptn = (ptn << shift) | (ptn >> (8 - shift));
    uchar *pBuf = arduboy.getBuffer() + x;
    for (; height > 0; pBuf += WIDTH, height -= 8) {
        uchar mask = (height < 8) ? 0xFF >> (8 - height) : 0xFF;
    2ef8:	8f ef       	ldi	r24, 0xFF	; 255
    2efa:	db cf       	rjmp	.-74     	; 0x2eb2 <_Z8drawGamev+0x1b4>
        } else {
            edge = 1;
        }
        drawCaveTop(ptn, i, height, edge, -offsetTop);

        height = caveColumn[col].bottom;
    2efc:	eb 81       	ldd	r30, Y+3	; 0x03
    2efe:	fc 81       	ldd	r31, Y+4	; 0x04
    2f00:	e7 57       	subi	r30, 0x77	; 119
    2f02:	fd 4f       	sbci	r31, 0xFD	; 253
    2f04:	21 81       	ldd	r18, Z+1	; 0x01
    2f06:	30 e0       	ldi	r19, 0x00	; 0
        if (odd == 0) {
            edge = caveColumn[mod(col - 1, 18)].bottom - height + 1;
    2f08:	c7 01       	movw	r24, r14
    2f0a:	41 96       	adiw	r24, 0x11	; 17
            edge = 1;
        }
        drawCaveTop(ptn, i, height, edge, -offsetTop);

        height = caveColumn[col].bottom;
        if (odd == 0) {
    2f0c:	a1 14       	cp	r10, r1
    2f0e:	b1 04       	cpc	r11, r1
    2f10:	39 f0       	breq	.+14     	; 0x2f20 <_Z8drawGamev+0x222>
            edge = caveColumn[mod(col - 1, 18)].bottom - height + 1;
        } else if (odd == 7) {
    2f12:	87 e0       	ldi	r24, 0x07	; 7
    2f14:	a8 16       	cp	r10, r24
    2f16:	b1 04       	cpc	r11, r1
    2f18:	09 f0       	breq	.+2      	; 0x2f1c <_Z8drawGamev+0x21e>
    2f1a:	63 c0       	rjmp	.+198    	; 0x2fe2 <_Z8drawGamev+0x2e4>
            edge = caveColumn[mod(col + 1, 18)].bottom - height + 1;
    2f1c:	c7 01       	movw	r24, r14
    2f1e:	43 96       	adiw	r24, 0x13	; 19
    2f20:	b3 01       	movw	r22, r6
    2f22:	0e 94 77 29 	call	0x52ee	; 0x52ee <__divmodhi4>
    2f26:	fc 01       	movw	r30, r24
    2f28:	ee 0f       	add	r30, r30
    2f2a:	ff 1f       	adc	r31, r31
    2f2c:	e7 57       	subi	r30, 0x77	; 119
    2f2e:	fd 4f       	sbci	r31, 0xFD	; 253
    2f30:	91 81       	ldd	r25, Z+1	; 0x01
    2f32:	89 2f       	mov	r24, r25
    2f34:	90 e0       	ldi	r25, 0x00	; 0
    2f36:	82 1b       	sub	r24, r18
    2f38:	93 0b       	sbc	r25, r19
    2f3a:	01 96       	adiw	r24, 0x01	; 1
        } else {
            edge = 1;
    2f3c:	9c 83       	std	Y+4, r25	; 0x04
    2f3e:	8b 83       	std	Y+3, r24	; 0x03
        }
        drawCaveBottom(ptn, i, 64 - height, edge, offsetBottom);
    2f40:	90 e4       	ldi	r25, 0x40	; 64
    2f42:	e9 2e       	mov	r14, r25
    2f44:	f1 2c       	mov	r15, r1
    2f46:	e2 1a       	sub	r14, r18
    2f48:	f3 0a       	sbc	r15, r19
    }
}

static void drawCaveBottom(uchar ptn, int x, int height, int edge, int offset)
{
    height -= offset;
    2f4a:	e8 18       	sub	r14, r8
    2f4c:	f9 08       	sbc	r15, r9
    if (height < 0) return;
    2f4e:	f7 fc       	sbrc	r15, 7
    2f50:	4b c0       	rjmp	.+150    	; 0x2fe8 <_Z8drawGamev+0x2ea>
    edge = min(max(edge, 1), height);
    2f52:	2b 81       	ldd	r18, Y+3	; 0x03
    2f54:	3c 81       	ldd	r19, Y+4	; 0x04
    2f56:	12 16       	cp	r1, r18
    2f58:	13 06       	cpc	r1, r19
    2f5a:	24 f0       	brlt	.+8      	; 0x2f64 <_Z8drawGamev+0x266>
    2f5c:	81 e0       	ldi	r24, 0x01	; 1
    2f5e:	90 e0       	ldi	r25, 0x00	; 0
    2f60:	9c 83       	std	Y+4, r25	; 0x04
    2f62:	8b 83       	std	Y+3, r24	; 0x03
    2f64:	2b 81       	ldd	r18, Y+3	; 0x03
    2f66:	3c 81       	ldd	r19, Y+4	; 0x04
    2f68:	e2 16       	cp	r14, r18
    2f6a:	f3 06       	cpc	r15, r19
