
ardubullets.ino.elf:     file format elf32-avr


Disassembly of section .text:

00000000 <__vectors>:
       0:	0c 94 bb 05 	jmp	0xb76	; 0xb76 <__ctors_end>
       4:	0c 94 e3 05 	jmp	0xbc6	; 0xbc6 <__bad_interrupt>
       8:	0c 94 e3 05 	jmp	0xbc6	; 0xbc6 <__bad_interrupt>
       c:	0c 94 e3 05 	jmp	0xbc6	; 0xbc6 <__bad_interrupt>
      10:	0c 94 e3 05 	jmp	0xbc6	; 0xbc6 <__bad_interrupt>
      14:	0c 94 e3 05 	jmp	0xbc6	; 0xbc6 <__bad_interrupt>
      18:	0c 94 e3 05 	jmp	0xbc6	; 0xbc6 <__bad_interrupt>
      1c:	0c 94 e3 05 	jmp	0xbc6	; 0xbc6 <__bad_interrupt>
      20:	0c 94 e3 05 	jmp	0xbc6	; 0xbc6 <__bad_interrupt>
      24:	0c 94 e3 05 	jmp	0xbc6	; 0xbc6 <__bad_interrupt>
      28:	0c 94 ca 24 	jmp	0x4994	; 0x4994 <__vector_10>
      2c:	0c 94 39 25 	jmp	0x4a72	; 0x4a72 <__vector_11>
      30:	0c 94 e3 05 	jmp	0xbc6	; 0xbc6 <__bad_interrupt>
      34:	0c 94 e3 05 	jmp	0xbc6	; 0xbc6 <__bad_interrupt>
      38:	0c 94 e3 05 	jmp	0xbc6	; 0xbc6 <__bad_interrupt>
      3c:	0c 94 e3 05 	jmp	0xbc6	; 0xbc6 <__bad_interrupt>
      40:	0c 94 e3 05 	jmp	0xbc6	; 0xbc6 <__bad_interrupt>
      44:	0c 94 2d 28 	jmp	0x505a	; 0x505a <__vector_17>
      48:	0c 94 e3 05 	jmp	0xbc6	; 0xbc6 <__bad_interrupt>
      4c:	0c 94 e3 05 	jmp	0xbc6	; 0xbc6 <__bad_interrupt>
      50:	0c 94 e3 05 	jmp	0xbc6	; 0xbc6 <__bad_interrupt>
      54:	0c 94 e3 05 	jmp	0xbc6	; 0xbc6 <__bad_interrupt>
      58:	0c 94 e3 05 	jmp	0xbc6	; 0xbc6 <__bad_interrupt>
      5c:	0c 94 6b 27 	jmp	0x4ed6	; 0x4ed6 <__vector_23>
      60:	0c 94 e3 05 	jmp	0xbc6	; 0xbc6 <__bad_interrupt>
      64:	0c 94 e3 05 	jmp	0xbc6	; 0xbc6 <__bad_interrupt>
      68:	0c 94 e3 05 	jmp	0xbc6	; 0xbc6 <__bad_interrupt>
      6c:	0c 94 e3 05 	jmp	0xbc6	; 0xbc6 <__bad_interrupt>
      70:	0c 94 e3 05 	jmp	0xbc6	; 0xbc6 <__bad_interrupt>
      74:	0c 94 e3 05 	jmp	0xbc6	; 0xbc6 <__bad_interrupt>
      78:	0c 94 e3 05 	jmp	0xbc6	; 0xbc6 <__bad_interrupt>
      7c:	0c 94 e3 05 	jmp	0xbc6	; 0xbc6 <__bad_interrupt>
      80:	0c 94 b5 27 	jmp	0x4f6a	; 0x4f6a <__vector_32>
      84:	0c 94 e3 05 	jmp	0xbc6	; 0xbc6 <__bad_interrupt>
      88:	0c 94 e3 05 	jmp	0xbc6	; 0xbc6 <__bad_interrupt>
      8c:	0c 94 e3 05 	jmp	0xbc6	; 0xbc6 <__bad_interrupt>
      90:	0c 94 e3 05 	jmp	0xbc6	; 0xbc6 <__bad_interrupt>
      94:	0c 94 e3 05 	jmp	0xbc6	; 0xbc6 <__bad_interrupt>
      98:	0c 94 e3 05 	jmp	0xbc6	; 0xbc6 <__bad_interrupt>
      9c:	0c 94 e3 05 	jmp	0xbc6	; 0xbc6 <__bad_interrupt>
      a0:	0c 94 e3 05 	jmp	0xbc6	; 0xbc6 <__bad_interrupt>
      a4:	0c 94 e3 05 	jmp	0xbc6	; 0xbc6 <__bad_interrupt>
      a8:	0c 94 e3 05 	jmp	0xbc6	; 0xbc6 <__bad_interrupt>
      ac:	08 4a       	sbci	r16, 0xA8	; 168
      ae:	d7 3b       	cpi	r29, 0xB7	; 183
      b0:	3b ce       	rjmp	.-906    	; 0xfffffd28 <__eeprom_end+0xff7efd28>
      b2:	01 6e       	ori	r16, 0xE1	; 225
      b4:	84 bc       	out	0x24, r8	; 36
      b6:	bf fd       	.word	0xfdbf	; ????
      b8:	c1 2f       	mov	r28, r17
      ba:	3d 6c       	ori	r19, 0xCD	; 205
      bc:	74 31       	cpi	r23, 0x14	; 20
      be:	9a bd       	out	0x2a, r25	; 42
      c0:	56 83       	std	Z+6, r21	; 0x06
      c2:	3d da       	rcall	.-2950   	; 0xfffff53e <__eeprom_end+0xff7ef53e>
      c4:	3d 00       	.word	0x003d	; ????
      c6:	c7 7f       	andi	r28, 0xF7	; 247
      c8:	11 be       	out	0x31, r1	; 49
      ca:	d9 e4       	ldi	r29, 0x49	; 73
      cc:	bb 4c       	sbci	r27, 0xCB	; 203
      ce:	3e 91       	ld	r19, -X
      d0:	6b aa       	std	Y+51, r6	; 0x33
      d2:	aa be       	out	0x3a, r10	; 58
      d4:	00 00       	nop
      d6:	00 80       	ld	r0, Z
      d8:	3f 00       	.word	0x003f	; ????

000000da <__trampolines_end>:
      da:	00 00       	nop
      dc:	00 00       	nop
      de:	00 70       	andi	r16, 0x00	; 0
      e0:	01 00       	.word	0x0001	; ????
      e2:	c0 00       	.word	0x00c0	; ????
      e4:	0c 00       	.word	0x000c	; ????
      e6:	ca a7       	std	Y+42, r28	; 0x2a
      e8:	7c 0a       	sbc	r7, r28
      ea:	42 f5       	brpl	.+80     	; 0x13c <__trampolines_end+0x62>
      ec:	55 08       	sbc	r5, r5
      ee:	53 42       	sbci	r21, 0x23	; 35
      f0:	48 19       	sub	r20, r8
      f2:	5e f5       	brtc	.+86     	; 0x14a <__trampolines_end+0x70>
      f4:	51 12       	cpse	r5, r17
      f6:	00 30       	cpi	r16, 0x00	; 0
      f8:	00 00       	nop
      fa:	00 27       	eor	r16, r16
      fc:	45 00       	.word	0x0045	; ????
      fe:	40 94       	com	r4
     100:	1c 00       	.word	0x001c	; ????
     102:	14 f3       	brlt	.-60     	; 0xc8 <__SREG__+0x89>
     104:	19 05       	cpc	r17, r9
     106:	04 f1       	brlt	.+64     	; 0x148 <__trampolines_end+0x6e>
     108:	11 04       	cpc	r1, r1
     10a:	20 04       	cpc	r2, r0
     10c:	00 00       	nop
     10e:	04 41       	sbci	r16, 0x14	; 20
     110:	10 04       	cpc	r1, r0
     112:	00 04       	cpc	r0, r0
     114:	00 00       	nop
     116:	10 42       	sbci	r17, 0x20	; 32
     118:	08 01       	movw	r0, r16
     11a:	5e 14       	cp	r5, r14
     11c:	45 0f       	add	r20, r21
     11e:	40 f0       	brcs	.+16     	; 0x130 <__trampolines_end+0x56>
     120:	01 00       	.word	0x0001	; ????
     122:	59 55       	subi	r21, 0x59	; 89
     124:	55 13       	cpse	r21, r21
     126:	51 55       	subi	r21, 0x51	; 81
     128:	5d 0d       	add	r21, r13
     12a:	8c 92       	st	X, r8
     12c:	7c 08       	sbc	r7, r12
     12e:	57 55       	subi	r21, 0x57	; 87
     130:	55 0d       	add	r21, r5
     132:	5e 55       	subi	r21, 0x5E	; 94
     134:	55 0d       	add	r21, r5
     136:	51 52       	subi	r21, 0x21	; 33
     138:	0c 01       	movw	r0, r24
     13a:	5e 55       	subi	r21, 0x5E	; 94
     13c:	55 0f       	add	r21, r21
     13e:	56 55       	subi	r21, 0x56	; 86
     140:	55 0f       	add	r21, r21
     142:	00 a0       	ldd	r0, Z+32	; 0x20
     144:	00 00       	nop
     146:	00 a4       	ldd	r0, Z+40	; 0x28
     148:	00 00       	nop
     14a:	00 c2       	rjmp	.+1024   	; 0x54c <_ZL8imgReady+0x5d>
     14c:	28 00       	.word	0x0028	; ????
     14e:	80 a2       	std	Z+32, r8	; 0x20
     150:	28 00       	.word	0x0028	; ????
     152:	80 62       	ori	r24, 0x20	; 32
     154:	08 00       	.word	0x0008	; ????
     156:	40 50       	subi	r20, 0x00	; 0
     158:	0d 00       	.word	0x000d	; ????
     15a:	5e 74       	andi	r21, 0x4E	; 78
     15c:	55 07       	cpc	r21, r21
     15e:	9c 92       	st	X, r9
     160:	24 1f       	adc	r18, r20
     162:	5f 55       	subi	r21, 0x5F	; 95
     164:	5d 0d       	add	r21, r13
     166:	9c 14       	cp	r9, r12
     168:	45 11       	cpse	r20, r5
     16a:	5f 14       	cp	r5, r15
     16c:	25 07       	cpc	r18, r21
     16e:	5f 55       	subi	r21, 0x5F	; 95
     170:	55 11       	cpse	r21, r5
     172:	5f 51       	subi	r21, 0x1F	; 31
     174:	14 01       	movw	r2, r8
     176:	5e 54       	subi	r21, 0x4E	; 78
     178:	55 1d       	adc	r21, r5
     17a:	1f 41       	sbci	r17, 0x1F	; 31
     17c:	10 1f       	adc	r17, r16
     17e:	40 f4       	brcc	.+16     	; 0x190 <__trampolines_end+0xb6>
     180:	45 00       	.word	0x0045	; ????
     182:	10 04       	cpc	r1, r0
     184:	21 07       	cpc	r18, r17
     186:	1f 41       	sbci	r17, 0x1F	; 31
     188:	18 1d       	adc	r17, r8
     18a:	1f 04       	cpc	r1, r15
     18c:	41 10       	cpse	r4, r1
     18e:	5e f0       	brts	.+22     	; 0x1a6 <__trampolines_end+0xcc>
     190:	04 1f       	adc	r16, r20
     192:	9c 10       	cpse	r9, r12
     194:	04 1f       	adc	r16, r20
     196:	5e 54       	subi	r21, 0x4E	; 78
     198:	45 0f       	add	r20, r21
     19a:	5f 92       	push	r5
     19c:	14 03       	mulsu	r17, r20
     19e:	5e d4       	rcall	.+2236   	; 0xa5c <_ZL8imgTitle+0xfd>
     1a0:	45 1f       	adc	r20, r21
     1a2:	5f 92       	push	r5
     1a4:	34 1b       	sub	r19, r20
     1a6:	56 55       	subi	r21, 0x56	; 86
     1a8:	55 0d       	add	r21, r5
     1aa:	41 f0       	breq	.+16     	; 0x1bc <__trampolines_end+0xe2>
     1ac:	05 01       	movw	r0, r10
     1ae:	1f 04       	cpc	r1, r15
     1b0:	21 07       	cpc	r18, r17
     1b2:	1f 42       	sbci	r17, 0x2F	; 47
     1b4:	08 01       	movw	r0, r16
     1b6:	1f e4       	ldi	r17, 0x4F	; 79
     1b8:	41 0f       	add	r20, r17
     1ba:	17 43       	sbci	r17, 0x37	; 55
     1bc:	18 1d       	adc	r17, r8
     1be:	07 c1       	rjmp	.+526    	; 0x3ce <_ZL8imgExplo+0x8b>
     1c0:	09 01       	movw	r0, r18
     1c2:	51 56       	subi	r21, 0x61	; 97
     1c4:	4d 11       	cpse	r20, r13
     1c6:	00 f0       	brcs	.+0      	; 0x1c8 <__trampolines_end+0xee>
     1c8:	45 00       	.word	0x0045	; ????
     1ca:	00 f0       	brcs	.+0      	; 0x1cc <__trampolines_end+0xf2>
     1cc:	01 00       	.word	0x0001	; ????
     1ce:	40 f4       	brcc	.+16     	; 0x1e0 <_ZL23midiWordNoteFrequencies+0x6>
     1d0:	01 00       	.word	0x0001	; ????
     1d2:	80 10       	cpse	r8, r0
     1d4:	0c 00       	.word	0x000c	; ????
     1d6:	10 04       	cpc	r1, r0
     1d8:	41 10       	cpse	r4, r1

000001da <_ZL23midiWordNoteFrequencies>:
     1da:	05 01 15 01 25 01 37 01 49 01 5d 01 72 01 88 01     ....%.7.I.].r...
     1ea:	9f 01 b8 01 d2 01 ee 01 0b 02 2a 02 4b 02 6e 02     ..........*.K.n.
     1fa:	93 02 ba 02 e4 02 10 03 3e 03 70 03 a4 03 dc 03     ........>.p.....
     20a:	16 04 54 04 96 04 dc 04 26 05 75 05 c8 05 20 06     ..T.....&.u... .
     21a:	7d 06 e0 06 48 07 b7 07 2d 08 a9 08 2d 09 b9 09     }...H...-...-...
     22a:	4d 0a ea 0a 90 0b 40 0c fa 0c c0 0d 91 0e 6f 0f     M.....@.......o.
     23a:	5a 10 53 11 5a 12 72 13 9a 14 d3 15 20 17 80 18     Z.S.Z.r..... ...
     24a:	f5 19 80 1b 22 1d de 1e b4 20 a6 22 b5 24 e4 26     ....".... .".$.&
     25a:	34 29 a7 2b 40 2e 00 31                             4).+@..1

00000262 <_ZL23midiByteNoteFrequencies>:
     262:	08 08 09 09 0a 0b 0b 0c 0d 0e 0e 0f 10 11 12 13     ................
     272:	14 16 17 18 1a 1b 1d 1f 20 22 24 27 29 2b 2e 31     ........ "$')+.1
     282:	34 37 3a 3d 41 45 49 4e 52 57 5c 62 68 6e 74 7b     47:=AEINRW\bhnt{
     292:	83 8a 93 9b a5 ae b9 c4 cf dc e9 f7                 ............

0000029e <_ZL13tuneNoteTable>:
     29e:	00 01 02 03 04 06 08 0c 00 f4 f8 fa fc fd fe ff     ................

000002ae <_ZL10imgButtons>:
     2ae:	3e 47 6b 6d 6d 41 3e 3e 41 55 55 51 65 3e           >GkmmA>>AUUQe>

000002bc <_ZL9sineTable>:
     2bc:	00 03 06 09 0c 0f 12 15 18 1c 1f 22 25 28 2b 2e     ..........."%(+.
     2cc:	30 33 36 39 3c 3f 41 44 47 49 4c 4e 51 53 55 58     0369<?ADGILNQSUX
     2dc:	5a 5c 5e 60 62 64 66 68 6a 6c 6d 6f 70 72 73 75     Z\^`bdfhjlmoprsu
     2ec:	76 77 78 79 7a 7b 7c 7c 7d 7e 7e 7f 7f 7f 7f 7f     vwxyz{||}~~.....
     2fc:	80                                                  .

000002fd <_ZL10soundStart>:
     2fd:	90 48 00 64 90 4a 00 64 90 4c 00 64 90 4d 00 64     .H.d.J.d.L.d.M.d
     30d:	90 4f 00 c8 80 f0                                   .O....

00000313 <_ZL16handlerFuncTable.lto_priv.54>:
     313:	a2 24 3b 24 ed 23                                   .$;$.#

00000319 <_ZL9imgPlayer>:
     319:	36 7f 77 55 14 08 08                                6.wU...

00000320 <_ZL8imgEnemy>:
     320:	08 2a 6b 7f 3e 2a 08 1c 3e 36 63 7f 63 41 08 1c     .*k.>*..>6c.cA..
     330:	49 5d 7f 2a 49 14 3e 7f 6b 63 22 14 77 5d 55 1c     I].*I.>.kc".w]U.
     340:	3e 36 22                                            >6"

00000343 <_ZL8imgExplo>:
     343:	00 00 00 c0 f0 f0 f8 f8 f8 f0 f0 c0 00 00 00 00     ................
     353:	00 00 01 07 07 0f 0f 0f 07 07 01 00 00 00 00 e0     ................
     363:	f8 fc fc fe fe fe fe fe fc fc f8 e0 00 00 03 0f     ................
     373:	1f 1f 3f 3f 3f 3f 3f 1f 1f 0f 03 00 e0 f8 fc fe     ..?????.........
     383:	fe ff 3f 3f 3f ff fe fe fc f8 e0 03 0f 1f 3f 3f     ..???.........??
     393:	7f 7e 7e 7e 7f 3f 3f 1f 0f 03 e0 f8 fc fe 3e 1f     .~~~.??.......>.
     3a3:	0f 0f 0f 1f 3e fe fc f8 e0 03 0f 1f 3f 3e 7c 78     ....>.......?>|x
     3b3:	78 78 7c 3e 3f 1f 0f 03 e0 f8 1c 0e 06 03 03 03     xx|>?...........
     3c3:	03 03 06 0e 1c f8 e0 03 0f 1c 38 30 60 60 60 60     ..........80````
     3d3:	60 30 38 1c 0f 03 e0 18 04 02 02 01 01 01 01 01     `08.............
     3e3:	02 02 04 18 e0 03 0c 10 20 20 40 40 40 40 40 20     ........  @@@@@ 
     3f3:	20 10 0c 03                                          ...

000003f7 <_ZZL11drawLettersvE3__c_0>:
     3f7:	54 49 54 4c 45 00                                   TITLE.

000003fd <_ZZL11drawLettersvE3__c>:
     3fd:	52 45 54 52 59 00                                   RETRY.

00000403 <_ZL12imgCompleted>:
     403:	fc fe fe 06 3e 3e 3c 00 e0 f0 f0 30 f0 f0 e0 00     ....>><....0....
     413:	f0 f0 f0 20 f0 f0 e0 20 f0 f0 e0 00 f0 f0 f0 20     ... ... ....... 
     423:	f0 f0 e0 00 fe fe fe 00 e0 f0 f0 b0 f0 f0 e0 00     ................
     433:	fc fc fc 30 00 e0 f0 f0 b0 f0 f0 e0 00 e0 f0 f0     ...0............
     443:	20 fe fe fe 00 fe fe fe 1f 3f 3f 30 3f 1f 0f 00      ........??0?...
     453:	1f 3f 3f 30 3f 3f 1f 00 3f 3f 3f 00 3f 3f 3f 00     .??0??..???.???.
     463:	3f 3f 3f 00 7f 7f 7f 10 3f 3f 1f 00 3f 3f 3f 00     ???.....??..???.
     473:	1f 3f 3f 31 3d 3d 1d 00 3f 3f 3f 30 00 1f 3f 3f     .??1==..???0..??
     483:	31 3d 3d 1d 00 1f 3f 3f 10 3f 3f 3f 00 3b 3b 3b     1==...??.???.;;;

00000493 <_ZL9imgFailed>:
     493:	fe fe fe c6 c6 00 e0 f0 f0 30 f0 f0 e0 00 f6 f6     .........0......
     4a3:	f6 00 fe fe fe 00 e0 f0 f0 b0 f0 f0 e0 00 e0 f0     ................
     4b3:	f0 20 fe fe fe 00 00 00 00 00 00 00 00 00 3f 3f     . ............??
     4c3:	3f 00 00 00 1e 3e 3e 13 3f 3f 3f 00 3f 3f 3f 00     ?....>>.???.???.
     4d3:	3f 3f 3f 00 1f 3f 3f 31 3d 3d 1d 00 1f 3f 3f 10     ???..??1==...??.
     4e3:	3f 3f 3f 00 38 38 00 38 38 00 38 38                 ???.88.88.88

000004ef <_ZL8imgReady>:
     4ef:	fe fe fe c6 fe fe 7c 00 e0 f0 f0 b0 f0 f0 e0 00     ......|.........
     4ff:	e0 f0 f0 30 f0 f0 e0 00 e0 f0 f0 20 fe fe fe 00     ...0....... ....
     50f:	70 f0 f0 80 00 f0 f0 70 00 dc de de 86 fe fc f8     p......p........
     51f:	3f 3f 3f 00 3f 3f 3f 00 1f 3f 3f 31 3d 3d 1d 00     ???.???..??1==..
     52f:	1e 3e 3e 13 3f 3f 3f 00 1f 3f 3f 10 3f 3f 3f 00     .>>.???..??.???.
     53f:	00 63 7f 7f 78 7f 1f 00 00 3b 3b 3b 01 01 01 00     .c..x....;;;....

0000054f <_ZL10soundClear>:
     54f:	90 51 00 28 80 00 28 90 56 00 28 80 00 28 90 5a     .Q.(..(.V.(..(.Z
     55f:	00 28 80 00 28 e3 f0                                .(..(..

00000566 <_ZL9soundOver>:
     566:	de 94 50 00 08 94 47 00 08 94 4c 00 08 94 43 00     ..P...G...L...C.
     576:	08 e4 80 f0                                         ....

0000057a <_ZZL12openGameMenuvE3__c_1>:
     57a:	42 41 43 4b 20 54 4f 20 54 49 54 4c 45 00           BACK TO TITLE.

00000588 <_ZZL12openGameMenuvE3__c_0>:
     588:	52 45 54 52 59 00                                   RETRY.

0000058e <_ZZL12openGameMenuvE3__c>:
     58e:	43 4f 4e 54 49 4e 55 45 00                          CONTINUE.

00000597 <_ZL9ledValues>:
     597:	55 0e 64 4f 0f 5d                                   U.dO.]

0000059d <_ZL11soundDefeat>:
     59d:	dd 9c 5d 00 0a 9c 51 00 0a e3 80 f0                 ..]...Q.....

000005a9 <_ZL10soundEntry>:
     5a9:	90 4c 00 0a 90 49 00 0a 80 f0                       .L...I....

000005b3 <_ZZ14setConfirmMenuaPFvvES0_E3__c_0>:
     5b3:	43 41 4e 43 45 4c 00                                CANCEL.

000005ba <_ZZ14setConfirmMenuaPFvvES0_E3__c>:
     5ba:	4f 4b 00                                            OK.

000005bd <_ZZL19drawLettersGameSeedvE3__c>:
     5bd:	50 41 54 54 45 52 4e 3a 00                          PATTERN:.

000005c6 <_ZZ8drawLogovE3__c>:
     5c6:	4f 42 4e 2d 59 31 33 20 56 45 52 20 30 2e 31 31     OBN-Y13 VER 0.11
	...

000005d7 <_ZL7imgSoft>:
     5d7:	c0 c6 cf df ff fb 73 03 7c fe ff c7 e3 ff 7f 3e     ......s.|......>
     5e7:	00 ff ff ff 1b 1b 1b 03 00 03 03 ff ff ff 03 03     ................

000005f7 <_ZL6imgOBN>:
	...
     5ff:	80 80 80 80 00 00 00 00 00 00 00 00 00 00 00 00     ................
     60f:	80 e0 f0 58 ac 56 ab 55 ab 55 00 ff 01 01 01 02     ...X.V.U.U......
     61f:	02 04 08 10 60 80 00 00 3f ff aa 55 aa 55 aa 55     ....`...?..U.U.U
     62f:	aa 55 a8 5f ac 5c ac 5c ac 5c ac 5c 0c cf 3c 00     .U._.\.\.\.\..<.
     63f:	00 00 01 03 06 0d 1a 15 2a 25 2a 25 2a 25 22 15     ........*%*%*%".
     64f:	12 09 04 02 01 00 00 00 ff ff 57 ab 57 ab 57 ab     ..........W.W.W.
     65f:	57 ab 03 ff 80 80 80 00 00 00 00 00 00 00 00 00     W...............
     66f:	ff ff 55 aa 55 aa 55 aa 55 aa 00 ff 00 00 00 01     ..U.U.U.U.......
     67f:	01 02 04 08 30 c0 00 00 1f 7f d5 aa 55 aa 55 aa     ....0.......U.U.
     68f:	55 aa 54 af 56 ae 56 ae 56 ae 56 2e 86 67 1e 00     U.T.V.V.V.V..g..
     69f:	00 00 00 01 03 06 0d 0a 15 12 15 12 15 12 11 0a     ................
     6af:	09 04 02 01 00 00 00 00 00 00 00 00 00 00 80 80     ................
     6bf:	c0 c0 c0 c0 80 80 80 00 00 00 00 00 00 00 00 00     ................
     6cf:	c0 f0 78 ac 56 ab 55 aa 55 aa 00 ff 00 00 00 01     ..x.V.U.U.......
     6df:	01 02 04 08 30 c0 00 00 ff ff 55 aa 55 aa 55 aa     ....0.....U.U.U.
     6ef:	55 aa 00 ff fe ae 56 ae 56 ae 56 ae 56 07 fe 00     U.....V.V.V.V...
     6ff:	1f 17 15 12 15 12 15 12 15 12 10 1f 17 12 15 12     ................
     70f:	15 12 15 12 15 10 1f 00                             ........

00000717 <_ZL13imgSoundOffOn>:
     717:	00 00 a0 40 a0 00 28 10 44 38 82 7c                 ...@..(.D8.|

00000723 <_ZL8imgSound>:
     723:	00 7c 8e d6 da da 82 7c 00 38 38 00 38 7c fe 00     .|.....|.88.8|..

00000733 <port_to_mode_PGM>:
     733:	00 00 00 00 24 00 27 00 2a 00 2d 00 30 00           ....$.'.*.-.0.

00000741 <port_to_output_PGM>:
     741:	00 00 00 00 25 00 28 00 2b 00 2e 00 31 00           ....%.(.+...1.

0000074f <digital_pin_to_bit_mask_PGM>:
     74f:	04 08 02 01 10 40 80 40 10 20 40 80 40 80 08 02     .....@.@. @.@...
     75f:	04 01 80 40 20 10 02 01 10 80 10 20 40 40 20        ...@ ...... @@ 

0000076e <digital_pin_to_port_PGM>:
     76e:	04 04 04 04 04 03 04 05 02 02 02 02 04 03 02 02     ................
     77e:	02 02 06 06 06 06 06 06 04 04 02 02 02 04 04        ...............

0000078d <_ZL16handlerFuncTable.lto_priv.55>:
     78d:	00 00 d3 10 42 11 79 0f 0d 10                       ....B.y...

00000797 <_ZL15drawerFuncTable>:
     797:	00 00 88 1b e4 1a d1 17 a9 14                       ..........

000007a1 <_ZZL5onTopvE3__c_2>:
     7a1:	43 52 45 44 49 54 00                                CREDIT.

000007a8 <_ZZL5onTopvE3__c_1>:
     7a8:	53 45 54 54 49 4e 47 53 00                          SETTINGS.

000007b1 <_ZZL5onTopvE3__c_0>:
     7b1:	4e 45 57 20 42 41 54 54 4c 45 00                    NEW BATTLE.

000007bc <_ZZL5onTopvE3__c>:
     7bc:	52 45 54 52 59 00                                   RETRY.

000007c2 <_ZZL10onSettingsvE3__c_3>:
     7c2:	45 58 49 54 00                                      EXIT.

000007c7 <_ZZL10onSettingsvE3__c_2>:
     7c7:	44 45 54 45 43 54 20 45 44 47 45 00                 DETECT EDGE.

000007d3 <_ZZL10onSettingsvE3__c_1>:
     7d3:	4c 45 44 20 42 4c 49 4e 4b 00                       LED BLINK.

000007dd <_ZZL10onSettingsvE3__c_0>:
     7dd:	50 41 54 54 45 52 4e 00                             PATTERN.

000007e5 <_ZZL10onSettingsvE3__c>:
     7e5:	44 49 46 46 49 43 55 4c 54 59 00                    DIFFICULTY.

000007f0 <_ZL7imgJetR>:
     7f0:	0c 0e 06 03 03 03 06 0e 04 0c 0e 1e 0f 0f 0f 0e     ................
     800:	0e 04 0c 0e 1e 1f 1f 1f 0e 0e 04                    ...........

0000080b <_ZL7imgJetL>:
     80b:	70 fc 0e 06 03 03 03 70 fc 7e 3e 0f 0f 0f 70 fc     p......p.~>...p.
     81b:	7e 3e 3f 1f 0f                                      ~>?..

00000820 <_ZL11imgSubTitle>:
	...
     828:	00 80 7e 1f bc 78 e0 c0 c0 80 80 80 80 40 40 20     ..~..x.......@@ 
     838:	b0 58 ac 5c b8 78 f0 e0 c0 00 00 00 00 80 40 20     .X.\.x........@ 
     848:	a0 10 88 47 a0 50 aa 55 aa f5 0b e7 06 0c 0a 1c     ...G.P.U........
     858:	7a f5 fa fd 7e 03 01 01 02 05 0b 07 0e 31 49 94     z...~........1I.
     868:	ba 7d fe ed c6 07 07 09 12 25 4a 55 8a 95 2b 56     .}.......%JU..+V
     878:	30 50 b8 7f ff ff fc e0 00 00 00 00 00 00 00 00     0P..............
     888:	00 00 00 01 02 05 07 03 00 00 00 00 00 00 00 00     ................
     898:	01 01 02 04 08 15 2a 55 6f df ff 78 00 00 00 00     ......*Uo..x....

000008a8 <_ZZL12drawSettingsvE3__c_5>:
     8a8:	4f 46 46 00                                         OFF.

000008ac <_ZZL12drawSettingsvE3__c_4>:
     8ac:	4f 4e 20 00                                         ON .

000008b0 <_ZZL12drawSettingsvE3__c_3>:
     8b0:	52 41 4e 44 4f 4d 20 00                             RANDOM .

000008b8 <_ZZL12drawSettingsvE3__c_2>:
     8b8:	53 50 45 43 49 46 59 00                             SPECIFY.

000008c0 <_ZZL12drawSettingsvE3__c_1>:
     8c0:	50 4c 41 59 20 54 49 4d 45 00                       PLAY TIME.

000008ca <_ZZL12drawSettingsvE3__c_0>:
     8ca:	50 4c 41 59 20 43 4f 55 4e 54 20 00                 PLAY COUNT .

000008d6 <_ZZL12drawSettingsvE3__c>:
     8d6:	5b 53 45 54 54 49 4e 47 53 5d 00                    [SETTINGS].

000008e1 <_ZL10creditText>:
     8e1:	2d 20 41 52 44 55 42 55 4c 4c 45 54 20 2d 00 00     - ARDUBULLET -..
     8f1:	00 4d 41 52 43 48 20 32 30 32 30 00 50 52 4f 47     .MARCH 2020.PROG
     901:	52 45 4d 4d 45 44 20 42 59 20 4f 42 4f 4e 4f 00     REMMED BY OBONO.
     911:	00 54 48 49 53 20 50 52 4f 47 52 41 4d 20 49 53     .THIS PROGRAM IS
     921:	00 52 45 4c 45 41 53 45 44 20 55 4e 44 45 52 00     .RELEASED UNDER.
     931:	54 48 45 20 4d 49 54 20 4c 49 43 45 4e 53 45 2e     THE MIT LICENSE.
     941:	00 1b 00                                            ...

00000944 <_ZL11imgSpinners>:
     944:	08 0c 0e 0e 0c 08 01 03 07 07 03 01                 ............

00000950 <_ZZL13drawCodeEntryvE3__c>:
     950:	43 41 4e 43 45 4c 20 20 20 53 54 41 52 54 00        CANCEL   START.

0000095f <_ZL8imgTitle>:
     95f:	00 00 f8 ff ff ff 0f ff ff ff f0 00 00 00 ff ff     ................
     96f:	ff ff ff 0f 0f ff ff ff fe fc 00 ff ff ff ff ff     ................
     97f:	0f 0f ff ff fe fe fc 00 ff ff ff ff ff 00 00 ff     ................
     98f:	ff ff ff ff 00 ff ff ff ff ff 0f 0f ff ff fe fe     ................
     99f:	f8 00 ff ff ff ff ff 00 00 ff ff ff ff ff 00 ff     ................
     9af:	ff ff ff ff 00 00 00 00 ff ff ff ff ff 00 00 00     ................
     9bf:	00 ff ff ff ff ff 0f 0f 0f 00 0f 0f 0f ff ff ff     ................
     9cf:	ff ff 0f 0f 0f e0 f0 f8 f8 f8 38 38 f8 f0 f0 e0     ..........88....
     9df:	80 fe ff ff ff e3 e0 e3 ff ff ff fc 80 00 ff ff     ................
     9ef:	ff ff ff 0f 0f ff ff ff fb f1 00 ff ff ff ff ff     ................
     9ff:	00 00 ff ff ff ff ff 00 ff ff ff ff ff 00 00 ff     ................
     a0f:	ff ff ff ff 00 ff ff ff ff ff 0f 0f ff ff fd fd     ................
     a1f:	f8 00 ff ff ff ff ff 00 00 ff ff ff ff ff 00 ff     ................
     a2f:	ff ff ff ff 00 00 00 00 ff ff ff ff ff 00 00 00     ................
     a3f:	00 ff ff ff ff ff 0f 0f 0f 00 00 00 00 ff ff ff     ................
     a4f:	ff ff 00 00 00 87 8f 9f 9f 3f 7e fc fd f9 f1 e1     .........?~.....
     a5f:	1f 1f 1f 1f 1f 01 01 01 1f 1f 1f 1f 1f 00 1f 1f     ................
     a6f:	1f 1f 1f 00 00 1f 1f 1f 1f 1f 00 1f 1f 1f 1f 1f     ................
     a7f:	1e 1e 1f 1f 1f 0f 07 00 03 07 0f 1f 1f 1e 1e 1f     ................
     a8f:	1f 0f 0f 03 00 1f 1f 1f 1f 1f 1e 1e 1f 1f 1f 0f     ................
     a9f:	07 00 03 07 0f 1f 1f 1e 1e 1f 1f 0f 0f 03 00 1f     ................
     aaf:	1f 1f 1f 1f 1e 1e 1e 00 1f 1f 1f 1f 1f 1e 1e 1e     ................
     abf:	00 1f 1f 1f 1f 1f 1e 1e 1e 1e 00 00 00 1f 1f 1f     ................
     acf:	1f 1f 00 00 00 07 0f 0f 1f 1c 1c 1f 1f 0f 0f 07     ................

00000adf <_ZN12Arduboy2Core14lcdBootProgramE>:
     adf:	d5 f0 8d 14 a1 c8 81 cf d9 f1 af 20 00              ........... .

00000aec <_ZL11moduleTable>:
     aec:	b1 0a a8 0a 20 15 24 19 94 18 7d 0a c9 18 7e 11     .... .$...}...~.
     afc:	f8 1b                                               ..

00000afe <_cdcInterface>:
     afe:	08 0b 00 02 02 02 00 00 09 04 00 00 01 02 02 00     ................
     b0e:	00 05 24 00 10 01 05 24 01 01 01 04 24 02 06 05     ..$....$....$...
     b1e:	24 06 00 01 07 05 81 03 10 00 40 09 04 01 00 02     $.........@.....
     b2e:	0a 00 00 00 07 05 02 02 40 00 00 07 05 83 02 40     ........@......@
	...

00000b40 <STRING_LANGUAGE>:
     b40:	04 03 09 04                                         ....

00000b44 <USB_DeviceDescriptorIAD>:
     b44:	12 01 00 02 ef 02 01 40 41 23 36 80 00 01 01 02     .......@A#6.....
     b54:	03 01                                               ..

00000b56 <STRING_MANUFACTURER>:
     b56:	41 72 64 75 69 6e 6f 20 4c 4c 43 00                 Arduino LLC.

00000b62 <STRING_PRODUCT>:
     b62:	41 72 64 75 69 6e 6f 20 4c 65 6f 6e 61 72 64 6f     Arduino Leonardo
	...

00000b74 <__ctors_start>:
     b74:	09 29       	or	r16, r9

00000b76 <__ctors_end>:
     b76:	11 24       	eor	r1, r1
     b78:	1f be       	out	0x3f, r1	; 63
     b7a:	cf ef       	ldi	r28, 0xFF	; 255
     b7c:	da e0       	ldi	r29, 0x0A	; 10
     b7e:	de bf       	out	0x3e, r29	; 62
     b80:	cd bf       	out	0x3d, r28	; 61

00000b82 <__do_copy_data>:
     b82:	11 e0       	ldi	r17, 0x01	; 1
     b84:	a0 e0       	ldi	r26, 0x00	; 0
     b86:	b1 e0       	ldi	r27, 0x01	; 1
     b88:	e0 ee       	ldi	r30, 0xE0	; 224
     b8a:	ff e5       	ldi	r31, 0x5F	; 95
     b8c:	02 c0       	rjmp	.+4      	; 0xb92 <__do_copy_data+0x10>
     b8e:	05 90       	lpm	r0, Z+
     b90:	0d 92       	st	X+, r0
     b92:	a0 34       	cpi	r26, 0x40	; 64
     b94:	b1 07       	cpc	r27, r17
     b96:	d9 f7       	brne	.-10     	; 0xb8e <__do_copy_data+0xc>

00000b98 <__do_clear_bss>:
     b98:	27 e0       	ldi	r18, 0x07	; 7
     b9a:	a0 e4       	ldi	r26, 0x40	; 64
     b9c:	b1 e0       	ldi	r27, 0x01	; 1
     b9e:	01 c0       	rjmp	.+2      	; 0xba2 <.do_clear_bss_start>

00000ba0 <.do_clear_bss_loop>:
     ba0:	1d 92       	st	X+, r1

00000ba2 <.do_clear_bss_start>:
     ba2:	a3 3e       	cpi	r26, 0xE3	; 227
     ba4:	b2 07       	cpc	r27, r18
     ba6:	e1 f7       	brne	.-8      	; 0xba0 <.do_clear_bss_loop>

00000ba8 <__do_global_ctors>:
     ba8:	15 e0       	ldi	r17, 0x05	; 5
     baa:	cb eb       	ldi	r28, 0xBB	; 187
     bac:	d5 e0       	ldi	r29, 0x05	; 5
     bae:	04 c0       	rjmp	.+8      	; 0xbb8 <__do_global_ctors+0x10>
     bb0:	21 97       	sbiw	r28, 0x01	; 1
     bb2:	fe 01       	movw	r30, r28
     bb4:	0e 94 e8 2f 	call	0x5fd0	; 0x5fd0 <__tablejump2__>
     bb8:	ca 3b       	cpi	r28, 0xBA	; 186
     bba:	d1 07       	cpc	r29, r17
     bbc:	c9 f7       	brne	.-14     	; 0xbb0 <__do_global_ctors+0x8>
     bbe:	0e 94 26 29 	call	0x524c	; 0x524c <main>
     bc2:	0c 94 ee 2f 	jmp	0x5fdc	; 0x5fdc <_exit>

00000bc6 <__bad_interrupt>:
     bc6:	0c 94 00 00 	jmp	0	; 0x0 <__vectors>

00000bca <_ZN12Arduboy2Core11paintScreenEPhb.constprop.46>:
    : [spdr]    "I"   (_SFR_IO_ADDR(SPDR)),
      [spsr]    "I"   (_SFR_IO_ADDR(SPSR)),
      [len_msb] "M"   (WIDTH * (HEIGHT / 8 * 2) >> 8),   // 8: pixels per byte
      [len_lsb] "M"   (WIDTH * (HEIGHT / 8 * 2) & 0xFF), // 2: for delay loop multiplier
      [clear]   "r"   (clear)
  );
     bca:	ed e8       	ldi	r30, 0x8D	; 141
     bcc:	f3 e0       	ldi	r31, 0x03	; 3
     bce:	80 e0       	ldi	r24, 0x00	; 0
     bd0:	a0 e0       	ldi	r26, 0x00	; 0
     bd2:	b8 e0       	ldi	r27, 0x08	; 8
     bd4:	00 80       	ld	r0, Z
     bd6:	0e bc       	out	0x2e, r0	; 46
     bd8:	81 11       	cpse	r24, r1
     bda:	01 2c       	mov	r0, r1
     bdc:	11 97       	sbiw	r26, 0x01	; 1
     bde:	a0 fd       	sbrc	r26, 0
     be0:	fd cf       	rjmp	.-6      	; 0xbdc <_ZN12Arduboy2Core11paintScreenEPhb.constprop.46+0x12>
     be2:	01 92       	st	Z+, r0
     be4:	b9 f7       	brne	.-18     	; 0xbd4 <_ZN12Arduboy2Core11paintScreenEPhb.constprop.46+0xa>
     be6:	0d b4       	in	r0, 0x2d	; 45
}
     be8:	08 95       	ret

00000bea <_ZN10MyArduboy210buttonDownEh.constprop.43>:
    return ret;
}

bool MyArduboy2::buttonDown(uint8_t buttons)
{
    return currentButtonState & ~lastButtonState & buttons;
     bea:	20 91 e1 07 	lds	r18, 0x07E1	; 0x8007e1 <arduboy+0x4>
     bee:	30 e0       	ldi	r19, 0x00	; 0
     bf0:	20 95       	com	r18
     bf2:	30 95       	com	r19
     bf4:	40 91 e2 07 	lds	r20, 0x07E2	; 0x8007e2 <arduboy+0x5>
     bf8:	50 e0       	ldi	r21, 0x00	; 0
     bfa:	24 23       	and	r18, r20
     bfc:	35 23       	and	r19, r21
     bfe:	90 e0       	ldi	r25, 0x00	; 0
     c00:	28 23       	and	r18, r24
     c02:	39 23       	and	r19, r25
     c04:	81 e0       	ldi	r24, 0x01	; 1
     c06:	23 2b       	or	r18, r19
     c08:	09 f4       	brne	.+2      	; 0xc0c <_ZN10MyArduboy210buttonDownEh.constprop.43+0x22>
     c0a:	80 e0       	ldi	r24, 0x00	; 0
}
     c0c:	08 95       	ret

00000c0e <_ZN10MyArduboy213drawFastVLineEiiah.constprop.41>:
    drawFastHLine(x, y + h - 1, w, color);
    drawFastVLine(x, y + 1, h - 2, color);
    drawFastVLine(x + w - 1, y + 1, h - 2, color);
}

void MyArduboy2::drawFastVLine(int16_t x, int16_t y, int8_t h, uint8_t color)
     c0e:	cf 93       	push	r28
     c10:	df 93       	push	r29
     c12:	dc 01       	movw	r26, r24
{
    /*  Check parameters  */
    if (y < 0) {
     c14:	77 ff       	sbrs	r23, 7
     c16:	13 c0       	rjmp	.+38     	; 0xc3e <_ZN10MyArduboy213drawFastVLineEiiah.constprop.41+0x30>
        if (h <= -y) return;
     c18:	22 27       	eor	r18, r18
     c1a:	33 27       	eor	r19, r19
     c1c:	26 1b       	sub	r18, r22
     c1e:	37 0b       	sbc	r19, r23
     c20:	84 2f       	mov	r24, r20
     c22:	04 2e       	mov	r0, r20
     c24:	00 0c       	add	r0, r0
     c26:	99 0b       	sbc	r25, r25
     c28:	28 17       	cp	r18, r24
     c2a:	39 07       	cpc	r19, r25
     c2c:	2c f4       	brge	.+10     	; 0xc38 <_ZN10MyArduboy213drawFastVLineEiiah.constprop.41+0x2a>
        h += y;
     c2e:	46 0f       	add	r20, r22
        y = 0;
     c30:	70 e0       	ldi	r23, 0x00	; 0
     c32:	60 e0       	ldi	r22, 0x00	; 0
    }
    if (h <= 0 || y >= HEIGHT || x < 0 || x >= WIDTH) return;
     c34:	14 16       	cp	r1, r20
     c36:	44 f0       	brlt	.+16     	; 0xc48 <_ZN10MyArduboy213drawFastVLineEiiah.constprop.41+0x3a>
        } else {
            *p |= d;
        }
        d = 0xFF;
    }
}
     c38:	df 91       	pop	r29
     c3a:	cf 91       	pop	r28
     c3c:	08 95       	ret
    if (y < 0) {
        if (h <= -y) return;
        h += y;
        y = 0;
    }
    if (h <= 0 || y >= HEIGHT || x < 0 || x >= WIDTH) return;
     c3e:	14 16       	cp	r1, r20
     c40:	dc f7       	brge	.-10     	; 0xc38 <_ZN10MyArduboy213drawFastVLineEiiah.constprop.41+0x2a>
     c42:	60 34       	cpi	r22, 0x40	; 64
     c44:	71 05       	cpc	r23, r1
     c46:	c4 f7       	brge	.-16     	; 0xc38 <_ZN10MyArduboy213drawFastVLineEiiah.constprop.41+0x2a>
     c48:	a0 38       	cpi	r26, 0x80	; 128
     c4a:	b1 05       	cpc	r27, r1
     c4c:	a8 f7       	brcc	.-22     	; 0xc38 <_ZN10MyArduboy213drawFastVLineEiiah.constprop.41+0x2a>
     c4e:	26 2f       	mov	r18, r22
    if (y + h > HEIGHT) h = HEIGHT - y;
     c50:	cb 01       	movw	r24, r22
     c52:	84 0f       	add	r24, r20
     c54:	91 1d       	adc	r25, r1
     c56:	47 fd       	sbrc	r20, 7
     c58:	9a 95       	dec	r25
     c5a:	81 34       	cpi	r24, 0x41	; 65
     c5c:	91 05       	cpc	r25, r1
     c5e:	14 f0       	brlt	.+4      	; 0xc64 <_ZN10MyArduboy213drawFastVLineEiiah.constprop.41+0x56>
     c60:	40 e4       	ldi	r20, 0x40	; 64
     c62:	46 1b       	sub	r20, r22

    /*  Draw a vertical line  */
    uint8_t yOdd = y & 7;
     c64:	27 70       	andi	r18, 0x07	; 7
    uint8_t d = 0xFF << yOdd;
     c66:	9f ef       	ldi	r25, 0xFF	; 255
     c68:	02 2e       	mov	r0, r18
     c6a:	01 c0       	rjmp	.+2      	; 0xc6e <_ZN10MyArduboy213drawFastVLineEiiah.constprop.41+0x60>
     c6c:	99 0f       	add	r25, r25
     c6e:	0a 94       	dec	r0
     c70:	ea f7       	brpl	.-6      	; 0xc6c <_ZN10MyArduboy213drawFastVLineEiiah.constprop.41+0x5e>
    y -= yOdd;
    h += yOdd;
     c72:	42 0f       	add	r20, r18
    for (uint8_t *p = getBuffer() + x + (y / 8) * WIDTH; h > 0; h -= 8, p += WIDTH) {
     c74:	62 1b       	sub	r22, r18
     c76:	71 09       	sbc	r23, r1
     c78:	77 ff       	sbrs	r23, 7
     c7a:	02 c0       	rjmp	.+4      	; 0xc80 <_ZN10MyArduboy213drawFastVLineEiiah.constprop.41+0x72>
     c7c:	69 5f       	subi	r22, 0xF9	; 249
     c7e:	7f 4f       	sbci	r23, 0xFF	; 255
     c80:	83 e0       	ldi	r24, 0x03	; 3
     c82:	75 95       	asr	r23
     c84:	67 95       	ror	r22
     c86:	8a 95       	dec	r24
     c88:	e1 f7       	brne	.-8      	; 0xc82 <_ZN10MyArduboy213drawFastVLineEiiah.constprop.41+0x74>
     c8a:	fb 01       	movw	r30, r22
     c8c:	f6 95       	lsr	r31
     c8e:	fe 2f       	mov	r31, r30
     c90:	ee 27       	eor	r30, r30
     c92:	f7 95       	ror	r31
     c94:	e7 95       	ror	r30
     c96:	ea 0f       	add	r30, r26
     c98:	fb 1f       	adc	r31, r27
     c9a:	e3 57       	subi	r30, 0x73	; 115
     c9c:	fc 4f       	sbci	r31, 0xFC	; 252
        if (h < 8) d &= 0xFF >> (8 - h);
     c9e:	28 e0       	ldi	r18, 0x08	; 8
     ca0:	30 e0       	ldi	r19, 0x00	; 0
     ca2:	6f ef       	ldi	r22, 0xFF	; 255
     ca4:	70 e0       	ldi	r23, 0x00	; 0
    /*  Draw a vertical line  */
    uint8_t yOdd = y & 7;
    uint8_t d = 0xFF << yOdd;
    y -= yOdd;
    h += yOdd;
    for (uint8_t *p = getBuffer() + x + (y / 8) * WIDTH; h > 0; h -= 8, p += WIDTH) {
     ca6:	14 16       	cp	r1, r20
     ca8:	3c f6       	brge	.-114    	; 0xc38 <_ZN10MyArduboy213drawFastVLineEiiah.constprop.41+0x2a>
        if (h < 8) d &= 0xFF >> (8 - h);
     caa:	48 30       	cpi	r20, 0x08	; 8
     cac:	64 f4       	brge	.+24     	; 0xcc6 <_ZN10MyArduboy213drawFastVLineEiiah.constprop.41+0xb8>
     cae:	d9 01       	movw	r26, r18
     cb0:	a4 1b       	sub	r26, r20
     cb2:	b1 09       	sbc	r27, r1
     cb4:	47 fd       	sbrc	r20, 7
     cb6:	b3 95       	inc	r27
     cb8:	eb 01       	movw	r28, r22
     cba:	02 c0       	rjmp	.+4      	; 0xcc0 <_ZN10MyArduboy213drawFastVLineEiiah.constprop.41+0xb2>
     cbc:	d5 95       	asr	r29
     cbe:	c7 95       	ror	r28
     cc0:	aa 95       	dec	r26
     cc2:	e2 f7       	brpl	.-8      	; 0xcbc <_ZN10MyArduboy213drawFastVLineEiiah.constprop.41+0xae>
     cc4:	9c 23       	and	r25, r28
        if (color == BLACK) {
            *p &= ~d;
        } else {
            *p |= d;
     cc6:	80 81       	ld	r24, Z
     cc8:	98 2b       	or	r25, r24
     cca:	90 83       	st	Z, r25
     ccc:	48 50       	subi	r20, 0x08	; 8
    /*  Draw a vertical line  */
    uint8_t yOdd = y & 7;
    uint8_t d = 0xFF << yOdd;
    y -= yOdd;
    h += yOdd;
    for (uint8_t *p = getBuffer() + x + (y / 8) * WIDTH; h > 0; h -= 8, p += WIDTH) {
     cce:	e0 58       	subi	r30, 0x80	; 128
     cd0:	ff 4f       	sbci	r31, 0xFF	; 255
        if (color == BLACK) {
            *p &= ~d;
        } else {
            *p |= d;
        }
        d = 0xFF;
     cd2:	9f ef       	ldi	r25, 0xFF	; 255
     cd4:	e8 cf       	rjmp	.-48     	; 0xca6 <_ZN10MyArduboy213drawFastVLineEiiah.constprop.41+0x98>

00000cd6 <_Z8USB_RecvhPvi.constprop.5>:
	return FifoByteCount();
}

//	Non Blocking receive
//	Return number of bytes read
int USB_Recv(u8 ep, void* d, int len)
     cd6:	fc 01       	movw	r30, r24
{
	if (!_usbConfiguration || len < 0)
     cd8:	80 91 70 03 	lds	r24, 0x0370	; 0x800370 <_usbConfiguration>
     cdc:	88 23       	and	r24, r24
     cde:	11 f1       	breq	.+68     	; 0xd24 <_Z8USB_RecvhPvi.constprop.5+0x4e>
#define USB_RECV_TIMEOUT
class LockEP
{
	u8 _sreg;
public:
	LockEP(u8 ep) : _sreg(SREG)
     ce0:	3f b7       	in	r19, 0x3f	; 63
	{
		cli();
     ce2:	f8 94       	cli
	UEDATX = d;
}

static inline void SetEP(u8 ep)
{
	UENUM = ep;
     ce4:	82 e0       	ldi	r24, 0x02	; 2
     ce6:	80 93 e9 00 	sts	0x00E9, r24	; 0x8000e9 <__DATA_REGION_ORIGIN__+0x89>
}

static inline u8 FifoByteCount()
{
	return UEBCLX;
     cea:	20 91 f2 00 	lds	r18, 0x00F2	; 0x8000f2 <__DATA_REGION_ORIGIN__+0x92>
	if (!_usbConfiguration || len < 0)
		return -1;
	
	LockEP lock(ep);
	u8 n = FifoByteCount();
	len = min(n,len);
     cee:	82 2f       	mov	r24, r18
     cf0:	90 e0       	ldi	r25, 0x00	; 0
     cf2:	18 16       	cp	r1, r24
     cf4:	19 06       	cpc	r1, r25
     cf6:	14 f4       	brge	.+4      	; 0xcfc <_Z8USB_RecvhPvi.constprop.5+0x26>
     cf8:	81 e0       	ldi	r24, 0x01	; 1
     cfa:	90 e0       	ldi	r25, 0x00	; 0
	n = len;
	u8* dst = (u8*)d;
	while (n--)
     cfc:	88 23       	and	r24, r24
     cfe:	39 f0       	breq	.+14     	; 0xd0e <_Z8USB_RecvhPvi.constprop.5+0x38>
	RxLEDPulse = TX_RX_LED_PULSE_MS;	
}

static inline u8 Recv8()
{
	RXLED1;					// light the RX LED
     d00:	28 98       	cbi	0x05, 0	; 5
	RxLEDPulse = TX_RX_LED_PULSE_MS;
     d02:	44 e6       	ldi	r20, 0x64	; 100
     d04:	40 93 6f 03 	sts	0x036F, r20	; 0x80036f <RxLEDPulse>

	return UEDATX;	
     d08:	40 91 f1 00 	lds	r20, 0x00F1	; 0x8000f1 <__DATA_REGION_ORIGIN__+0x91>
	u8 n = FifoByteCount();
	len = min(n,len);
	n = len;
	u8* dst = (u8*)d;
	while (n--)
		*dst++ = Recv8();
     d0c:	40 83       	st	Z, r20
	if (len && !FifoByteCount())	// release empty buffer
     d0e:	22 23       	and	r18, r18
     d10:	39 f0       	breq	.+14     	; 0xd20 <_Z8USB_RecvhPvi.constprop.5+0x4a>
	UENUM = ep;
}

static inline u8 FifoByteCount()
{
	return UEBCLX;
     d12:	20 91 f2 00 	lds	r18, 0x00F2	; 0x8000f2 <__DATA_REGION_ORIGIN__+0x92>
	len = min(n,len);
	n = len;
	u8* dst = (u8*)d;
	while (n--)
		*dst++ = Recv8();
	if (len && !FifoByteCount())	// release empty buffer
     d16:	21 11       	cpse	r18, r1
     d18:	03 c0       	rjmp	.+6      	; 0xd20 <_Z8USB_RecvhPvi.constprop.5+0x4a>
	return UEINTX & (1<<FIFOCON);
}

static inline void ReleaseRX()
{
	UEINTX = 0x6B;	// FIFOCON=0 NAKINI=1 RWAL=1 NAKOUTI=0 RXSTPI=1 RXOUTI=0 STALLEDI=1 TXINI=1
     d1a:	2b e6       	ldi	r18, 0x6B	; 107
     d1c:	20 93 e8 00 	sts	0x00E8, r18	; 0x8000e8 <__DATA_REGION_ORIGIN__+0x88>
		cli();
		SetEP(ep & 7);
	}
	~LockEP()
	{
		SREG = _sreg;
     d20:	3f bf       	out	0x3f, r19	; 63
     d22:	08 95       	ret
//	Non Blocking receive
//	Return number of bytes read
int USB_Recv(u8 ep, void* d, int len)
{
	if (!_usbConfiguration || len < 0)
		return -1;
     d24:	8f ef       	ldi	r24, 0xFF	; 255
     d26:	9f ef       	ldi	r25, 0xFF	; 255
		*dst++ = Recv8();
	if (len && !FifoByteCount())	// release empty buffer
		ReleaseRX();
	
	return len;
}
     d28:	08 95       	ret

00000d2a <_Z13USB_SendSpaceh.constprop.3>:
#define USB_RECV_TIMEOUT
class LockEP
{
	u8 _sreg;
public:
	LockEP(u8 ep) : _sreg(SREG)
     d2a:	2f b7       	in	r18, 0x3f	; 63
	{
		cli();
     d2c:	f8 94       	cli
	UEDATX = d;
}

static inline void SetEP(u8 ep)
{
	UENUM = ep;
     d2e:	83 e0       	ldi	r24, 0x03	; 3
     d30:	80 93 e9 00 	sts	0x00E9, r24	; 0x8000e9 <__DATA_REGION_ORIGIN__+0x89>
	UECONX = (1<<STALLRQ) | (1<<EPEN);
}

static inline u8 ReadWriteAllowed()
{
	return UEINTX & (1<<RWAL);
     d34:	90 91 e8 00 	lds	r25, 0x00E8	; 0x8000e8 <__DATA_REGION_ORIGIN__+0x88>

//	Space in send EP
u8 USB_SendSpace(u8 ep)
{
	LockEP lock(ep);
	if (!ReadWriteAllowed())
     d38:	89 2f       	mov	r24, r25
     d3a:	80 72       	andi	r24, 0x20	; 32
     d3c:	95 ff       	sbrs	r25, 5
     d3e:	04 c0       	rjmp	.+8      	; 0xd48 <_Z13USB_SendSpaceh.constprop.3+0x1e>
	UENUM = ep;
}

static inline u8 FifoByteCount()
{
	return UEBCLX;
     d40:	90 91 f2 00 	lds	r25, 0x00F2	; 0x8000f2 <__DATA_REGION_ORIGIN__+0x92>
u8 USB_SendSpace(u8 ep)
{
	LockEP lock(ep);
	if (!ReadWriteAllowed())
		return 0;
	return USB_EP_SIZE - FifoByteCount();
     d44:	80 e4       	ldi	r24, 0x40	; 64
     d46:	89 1b       	sub	r24, r25
		cli();
		SetEP(ep & 7);
	}
	~LockEP()
	{
		SREG = _sreg;
     d48:	2f bf       	out	0x3f, r18	; 63
{
	LockEP lock(ep);
	if (!ReadWriteAllowed())
		return 0;
	return USB_EP_SIZE - FifoByteCount();
}
     d4a:	08 95       	ret

00000d4c <_Z12PluggableUSBv>:
	// restart USB layer???
}

PluggableUSB_& PluggableUSB()
{
	static PluggableUSB_ obj;
     d4c:	80 91 67 03 	lds	r24, 0x0367	; 0x800367 <_ZGVZ12PluggableUSBvE3obj>
     d50:	81 11       	cpse	r24, r1
     d52:	0d c0       	rjmp	.+26     	; 0xd6e <_Z12PluggableUSBv+0x22>
	return obj;
}

PluggableUSB_::PluggableUSB_() : lastIf(CDC_ACM_INTERFACE + CDC_INTERFACE_COUNT),
                                 lastEp(CDC_FIRST_ENDPOINT + CDC_ENPOINT_COUNT),
                                 rootNode(NULL)
     d54:	82 e0       	ldi	r24, 0x02	; 2
     d56:	80 93 63 03 	sts	0x0363, r24	; 0x800363 <_ZZ12PluggableUSBvE3obj>
     d5a:	84 e0       	ldi	r24, 0x04	; 4
     d5c:	80 93 64 03 	sts	0x0364, r24	; 0x800364 <_ZZ12PluggableUSBvE3obj+0x1>
     d60:	10 92 66 03 	sts	0x0366, r1	; 0x800366 <_ZZ12PluggableUSBvE3obj+0x3>
     d64:	10 92 65 03 	sts	0x0365, r1	; 0x800365 <_ZZ12PluggableUSBvE3obj+0x2>
	// restart USB layer???
}

PluggableUSB_& PluggableUSB()
{
	static PluggableUSB_ obj;
     d68:	81 e0       	ldi	r24, 0x01	; 1
     d6a:	80 93 67 03 	sts	0x0367, r24	; 0x800367 <_ZGVZ12PluggableUSBvE3obj>
	return obj;
}
     d6e:	83 e6       	ldi	r24, 0x63	; 99
     d70:	93 e0       	ldi	r25, 0x03	; 3
     d72:	08 95       	ret

00000d74 <_ZN7Serial_5writeEh>:
{
	USB_Flush(CDC_TX);
}

size_t Serial_::write(uint8_t c)
{
     d74:	cf 93       	push	r28
     d76:	df 93       	push	r29
     d78:	1f 92       	push	r1
     d7a:	cd b7       	in	r28, 0x3d	; 61
     d7c:	de b7       	in	r29, 0x3e	; 62
     d7e:	69 83       	std	Y+1, r22	; 0x01
	return write(&c, 1);
     d80:	dc 01       	movw	r26, r24
     d82:	ed 91       	ld	r30, X+
     d84:	fc 91       	ld	r31, X
     d86:	02 80       	ldd	r0, Z+2	; 0x02
     d88:	f3 81       	ldd	r31, Z+3	; 0x03
     d8a:	e0 2d       	mov	r30, r0
     d8c:	41 e0       	ldi	r20, 0x01	; 1
     d8e:	50 e0       	ldi	r21, 0x00	; 0
     d90:	be 01       	movw	r22, r28
     d92:	6f 5f       	subi	r22, 0xFF	; 255
     d94:	7f 4f       	sbci	r23, 0xFF	; 255
     d96:	09 95       	icall
}
     d98:	0f 90       	pop	r0
     d9a:	df 91       	pop	r29
     d9c:	cf 91       	pop	r28
     d9e:	08 95       	ret

00000da0 <_ZN7Serial_5flushEv>:
	UEDATX = d;
}

static inline void SetEP(u8 ep)
{
	UENUM = ep;
     da0:	83 e0       	ldi	r24, 0x03	; 3
     da2:	80 93 e9 00 	sts	0x00E9, r24	; 0x8000e9 <__DATA_REGION_ORIGIN__+0x89>
}

static inline u8 FifoByteCount()
{
	return UEBCLX;
     da6:	80 91 f2 00 	lds	r24, 0x00F2	; 0x8000f2 <__DATA_REGION_ORIGIN__+0x92>
}

void USB_Flush(u8 ep)
{
	SetEP(ep);
	if (FifoByteCount())
     daa:	88 23       	and	r24, r24
     dac:	19 f0       	breq	.+6      	; 0xdb4 <_ZN7Serial_5flushEv+0x14>
	UEINTX = 0x6B;	// FIFOCON=0 NAKINI=1 RWAL=1 NAKOUTI=0 RXSTPI=1 RXOUTI=0 STALLEDI=1 TXINI=1
}

static inline void ReleaseTX()
{
	UEINTX = 0x3A;	// FIFOCON=0 NAKINI=0 RWAL=1 NAKOUTI=1 RXSTPI=1 RXOUTI=0 STALLEDI=1 TXINI=0
     dae:	8a e3       	ldi	r24, 0x3A	; 58
     db0:	80 93 e8 00 	sts	0x00E8, r24	; 0x8000e8 <__DATA_REGION_ORIGIN__+0x88>
}

void Serial_::flush(void)
{
	USB_Flush(CDC_TX);
}
     db4:	08 95       	ret

00000db6 <_ZN7Serial_17availableForWriteEv>:
	return USB_Recv(CDC_RX);
}

int Serial_::availableForWrite(void)
{
	return USB_SendSpace(CDC_TX);
     db6:	0e 94 95 06 	call	0xd2a	; 0xd2a <_Z13USB_SendSpaceh.constprop.3>
}
     dba:	90 e0       	ldi	r25, 0x00	; 0
     dbc:	08 95       	ret

00000dbe <_ZN7Serial_4readEv>:
		peek_buffer = USB_Recv(CDC_RX);
	return peek_buffer;
}

int Serial_::read(void)
{
     dbe:	cf 93       	push	r28
     dc0:	df 93       	push	r29
     dc2:	1f 92       	push	r1
     dc4:	cd b7       	in	r28, 0x3d	; 61
     dc6:	de b7       	in	r29, 0x3e	; 62
     dc8:	fc 01       	movw	r30, r24
	if (peek_buffer >= 0) {
     dca:	84 85       	ldd	r24, Z+12	; 0x0c
     dcc:	95 85       	ldd	r25, Z+13	; 0x0d
     dce:	97 fd       	sbrc	r25, 7
     dd0:	08 c0       	rjmp	.+16     	; 0xde2 <_ZN7Serial_4readEv+0x24>
		int c = peek_buffer;
		peek_buffer = -1;
     dd2:	2f ef       	ldi	r18, 0xFF	; 255
     dd4:	3f ef       	ldi	r19, 0xFF	; 255
     dd6:	35 87       	std	Z+13, r19	; 0x0d
     dd8:	24 87       	std	Z+12, r18	; 0x0c
		return c;
	}
	return USB_Recv(CDC_RX);
}
     dda:	0f 90       	pop	r0
     ddc:	df 91       	pop	r29
     dde:	cf 91       	pop	r28
     de0:	08 95       	ret

//	Recv 1 byte if ready
int USB_Recv(u8 ep)
{
	u8 c;
	if (USB_Recv(ep,&c,1) != 1)
     de2:	ce 01       	movw	r24, r28
     de4:	01 96       	adiw	r24, 0x01	; 1
     de6:	0e 94 6b 06 	call	0xcd6	; 0xcd6 <_Z8USB_RecvhPvi.constprop.5>
     dea:	01 97       	sbiw	r24, 0x01	; 1
     dec:	19 f4       	brne	.+6      	; 0xdf4 <_ZN7Serial_4readEv+0x36>
		return -1;
	return c;
     dee:	89 81       	ldd	r24, Y+1	; 0x01
     df0:	90 e0       	ldi	r25, 0x00	; 0
     df2:	f3 cf       	rjmp	.-26     	; 0xdda <_ZN7Serial_4readEv+0x1c>
//	Recv 1 byte if ready
int USB_Recv(u8 ep)
{
	u8 c;
	if (USB_Recv(ep,&c,1) != 1)
		return -1;
     df4:	8f ef       	ldi	r24, 0xFF	; 255
     df6:	9f ef       	ldi	r25, 0xFF	; 255
     df8:	f0 cf       	rjmp	.-32     	; 0xdda <_ZN7Serial_4readEv+0x1c>

00000dfa <_ZN7Serial_4peekEv>:
	}
	return USB_Available(CDC_RX);
}

int Serial_::peek(void)
{
     dfa:	0f 93       	push	r16
     dfc:	1f 93       	push	r17
     dfe:	cf 93       	push	r28
     e00:	df 93       	push	r29
     e02:	1f 92       	push	r1
     e04:	cd b7       	in	r28, 0x3d	; 61
     e06:	de b7       	in	r29, 0x3e	; 62
     e08:	8c 01       	movw	r16, r24
	if (peek_buffer < 0)
     e0a:	fc 01       	movw	r30, r24
     e0c:	84 85       	ldd	r24, Z+12	; 0x0c
     e0e:	95 85       	ldd	r25, Z+13	; 0x0d
     e10:	97 ff       	sbrs	r25, 7
     e12:	0b c0       	rjmp	.+22     	; 0xe2a <_ZN7Serial_4peekEv+0x30>

//	Recv 1 byte if ready
int USB_Recv(u8 ep)
{
	u8 c;
	if (USB_Recv(ep,&c,1) != 1)
     e14:	ce 01       	movw	r24, r28
     e16:	01 96       	adiw	r24, 0x01	; 1
     e18:	0e 94 6b 06 	call	0xcd6	; 0xcd6 <_Z8USB_RecvhPvi.constprop.5>
     e1c:	01 97       	sbiw	r24, 0x01	; 1
     e1e:	71 f4       	brne	.+28     	; 0xe3c <_ZN7Serial_4peekEv+0x42>
		return -1;
	return c;
     e20:	89 81       	ldd	r24, Y+1	; 0x01
     e22:	90 e0       	ldi	r25, 0x00	; 0
		peek_buffer = USB_Recv(CDC_RX);
     e24:	f8 01       	movw	r30, r16
     e26:	95 87       	std	Z+13, r25	; 0x0d
     e28:	84 87       	std	Z+12, r24	; 0x0c
	return peek_buffer;
}
     e2a:	f8 01       	movw	r30, r16
     e2c:	84 85       	ldd	r24, Z+12	; 0x0c
     e2e:	95 85       	ldd	r25, Z+13	; 0x0d
     e30:	0f 90       	pop	r0
     e32:	df 91       	pop	r29
     e34:	cf 91       	pop	r28
     e36:	1f 91       	pop	r17
     e38:	0f 91       	pop	r16
     e3a:	08 95       	ret
//	Recv 1 byte if ready
int USB_Recv(u8 ep)
{
	u8 c;
	if (USB_Recv(ep,&c,1) != 1)
		return -1;
     e3c:	8f ef       	ldi	r24, 0xFF	; 255
     e3e:	9f ef       	ldi	r25, 0xFF	; 255
     e40:	f1 cf       	rjmp	.-30     	; 0xe24 <_ZN7Serial_4peekEv+0x2a>

00000e42 <_ZN7Serial_9availableEv>:
{
}

int Serial_::available(void)
{
	if (peek_buffer >= 0) {
     e42:	fc 01       	movw	r30, r24
     e44:	84 85       	ldd	r24, Z+12	; 0x0c
     e46:	95 85       	ldd	r25, Z+13	; 0x0d
     e48:	97 fd       	sbrc	r25, 7
     e4a:	0b c0       	rjmp	.+22     	; 0xe62 <_ZN7Serial_9availableEv+0x20>
#define USB_RECV_TIMEOUT
class LockEP
{
	u8 _sreg;
public:
	LockEP(u8 ep) : _sreg(SREG)
     e4c:	9f b7       	in	r25, 0x3f	; 63
	{
		cli();
     e4e:	f8 94       	cli
	UEDATX = d;
}

static inline void SetEP(u8 ep)
{
	UENUM = ep;
     e50:	82 e0       	ldi	r24, 0x02	; 2
     e52:	80 93 e9 00 	sts	0x00E9, r24	; 0x8000e9 <__DATA_REGION_ORIGIN__+0x89>
}

static inline u8 FifoByteCount()
{
	return UEBCLX;
     e56:	80 91 f2 00 	lds	r24, 0x00F2	; 0x8000f2 <__DATA_REGION_ORIGIN__+0x92>
		cli();
		SetEP(ep & 7);
	}
	~LockEP()
	{
		SREG = _sreg;
     e5a:	9f bf       	out	0x3f, r25	; 63
		return 1 + USB_Available(CDC_RX);
     e5c:	90 e0       	ldi	r25, 0x00	; 0
     e5e:	01 96       	adiw	r24, 0x01	; 1
     e60:	08 95       	ret
#define USB_RECV_TIMEOUT
class LockEP
{
	u8 _sreg;
public:
	LockEP(u8 ep) : _sreg(SREG)
     e62:	9f b7       	in	r25, 0x3f	; 63
	{
		cli();
     e64:	f8 94       	cli
	UEDATX = d;
}

static inline void SetEP(u8 ep)
{
	UENUM = ep;
     e66:	82 e0       	ldi	r24, 0x02	; 2
     e68:	80 93 e9 00 	sts	0x00E9, r24	; 0x8000e9 <__DATA_REGION_ORIGIN__+0x89>
}

static inline u8 FifoByteCount()
{
	return UEBCLX;
     e6c:	80 91 f2 00 	lds	r24, 0x00F2	; 0x8000f2 <__DATA_REGION_ORIGIN__+0x92>
		cli();
		SetEP(ep & 7);
	}
	~LockEP()
	{
		SREG = _sreg;
     e70:	9f bf       	out	0x3f, r25	; 63
	}
	return USB_Available(CDC_RX);
     e72:	90 e0       	ldi	r25, 0x00	; 0
}
     e74:	08 95       	ret

00000e76 <_ZL11SendControlh>:
}

static
bool SendControl(u8 d)
{
	if (_cmark < _cend)
     e76:	40 91 5d 03 	lds	r20, 0x035D	; 0x80035d <_ZL6_cmark>
     e7a:	50 91 5e 03 	lds	r21, 0x035E	; 0x80035e <_ZL6_cmark+0x1>
     e7e:	20 91 5b 03 	lds	r18, 0x035B	; 0x80035b <_ZL5_cend>
     e82:	30 91 5c 03 	lds	r19, 0x035C	; 0x80035c <_ZL5_cend+0x1>
     e86:	42 17       	cp	r20, r18
     e88:	53 07       	cpc	r21, r19
     e8a:	b4 f4       	brge	.+44     	; 0xeb8 <_ZL11SendControlh+0x42>
		;
}

static inline u8 WaitForINOrOUT()
{
	while (!(UEINTX & ((1<<TXINI)|(1<<RXOUTI))))
     e8c:	90 91 e8 00 	lds	r25, 0x00E8	; 0x8000e8 <__DATA_REGION_ORIGIN__+0x88>
     e90:	95 70       	andi	r25, 0x05	; 5
     e92:	e1 f3       	breq	.-8      	; 0xe8c <_ZL11SendControlh+0x16>
		;
	return (UEINTX & (1<<RXOUTI)) == 0;
     e94:	90 91 e8 00 	lds	r25, 0x00E8	; 0x8000e8 <__DATA_REGION_ORIGIN__+0x88>
static
bool SendControl(u8 d)
{
	if (_cmark < _cend)
	{
		if (!WaitForINOrOUT())
     e98:	92 fd       	sbrc	r25, 2
     e9a:	19 c0       	rjmp	.+50     	; 0xece <_ZL11SendControlh+0x58>
	return UEDATX;	
}

static inline void Send8(u8 d)
{
	UEDATX = d;
     e9c:	80 93 f1 00 	sts	0x00F1, r24	; 0x8000f1 <__DATA_REGION_ORIGIN__+0x91>
	if (_cmark < _cend)
	{
		if (!WaitForINOrOUT())
			return false;
		Send8(d);
		if (!((_cmark + 1) & 0x3F))
     ea0:	80 91 5d 03 	lds	r24, 0x035D	; 0x80035d <_ZL6_cmark>
     ea4:	90 91 5e 03 	lds	r25, 0x035E	; 0x80035e <_ZL6_cmark+0x1>
     ea8:	01 96       	adiw	r24, 0x01	; 1
     eaa:	8f 73       	andi	r24, 0x3F	; 63
     eac:	99 27       	eor	r25, r25
     eae:	89 2b       	or	r24, r25
     eb0:	19 f4       	brne	.+6      	; 0xeb8 <_ZL11SendControlh+0x42>
		;
}

static inline void ClearIN(void)
{
	UEINTX = ~(1<<TXINI);
     eb2:	8e ef       	ldi	r24, 0xFE	; 254
     eb4:	80 93 e8 00 	sts	0x00E8, r24	; 0x8000e8 <__DATA_REGION_ORIGIN__+0x88>
			return false;
		Send8(d);
		if (!((_cmark + 1) & 0x3F))
			ClearIN();	// Fifo is full, release this packet
	}
	_cmark++;
     eb8:	80 91 5d 03 	lds	r24, 0x035D	; 0x80035d <_ZL6_cmark>
     ebc:	90 91 5e 03 	lds	r25, 0x035E	; 0x80035e <_ZL6_cmark+0x1>
     ec0:	01 96       	adiw	r24, 0x01	; 1
     ec2:	90 93 5e 03 	sts	0x035E, r25	; 0x80035e <_ZL6_cmark+0x1>
     ec6:	80 93 5d 03 	sts	0x035D, r24	; 0x80035d <_ZL6_cmark>
	return true;
     eca:	81 e0       	ldi	r24, 0x01	; 1
     ecc:	08 95       	ret
bool SendControl(u8 d)
{
	if (_cmark < _cend)
	{
		if (!WaitForINOrOUT())
			return false;
     ece:	80 e0       	ldi	r24, 0x00	; 0
		if (!((_cmark + 1) & 0x3F))
			ClearIN();	// Fifo is full, release this packet
	}
	_cmark++;
	return true;
}
     ed0:	08 95       	ret

00000ed2 <_Z15USB_SendControlhPKvi>:

//	Clipped by _cmark/_cend
int USB_SendControl(u8 flags, const void* d, int len)
{
     ed2:	df 92       	push	r13
     ed4:	ef 92       	push	r14
     ed6:	ff 92       	push	r15
     ed8:	0f 93       	push	r16
     eda:	1f 93       	push	r17
     edc:	cf 93       	push	r28
     ede:	df 93       	push	r29
     ee0:	d8 2e       	mov	r13, r24
     ee2:	8a 01       	movw	r16, r20
     ee4:	eb 01       	movw	r28, r22
     ee6:	7b 01       	movw	r14, r22
     ee8:	e4 0e       	add	r14, r20
     eea:	f5 1e       	adc	r15, r21
	int sent = len;
	const u8* data = (const u8*)d;
	bool pgm = flags & TRANSFER_PGM;
	while (len--)
     eec:	ce 15       	cp	r28, r14
     eee:	df 05       	cpc	r29, r15
     ef0:	59 f0       	breq	.+22     	; 0xf08 <_Z15USB_SendControlhPKvi+0x36>
	{
		u8 c = pgm ? pgm_read_byte(data++) : *data++;
     ef2:	d7 fe       	sbrs	r13, 7
     ef4:	12 c0       	rjmp	.+36     	; 0xf1a <_Z15USB_SendControlhPKvi+0x48>
     ef6:	fe 01       	movw	r30, r28
     ef8:	84 91       	lpm	r24, Z
		if (!SendControl(c))
     efa:	0e 94 3b 07 	call	0xe76	; 0xe76 <_ZL11SendControlh>
     efe:	21 96       	adiw	r28, 0x01	; 1
     f00:	81 11       	cpse	r24, r1
     f02:	f4 cf       	rjmp	.-24     	; 0xeec <_Z15USB_SendControlhPKvi+0x1a>
			return -1;
     f04:	0f ef       	ldi	r16, 0xFF	; 255
     f06:	1f ef       	ldi	r17, 0xFF	; 255
	}
	return sent;
}
     f08:	c8 01       	movw	r24, r16
     f0a:	df 91       	pop	r29
     f0c:	cf 91       	pop	r28
     f0e:	1f 91       	pop	r17
     f10:	0f 91       	pop	r16
     f12:	ff 90       	pop	r15
     f14:	ef 90       	pop	r14
     f16:	df 90       	pop	r13
     f18:	08 95       	ret
	int sent = len;
	const u8* data = (const u8*)d;
	bool pgm = flags & TRANSFER_PGM;
	while (len--)
	{
		u8 c = pgm ? pgm_read_byte(data++) : *data++;
     f1a:	88 81       	ld	r24, Y
     f1c:	ee cf       	rjmp	.-36     	; 0xefa <_Z15USB_SendControlhPKvi+0x28>

00000f1e <_ZL14SendInterfacesv>:
	}
	return len;
}

static u8 SendInterfaces()
{
     f1e:	0f 93       	push	r16
     f20:	1f 93       	push	r17
     f22:	cf 93       	push	r28
     f24:	df 93       	push	r29
     f26:	1f 92       	push	r1
     f28:	cd b7       	in	r28, 0x3d	; 61
     f2a:	de b7       	in	r29, 0x3e	; 62
	return pgm_read_word(FLASHEND - 1) == NEW_LUFA_SIGNATURE;
}

int CDC_GetInterface(u8* interfaceNum)
{
	interfaceNum[0] += 2;	// uses 2
     f2c:	82 e0       	ldi	r24, 0x02	; 2
     f2e:	89 83       	std	Y+1, r24	; 0x01
	return USB_SendControl(TRANSFER_PGM,&_cdcInterface,sizeof(_cdcInterface));
     f30:	42 e4       	ldi	r20, 0x42	; 66
     f32:	50 e0       	ldi	r21, 0x00	; 0
     f34:	6e ef       	ldi	r22, 0xFE	; 254
     f36:	7a e0       	ldi	r23, 0x0A	; 10
     f38:	80 e8       	ldi	r24, 0x80	; 128
     f3a:	0e 94 69 07 	call	0xed2	; 0xed2 <_Z15USB_SendControlhPKvi>
	u8 interfaces = 0;

	CDC_GetInterface(&interfaces);

#ifdef PLUGGABLE_USB_ENABLED
	PluggableUSB().getInterface(&interfaces);
     f3e:	0e 94 a6 06 	call	0xd4c	; 0xd4c <_Z12PluggableUSBv>

int PluggableUSB_::getInterface(uint8_t* interfaceCount)
{
	int sent = 0;
	PluggableUSBModule* node;
	for (node = rootNode; node; node = node->next) {
     f42:	dc 01       	movw	r26, r24
     f44:	12 96       	adiw	r26, 0x02	; 2
     f46:	0d 91       	ld	r16, X+
     f48:	1c 91       	ld	r17, X
     f4a:	01 15       	cp	r16, r1
     f4c:	11 05       	cpc	r17, r1
     f4e:	89 f0       	breq	.+34     	; 0xf72 <_ZL14SendInterfacesv+0x54>
		int res = node->getInterface(interfaceCount);
     f50:	d8 01       	movw	r26, r16
     f52:	ed 91       	ld	r30, X+
     f54:	fc 91       	ld	r31, X
     f56:	02 80       	ldd	r0, Z+2	; 0x02
     f58:	f3 81       	ldd	r31, Z+3	; 0x03
     f5a:	e0 2d       	mov	r30, r0
     f5c:	be 01       	movw	r22, r28
     f5e:	6f 5f       	subi	r22, 0xFF	; 255
     f60:	7f 4f       	sbci	r23, 0xFF	; 255
     f62:	c8 01       	movw	r24, r16
     f64:	09 95       	icall
		if (res < 0)
     f66:	97 fd       	sbrc	r25, 7
     f68:	04 c0       	rjmp	.+8      	; 0xf72 <_ZL14SendInterfacesv+0x54>

int PluggableUSB_::getInterface(uint8_t* interfaceCount)
{
	int sent = 0;
	PluggableUSBModule* node;
	for (node = rootNode; node; node = node->next) {
     f6a:	f8 01       	movw	r30, r16
     f6c:	00 85       	ldd	r16, Z+8	; 0x08
     f6e:	11 85       	ldd	r17, Z+9	; 0x09
     f70:	ec cf       	rjmp	.-40     	; 0xf4a <_ZL14SendInterfacesv+0x2c>
#endif

	return interfaces;
}
     f72:	89 81       	ldd	r24, Y+1	; 0x01
     f74:	0f 90       	pop	r0
     f76:	df 91       	pop	r29
     f78:	cf 91       	pop	r28
     f7a:	1f 91       	pop	r17
     f7c:	0f 91       	pop	r16
     f7e:	08 95       	ret

00000f80 <_ZL4RecvPVhh>:
	UEINTX = ~(1<<RXOUTI);
}

static inline void Recv(volatile u8* data, u8 count)
{
	while (count--)
     f80:	61 50       	subi	r22, 0x01	; 1
     f82:	30 f0       	brcs	.+12     	; 0xf90 <_ZL4RecvPVhh+0x10>
		*data++ = UEDATX;
     f84:	20 91 f1 00 	lds	r18, 0x00F1	; 0x8000f1 <__DATA_REGION_ORIGIN__+0x91>
     f88:	fc 01       	movw	r30, r24
     f8a:	20 83       	st	Z, r18
     f8c:	01 96       	adiw	r24, 0x01	; 1
     f8e:	f8 cf       	rjmp	.-16     	; 0xf80 <_ZL4RecvPVhh>
	
	RXLED1;					// light the RX LED
     f90:	28 98       	cbi	0x05, 0	; 5
	RxLEDPulse = TX_RX_LED_PULSE_MS;	
     f92:	84 e6       	ldi	r24, 0x64	; 100
     f94:	80 93 6f 03 	sts	0x036F, r24	; 0x80036f <RxLEDPulse>
}
     f98:	08 95       	ret

00000f9a <_ZN5Print5writeEPKhj>:

// Public Methods //////////////////////////////////////////////////////////////

/* default implementation: may be overridden */
size_t Print::write(const uint8_t *buffer, size_t size)
{
     f9a:	af 92       	push	r10
     f9c:	bf 92       	push	r11
     f9e:	cf 92       	push	r12
     fa0:	df 92       	push	r13
     fa2:	ef 92       	push	r14
     fa4:	ff 92       	push	r15
     fa6:	0f 93       	push	r16
     fa8:	1f 93       	push	r17
     faa:	cf 93       	push	r28
     fac:	df 93       	push	r29
     fae:	6c 01       	movw	r12, r24
     fb0:	7b 01       	movw	r14, r22
     fb2:	8b 01       	movw	r16, r22
     fb4:	04 0f       	add	r16, r20
     fb6:	15 1f       	adc	r17, r21
     fb8:	eb 01       	movw	r28, r22
     fba:	5e 01       	movw	r10, r28
     fbc:	ae 18       	sub	r10, r14
     fbe:	bf 08       	sbc	r11, r15
  size_t n = 0;
  while (size--) {
     fc0:	c0 17       	cp	r28, r16
     fc2:	d1 07       	cpc	r29, r17
     fc4:	59 f0       	breq	.+22     	; 0xfdc <_ZN5Print5writeEPKhj+0x42>
    if (write(*buffer++)) n++;
     fc6:	69 91       	ld	r22, Y+
     fc8:	d6 01       	movw	r26, r12
     fca:	ed 91       	ld	r30, X+
     fcc:	fc 91       	ld	r31, X
     fce:	01 90       	ld	r0, Z+
     fd0:	f0 81       	ld	r31, Z
     fd2:	e0 2d       	mov	r30, r0
     fd4:	c6 01       	movw	r24, r12
     fd6:	09 95       	icall
     fd8:	89 2b       	or	r24, r25
     fda:	79 f7       	brne	.-34     	; 0xfba <_ZN5Print5writeEPKhj+0x20>
    else break;
  }
  return n;
}
     fdc:	c5 01       	movw	r24, r10
     fde:	df 91       	pop	r29
     fe0:	cf 91       	pop	r28
     fe2:	1f 91       	pop	r17
     fe4:	0f 91       	pop	r16
     fe6:	ff 90       	pop	r15
     fe8:	ef 90       	pop	r14
     fea:	df 90       	pop	r13
     fec:	cf 90       	pop	r12
     fee:	bf 90       	pop	r11
     ff0:	af 90       	pop	r10
     ff2:	08 95       	ret

00000ff4 <micros>:
	return m;
}

unsigned long micros() {
	unsigned long m;
	uint8_t oldSREG = SREG, t;
     ff4:	3f b7       	in	r19, 0x3f	; 63
	
	cli();
     ff6:	f8 94       	cli
	m = timer0_overflow_count;
     ff8:	80 91 4e 03 	lds	r24, 0x034E	; 0x80034e <timer0_overflow_count>
     ffc:	90 91 4f 03 	lds	r25, 0x034F	; 0x80034f <timer0_overflow_count+0x1>
    1000:	a0 91 50 03 	lds	r26, 0x0350	; 0x800350 <timer0_overflow_count+0x2>
    1004:	b0 91 51 03 	lds	r27, 0x0351	; 0x800351 <timer0_overflow_count+0x3>
#if defined(TCNT0)
	t = TCNT0;
    1008:	26 b5       	in	r18, 0x26	; 38
#else
	#error TIMER 0 not defined
#endif

#ifdef TIFR0
	if ((TIFR0 & _BV(TOV0)) && (t < 255))
    100a:	a8 9b       	sbis	0x15, 0	; 21
    100c:	05 c0       	rjmp	.+10     	; 0x1018 <micros+0x24>
    100e:	2f 3f       	cpi	r18, 0xFF	; 255
    1010:	19 f0       	breq	.+6      	; 0x1018 <micros+0x24>
		m++;
    1012:	01 96       	adiw	r24, 0x01	; 1
    1014:	a1 1d       	adc	r26, r1
    1016:	b1 1d       	adc	r27, r1
#else
	if ((TIFR & _BV(TOV0)) && (t < 255))
		m++;
#endif

	SREG = oldSREG;
    1018:	3f bf       	out	0x3f, r19	; 63
	
	return ((m << 8) + t) * (64 / clockCyclesPerMicrosecond());
    101a:	ba 2f       	mov	r27, r26
    101c:	a9 2f       	mov	r26, r25
    101e:	98 2f       	mov	r25, r24
    1020:	88 27       	eor	r24, r24
    1022:	bc 01       	movw	r22, r24
    1024:	cd 01       	movw	r24, r26
    1026:	62 0f       	add	r22, r18
    1028:	71 1d       	adc	r23, r1
    102a:	81 1d       	adc	r24, r1
    102c:	91 1d       	adc	r25, r1
    102e:	42 e0       	ldi	r20, 0x02	; 2
    1030:	66 0f       	add	r22, r22
    1032:	77 1f       	adc	r23, r23
    1034:	88 1f       	adc	r24, r24
    1036:	99 1f       	adc	r25, r25
    1038:	4a 95       	dec	r20
    103a:	d1 f7       	brne	.-12     	; 0x1030 <micros+0x3c>
}
    103c:	08 95       	ret

0000103e <delay>:

void delay(unsigned long ms)
{
    103e:	8f 92       	push	r8
    1040:	9f 92       	push	r9
    1042:	af 92       	push	r10
    1044:	bf 92       	push	r11
    1046:	cf 92       	push	r12
    1048:	df 92       	push	r13
    104a:	ef 92       	push	r14
    104c:	ff 92       	push	r15
    104e:	6b 01       	movw	r12, r22
    1050:	7c 01       	movw	r14, r24
	uint32_t start = micros();
    1052:	0e 94 fa 07 	call	0xff4	; 0xff4 <micros>
    1056:	4b 01       	movw	r8, r22
    1058:	5c 01       	movw	r10, r24

	while (ms > 0) {
		yield();
		while ( ms > 0 && (micros() - start) >= 1000) {
    105a:	c1 14       	cp	r12, r1
    105c:	d1 04       	cpc	r13, r1
    105e:	e1 04       	cpc	r14, r1
    1060:	f1 04       	cpc	r15, r1
    1062:	b9 f0       	breq	.+46     	; 0x1092 <delay+0x54>
    1064:	0e 94 fa 07 	call	0xff4	; 0xff4 <micros>
    1068:	68 19       	sub	r22, r8
    106a:	79 09       	sbc	r23, r9
    106c:	8a 09       	sbc	r24, r10
    106e:	9b 09       	sbc	r25, r11
    1070:	68 3e       	cpi	r22, 0xE8	; 232
    1072:	73 40       	sbci	r23, 0x03	; 3
    1074:	81 05       	cpc	r24, r1
    1076:	91 05       	cpc	r25, r1
    1078:	80 f3       	brcs	.-32     	; 0x105a <delay+0x1c>
			ms--;
    107a:	21 e0       	ldi	r18, 0x01	; 1
    107c:	c2 1a       	sub	r12, r18
    107e:	d1 08       	sbc	r13, r1
    1080:	e1 08       	sbc	r14, r1
    1082:	f1 08       	sbc	r15, r1
			start += 1000;
    1084:	88 ee       	ldi	r24, 0xE8	; 232
    1086:	88 0e       	add	r8, r24
    1088:	83 e0       	ldi	r24, 0x03	; 3
    108a:	98 1e       	adc	r9, r24
    108c:	a1 1c       	adc	r10, r1
    108e:	b1 1c       	adc	r11, r1
    1090:	e4 cf       	rjmp	.-56     	; 0x105a <delay+0x1c>
		}
	}
}
    1092:	ff 90       	pop	r15
    1094:	ef 90       	pop	r14
    1096:	df 90       	pop	r13
    1098:	cf 90       	pop	r12
    109a:	bf 90       	pop	r11
    109c:	af 90       	pop	r10
    109e:	9f 90       	pop	r9
    10a0:	8f 90       	pop	r8
    10a2:	08 95       	ret

000010a4 <_ZN7Serial_5writeEPKhj>:
{
	return write(&c, 1);
}

size_t Serial_::write(const uint8_t *buffer, size_t size)
{
    10a4:	8f 92       	push	r8
    10a6:	9f 92       	push	r9
    10a8:	af 92       	push	r10
    10aa:	bf 92       	push	r11
    10ac:	cf 92       	push	r12
    10ae:	df 92       	push	r13
    10b0:	ef 92       	push	r14
    10b2:	ff 92       	push	r15
    10b4:	0f 93       	push	r16
    10b6:	1f 93       	push	r17
    10b8:	cf 93       	push	r28
    10ba:	df 93       	push	r29
    10bc:	6c 01       	movw	r12, r24
    10be:	7b 01       	movw	r14, r22
    10c0:	8a 01       	movw	r16, r20
	 the connection is closed are lost - just like with a UART. */
	
	// TODO - ZE - check behavior on different OSes and test what happens if an
	// open connection isn't broken cleanly (cable is yanked out, host dies
	// or locks up, or host virtual serial port hangs)
	if (_usbLineInfo.lineState > 0)	{
    10c2:	80 91 12 01 	lds	r24, 0x0112	; 0x800112 <_ZL12_usbLineInfo+0x7>
    10c6:	88 23       	and	r24, r24
    10c8:	09 f4       	brne	.+2      	; 0x10cc <_ZN7Serial_5writeEPKhj+0x28>
    10ca:	5c c0       	rjmp	.+184    	; 0x1184 <_ZN7Serial_5writeEPKhj+0xe0>
}

//	Blocking Send of data to an endpoint
int USB_Send(u8 ep, const void* d, int len)
{
	if (!_usbConfiguration)
    10cc:	80 91 70 03 	lds	r24, 0x0370	; 0x800370 <_usbConfiguration>
    10d0:	88 23       	and	r24, r24
    10d2:	09 f4       	brne	.+2      	; 0x10d6 <_ZN7Serial_5writeEPKhj+0x32>
    10d4:	57 c0       	rjmp	.+174    	; 0x1184 <_ZN7Serial_5writeEPKhj+0xe0>
		return -1;

	if (_usbSuspendState & (1<<SUSPI)) {
    10d6:	80 91 62 03 	lds	r24, 0x0362	; 0x800362 <_usbSuspendState>
    10da:	80 ff       	sbrs	r24, 0
    10dc:	05 c0       	rjmp	.+10     	; 0x10e8 <_ZN7Serial_5writeEPKhj+0x44>
		//send a remote wakeup
		UDCON |= (1 << RMWKUP);
    10de:	80 91 e0 00 	lds	r24, 0x00E0	; 0x8000e0 <__DATA_REGION_ORIGIN__+0x80>
    10e2:	82 60       	ori	r24, 0x02	; 2
    10e4:	80 93 e0 00 	sts	0x00E0, r24	; 0x8000e0 <__DATA_REGION_ORIGIN__+0x80>
{
	return write(&c, 1);
}

size_t Serial_::write(const uint8_t *buffer, size_t size)
{
    10e8:	e8 01       	movw	r28, r16
    10ea:	b1 2c       	mov	r11, r1
    10ec:	8a ef       	ldi	r24, 0xFA	; 250
    10ee:	a8 2e       	mov	r10, r24
	UEDATX = d;
}

static inline void SetEP(u8 ep)
{
	UENUM = ep;
    10f0:	93 e0       	ldi	r25, 0x03	; 3
    10f2:	89 2e       	mov	r8, r25
	UEINTX = 0x6B;	// FIFOCON=0 NAKINI=1 RWAL=1 NAKOUTI=0 RXSTPI=1 RXOUTI=0 STALLEDI=1 TXINI=1
}

static inline void ReleaseTX()
{
	UEINTX = 0x3A;	// FIFOCON=0 NAKINI=0 RWAL=1 NAKOUTI=1 RXSTPI=1 RXOUTI=0 STALLEDI=1 TXINI=0
    10f4:	2a e3       	ldi	r18, 0x3A	; 58
    10f6:	92 2e       	mov	r9, r18
	int r = len;
	const u8* data = (const u8*)d;
	u8 timeout = 250;		// 250ms timeout on send? TODO
	bool sendZlp = false;

	while (len || sendZlp)
    10f8:	20 97       	sbiw	r28, 0x00	; 0
    10fa:	11 f4       	brne	.+4      	; 0x1100 <_ZN7Serial_5writeEPKhj+0x5c>
    10fc:	bb 20       	and	r11, r11
    10fe:	d9 f1       	breq	.+118    	; 0x1176 <_ZN7Serial_5writeEPKhj+0xd2>
	{
		u8 n = USB_SendSpace(ep);
    1100:	0e 94 95 06 	call	0xd2a	; 0xd2a <_Z13USB_SendSpaceh.constprop.3>
		if (n == 0)
    1104:	81 11       	cpse	r24, r1
    1106:	0a c0       	rjmp	.+20     	; 0x111c <_ZN7Serial_5writeEPKhj+0x78>
		{
			if (!(--timeout))
    1108:	aa 94       	dec	r10
    110a:	aa 20       	and	r10, r10
    110c:	d9 f1       	breq	.+118    	; 0x1184 <_ZN7Serial_5writeEPKhj+0xe0>
				return -1;
			delay(1);
    110e:	61 e0       	ldi	r22, 0x01	; 1
    1110:	70 e0       	ldi	r23, 0x00	; 0
    1112:	80 e0       	ldi	r24, 0x00	; 0
    1114:	90 e0       	ldi	r25, 0x00	; 0
    1116:	0e 94 1f 08 	call	0x103e	; 0x103e <delay>
    111a:	ee cf       	rjmp	.-36     	; 0x10f8 <_ZN7Serial_5writeEPKhj+0x54>
			continue;
		}

		if (n > len) {
    111c:	8c 17       	cp	r24, r28
    111e:	1d 06       	cpc	r1, r29
    1120:	11 f0       	breq	.+4      	; 0x1126 <_ZN7Serial_5writeEPKhj+0x82>
    1122:	0c f0       	brlt	.+2      	; 0x1126 <_ZN7Serial_5writeEPKhj+0x82>
			n = len;
    1124:	8c 2f       	mov	r24, r28
#define USB_RECV_TIMEOUT
class LockEP
{
	u8 _sreg;
public:
	LockEP(u8 ep) : _sreg(SREG)
    1126:	9f b7       	in	r25, 0x3f	; 63
	{
		cli();
    1128:	f8 94       	cli
	UEDATX = d;
}

static inline void SetEP(u8 ep)
{
	UENUM = ep;
    112a:	80 92 e9 00 	sts	0x00E9, r8	; 0x8000e9 <__DATA_REGION_ORIGIN__+0x89>
	UECONX = (1<<STALLRQ) | (1<<EPEN);
}

static inline u8 ReadWriteAllowed()
{
	return UEINTX & (1<<RWAL);
    112e:	20 91 e8 00 	lds	r18, 0x00E8	; 0x8000e8 <__DATA_REGION_ORIGIN__+0x88>
		}

		{
			LockEP lock(ep);
			// Frame may have been released by the SOF interrupt handler
			if (!ReadWriteAllowed())
    1132:	25 fd       	sbrc	r18, 5
    1134:	02 c0       	rjmp	.+4      	; 0x113a <_ZN7Serial_5writeEPKhj+0x96>
		cli();
		SetEP(ep & 7);
	}
	~LockEP()
	{
		SREG = _sreg;
    1136:	9f bf       	out	0x3f, r25	; 63
    1138:	df cf       	rjmp	.-66     	; 0x10f8 <_ZN7Serial_5writeEPKhj+0x54>
			LockEP lock(ep);
			// Frame may have been released by the SOF interrupt handler
			if (!ReadWriteAllowed())
				continue;

			len -= n;
    113a:	28 2f       	mov	r18, r24
    113c:	30 e0       	ldi	r19, 0x00	; 0
    113e:	c2 1b       	sub	r28, r18
    1140:	d3 0b       	sbc	r29, r19
    1142:	f7 01       	movw	r30, r14
				while (n--)
					Send8(pgm_read_byte(data++));
			}
			else
			{
				while (n--)
    1144:	81 50       	subi	r24, 0x01	; 1
    1146:	20 f0       	brcs	.+8      	; 0x1150 <_ZN7Serial_5writeEPKhj+0xac>
					Send8(*data++);
    1148:	41 91       	ld	r20, Z+
	return UEDATX;	
}

static inline void Send8(u8 d)
{
	UEDATX = d;
    114a:	40 93 f1 00 	sts	0x00F1, r20	; 0x8000f1 <__DATA_REGION_ORIGIN__+0x91>
    114e:	fa cf       	rjmp	.-12     	; 0x1144 <_ZN7Serial_5writeEPKhj+0xa0>
    1150:	e2 0e       	add	r14, r18
    1152:	f3 1e       	adc	r15, r19
			{
				while (n--)
					Send8(*data++);
			}

			if (sendZlp) {
    1154:	bb 20       	and	r11, r11
    1156:	21 f0       	breq	.+8      	; 0x1160 <_ZN7Serial_5writeEPKhj+0xbc>
	UEINTX = 0x6B;	// FIFOCON=0 NAKINI=1 RWAL=1 NAKOUTI=0 RXSTPI=1 RXOUTI=0 STALLEDI=1 TXINI=1
}

static inline void ReleaseTX()
{
	UEINTX = 0x3A;	// FIFOCON=0 NAKINI=0 RWAL=1 NAKOUTI=1 RXSTPI=1 RXOUTI=0 STALLEDI=1 TXINI=0
    1158:	90 92 e8 00 	sts	0x00E8, r9	; 0x8000e8 <__DATA_REGION_ORIGIN__+0x88>
			if (sendZlp) {
				ReleaseTX();
				sendZlp = false;
			} else if (!ReadWriteAllowed()) { // ...release if buffer is full...
				ReleaseTX();
				if (len == 0) sendZlp = true;
    115c:	b1 2c       	mov	r11, r1
    115e:	eb cf       	rjmp	.-42     	; 0x1136 <_ZN7Serial_5writeEPKhj+0x92>
	UECONX = (1<<STALLRQ) | (1<<EPEN);
}

static inline u8 ReadWriteAllowed()
{
	return UEINTX & (1<<RWAL);
    1160:	80 91 e8 00 	lds	r24, 0x00E8	; 0x8000e8 <__DATA_REGION_ORIGIN__+0x88>
			}

			if (sendZlp) {
				ReleaseTX();
				sendZlp = false;
			} else if (!ReadWriteAllowed()) { // ...release if buffer is full...
    1164:	85 fd       	sbrc	r24, 5
    1166:	e7 cf       	rjmp	.-50     	; 0x1136 <_ZN7Serial_5writeEPKhj+0x92>
	UEINTX = 0x6B;	// FIFOCON=0 NAKINI=1 RWAL=1 NAKOUTI=0 RXSTPI=1 RXOUTI=0 STALLEDI=1 TXINI=1
}

static inline void ReleaseTX()
{
	UEINTX = 0x3A;	// FIFOCON=0 NAKINI=0 RWAL=1 NAKOUTI=1 RXSTPI=1 RXOUTI=0 STALLEDI=1 TXINI=0
    1168:	90 92 e8 00 	sts	0x00E8, r9	; 0x8000e8 <__DATA_REGION_ORIGIN__+0x88>
			if (sendZlp) {
				ReleaseTX();
				sendZlp = false;
			} else if (!ReadWriteAllowed()) { // ...release if buffer is full...
				ReleaseTX();
				if (len == 0) sendZlp = true;
    116c:	bb 24       	eor	r11, r11
    116e:	b3 94       	inc	r11
    1170:	20 97       	sbiw	r28, 0x00	; 0
    1172:	09 f3       	breq	.-62     	; 0x1136 <_ZN7Serial_5writeEPKhj+0x92>
    1174:	f3 cf       	rjmp	.-26     	; 0x115c <_ZN7Serial_5writeEPKhj+0xb8>
				// XXX: TRANSFER_RELEASE is never used can be removed?
				ReleaseTX();
			}
		}
	}
	TXLED1;					// light the TX LED
    1176:	5d 98       	cbi	0x0b, 5	; 11
	TxLEDPulse = TX_RX_LED_PULSE_MS;
    1178:	84 e6       	ldi	r24, 0x64	; 100
    117a:	80 93 61 03 	sts	0x0361, r24	; 0x800361 <TxLEDPulse>
	// TODO - ZE - check behavior on different OSes and test what happens if an
	// open connection isn't broken cleanly (cable is yanked out, host dies
	// or locks up, or host virtual serial port hangs)
	if (_usbLineInfo.lineState > 0)	{
		int r = USB_Send(CDC_TX,buffer,size);
		if (r > 0) {
    117e:	10 16       	cp	r1, r16
    1180:	11 06       	cpc	r1, r17
    1182:	3c f0       	brlt	.+14     	; 0x1192 <_ZN7Serial_5writeEPKhj+0xee>
  private:
    int write_error;
    size_t printNumber(unsigned long, uint8_t);
    size_t printFloat(double, uint8_t);
  protected:
    void setWriteError(int err = 1) { write_error = err; }
    1184:	81 e0       	ldi	r24, 0x01	; 1
    1186:	90 e0       	ldi	r25, 0x00	; 0
    1188:	f6 01       	movw	r30, r12
    118a:	93 83       	std	Z+3, r25	; 0x03
    118c:	82 83       	std	Z+2, r24	; 0x02
			return r;
		} else {
			setWriteError();
			return 0;
    118e:	10 e0       	ldi	r17, 0x00	; 0
    1190:	00 e0       	ldi	r16, 0x00	; 0
		}
	}
	setWriteError();
	return 0;
}
    1192:	c8 01       	movw	r24, r16
    1194:	df 91       	pop	r29
    1196:	cf 91       	pop	r28
    1198:	1f 91       	pop	r17
    119a:	0f 91       	pop	r16
    119c:	ff 90       	pop	r15
    119e:	ef 90       	pop	r14
    11a0:	df 90       	pop	r13
    11a2:	cf 90       	pop	r12
    11a4:	bf 90       	pop	r11
    11a6:	af 90       	pop	r10
    11a8:	9f 90       	pop	r9
    11aa:	8f 90       	pop	r8
    11ac:	08 95       	ret

000011ae <_ZN12Arduboy2Core10delayShortEj>:
}

// delay in ms with 16 bit duration
void Arduboy2Core::delayShort(uint16_t ms)
{
  delay((unsigned long) ms);
    11ae:	bc 01       	movw	r22, r24
    11b0:	90 e0       	ldi	r25, 0x00	; 0
    11b2:	80 e0       	ldi	r24, 0x00	; 0
    11b4:	0c 94 1f 08 	jmp	0x103e	; 0x103e <delay>

000011b8 <_ZN12Arduboy2Core12buttonsStateEv>:
{
  uint8_t buttons;

#ifdef ARDUBOY_10
  // up, right, left, down
  buttons = ((~PINF) &
    11b8:	8f b1       	in	r24, 0x0f	; 15
    11ba:	80 95       	com	r24
    11bc:	80 7f       	andi	r24, 0xF0	; 240
              (_BV(UP_BUTTON_BIT) | _BV(RIGHT_BUTTON_BIT) |
               _BV(LEFT_BUTTON_BIT) | _BV(DOWN_BUTTON_BIT)));
  // A
  if (bitRead(A_BUTTON_PORTIN, A_BUTTON_BIT) == 0) { buttons |= A_BUTTON; }
    11be:	66 9b       	sbis	0x0c, 6	; 12
    11c0:	88 60       	ori	r24, 0x08	; 8
  // B
  if (bitRead(B_BUTTON_PORTIN, B_BUTTON_BIT) == 0) { buttons |= B_BUTTON; }
    11c2:	1c 9b       	sbis	0x03, 4	; 3
    11c4:	84 60       	ori	r24, 0x04	; 4
  // B
  if (bitRead(B_BUTTON_PORTIN, B_BUTTON_BIT) == 0) { buttons |= B_BUTTON; }
#endif

  return buttons;
}
    11c6:	08 95       	ret

000011c8 <_ZN13Arduboy2Audio7enabledEv>:
}

bool Arduboy2Audio::enabled()
{
  return audio_enabled;
}
    11c8:	80 91 4c 03 	lds	r24, 0x034C	; 0x80034c <_ZN13Arduboy2Audio13audio_enabledE>
    11cc:	08 95       	ret

000011ce <_ZN13Arduboy2Audio3offEv>:
  audio_enabled = true;
}

void Arduboy2Audio::off()
{
  audio_enabled = false;
    11ce:	10 92 4c 03 	sts	0x034C, r1	; 0x80034c <_ZN13Arduboy2Audio13audio_enabledE>
  // shut off audio pins by setting them as inputs
#ifdef ARDUBOY_10
  bitClear(SPEAKER_1_DDR, SPEAKER_1_BIT);
    11d2:	3e 98       	cbi	0x07, 6	; 7
  bitClear(SPEAKER_2_DDR, SPEAKER_2_BIT);
    11d4:	3f 98       	cbi	0x07, 7	; 7
#else
  bitClear(SPEAKER_1_DDR, SPEAKER_1_BIT);
#endif
}
    11d6:	08 95       	ret

000011d8 <_ZN13Arduboy2Audio2onEv>:

void Arduboy2Audio::on()
{
  // fire up audio pins by seting them as outputs
#ifdef ARDUBOY_10
  bitSet(SPEAKER_1_DDR, SPEAKER_1_BIT);
    11d8:	3e 9a       	sbi	0x07, 6	; 7
  bitSet(SPEAKER_2_DDR, SPEAKER_2_BIT);
    11da:	3f 9a       	sbi	0x07, 7	; 7
#else
  bitSet(SPEAKER_1_DDR, SPEAKER_1_BIT);
#endif
  audio_enabled = true;
    11dc:	81 e0       	ldi	r24, 0x01	; 1
    11de:	80 93 4c 03 	sts	0x034C, r24	; 0x80034c <_ZN13Arduboy2Audio13audio_enabledE>
}
    11e2:	08 95       	ret

000011e4 <_ZN8Arduboy25clearEv>:
    "brne 1b\n"
    : [color] "+d" (color),
      "+z" (bPtr)
    :
    :
  );
    11e4:	80 e0       	ldi	r24, 0x00	; 0
    11e6:	ed e8       	ldi	r30, 0x8D	; 141
    11e8:	f3 e0       	ldi	r31, 0x03	; 3
    11ea:	81 11       	cpse	r24, r1
    11ec:	8f ef       	ldi	r24, 0xFF	; 255
    11ee:	00 24       	eor	r0, r0
    11f0:	81 93       	st	Z+, r24
    11f2:	81 93       	st	Z+, r24
    11f4:	81 93       	st	Z+, r24
    11f6:	81 93       	st	Z+, r24
    11f8:	03 94       	inc	r0
    11fa:	d1 f7       	brne	.-12     	; 0x11f0 <_ZN8Arduboy25clearEv+0xc>
}

void Arduboy2::clear()
{
    Arduboy2Base::clear();
    cursor_x = cursor_y = 0;
    11fc:	10 92 72 03 	sts	0x0372, r1	; 0x800372 <_ZN8Arduboy28cursor_yE+0x1>
    1200:	10 92 71 03 	sts	0x0371, r1	; 0x800371 <_ZN8Arduboy28cursor_yE>
    1204:	10 92 74 03 	sts	0x0374, r1	; 0x800374 <_ZN8Arduboy28cursor_xE+0x1>
    1208:	10 92 73 03 	sts	0x0373, r1	; 0x800373 <_ZN8Arduboy28cursor_xE>
}
    120c:	08 95       	ret

0000120e <_ZN12Arduboy2Base10drawBitmapEiiPKhhhh>:
}

void Arduboy2Base::drawBitmap
(int16_t x, int16_t y, const uint8_t *bitmap, uint8_t w, uint8_t h,
 uint8_t color)
{
    120e:	3f 92       	push	r3
    1210:	4f 92       	push	r4
    1212:	5f 92       	push	r5
    1214:	6f 92       	push	r6
    1216:	7f 92       	push	r7
    1218:	8f 92       	push	r8
    121a:	9f 92       	push	r9
    121c:	af 92       	push	r10
    121e:	bf 92       	push	r11
    1220:	cf 92       	push	r12
    1222:	df 92       	push	r13
    1224:	ef 92       	push	r14
    1226:	ff 92       	push	r15
    1228:	0f 93       	push	r16
    122a:	1f 93       	push	r17
    122c:	cf 93       	push	r28
    122e:	df 93       	push	r29
  // no need to draw at all if we're offscreen
  if (x + w <= 0 || x > WIDTH - 1 || y + h <= 0 || y > HEIGHT - 1)
    1230:	30 e0       	ldi	r19, 0x00	; 0
    1232:	f9 01       	movw	r30, r18
    1234:	e8 0f       	add	r30, r24
    1236:	f9 1f       	adc	r31, r25
    1238:	1e 16       	cp	r1, r30
    123a:	1f 06       	cpc	r1, r31
    123c:	0c f0       	brlt	.+2      	; 0x1240 <_ZN12Arduboy2Base10drawBitmapEiiPKhhhh+0x32>
    123e:	d7 c0       	rjmp	.+430    	; 0x13ee <_ZN12Arduboy2Base10drawBitmapEiiPKhhhh+0x1e0>
    1240:	80 38       	cpi	r24, 0x80	; 128
    1242:	91 05       	cpc	r25, r1
    1244:	0c f0       	brlt	.+2      	; 0x1248 <_ZN12Arduboy2Base10drawBitmapEiiPKhhhh+0x3a>
    1246:	d3 c0       	rjmp	.+422    	; 0x13ee <_ZN12Arduboy2Base10drawBitmapEiiPKhhhh+0x1e0>
    1248:	fb 01       	movw	r30, r22
    124a:	e0 0f       	add	r30, r16
    124c:	f1 1d       	adc	r31, r1
    124e:	1e 16       	cp	r1, r30
    1250:	1f 06       	cpc	r1, r31
    1252:	0c f0       	brlt	.+2      	; 0x1256 <_ZN12Arduboy2Base10drawBitmapEiiPKhhhh+0x48>
    1254:	cc c0       	rjmp	.+408    	; 0x13ee <_ZN12Arduboy2Base10drawBitmapEiiPKhhhh+0x1e0>
    1256:	60 34       	cpi	r22, 0x40	; 64
    1258:	71 05       	cpc	r23, r1
    125a:	0c f0       	brlt	.+2      	; 0x125e <_ZN12Arduboy2Base10drawBitmapEiiPKhhhh+0x50>
    125c:	c8 c0       	rjmp	.+400    	; 0x13ee <_ZN12Arduboy2Base10drawBitmapEiiPKhhhh+0x1e0>
    return;

  int yOffset = abs(y) % 8;
    125e:	db 01       	movw	r26, r22
    1260:	77 ff       	sbrs	r23, 7
    1262:	04 c0       	rjmp	.+8      	; 0x126c <_ZN12Arduboy2Base10drawBitmapEiiPKhhhh+0x5e>
    1264:	aa 27       	eor	r26, r26
    1266:	bb 27       	eor	r27, r27
    1268:	a6 1b       	sub	r26, r22
    126a:	b7 0b       	sbc	r27, r23
    126c:	a7 70       	andi	r26, 0x07	; 7
    126e:	bb 27       	eor	r27, r27
  int sRow = y / 8;
    1270:	fb 01       	movw	r30, r22
    1272:	77 fd       	sbrc	r23, 7
    1274:	37 96       	adiw	r30, 0x07	; 7
    1276:	c3 e0       	ldi	r28, 0x03	; 3
    1278:	f5 95       	asr	r31
    127a:	e7 95       	ror	r30
    127c:	ca 95       	dec	r28
    127e:	e1 f7       	brne	.-8      	; 0x1278 <_ZN12Arduboy2Base10drawBitmapEiiPKhhhh+0x6a>
  if (y < 0) {
    1280:	77 ff       	sbrs	r23, 7
    1282:	07 c0       	rjmp	.+14     	; 0x1292 <_ZN12Arduboy2Base10drawBitmapEiiPKhhhh+0x84>
    sRow--;
    1284:	31 97       	sbiw	r30, 0x01	; 1
    yOffset = 8 - yOffset;
    1286:	68 e0       	ldi	r22, 0x08	; 8
    1288:	70 e0       	ldi	r23, 0x00	; 0
    128a:	eb 01       	movw	r28, r22
    128c:	ca 1b       	sub	r28, r26
    128e:	db 0b       	sbc	r29, r27
    1290:	de 01       	movw	r26, r28
  }
  int rows = h/8;
    1292:	40 2e       	mov	r4, r16
    1294:	46 94       	lsr	r4
    1296:	46 94       	lsr	r4
    1298:	46 94       	lsr	r4
    129a:	51 2c       	mov	r5, r1
  if (h%8!=0) rows++;
    129c:	07 70       	andi	r16, 0x07	; 7
    129e:	19 f0       	breq	.+6      	; 0x12a6 <_ZN12Arduboy2Base10drawBitmapEiiPKhhhh+0x98>
    12a0:	df ef       	ldi	r29, 0xFF	; 255
    12a2:	4d 1a       	sub	r4, r29
    12a4:	5d 0a       	sbc	r5, r29
    12a6:	bf 01       	movw	r22, r30
    12a8:	ef 01       	movw	r28, r30
    12aa:	d6 95       	lsr	r29
    12ac:	dc 2f       	mov	r29, r28
    12ae:	cc 27       	eor	r28, r28
    12b0:	d7 95       	ror	r29
    12b2:	c7 95       	ror	r28
    12b4:	c8 0f       	add	r28, r24
    12b6:	d9 1f       	adc	r29, r25
    12b8:	c3 57       	subi	r28, 0x73	; 115
    12ba:	dc 4f       	sbci	r29, 0xFC	; 252
    12bc:	8a 01       	movw	r16, r20
    12be:	46 0e       	add	r4, r22
    12c0:	57 1e       	adc	r5, r23
    12c2:	48 e0       	ldi	r20, 0x08	; 8
    12c4:	50 e0       	ldi	r21, 0x00	; 0
    12c6:	4a 01       	movw	r8, r20
    12c8:	8a 1a       	sub	r8, r26
    12ca:	9b 0a       	sbc	r9, r27
  for (int a = 0; a < rows; a++) {
    12cc:	64 15       	cp	r22, r4
    12ce:	75 05       	cpc	r23, r5
    12d0:	09 f4       	brne	.+2      	; 0x12d4 <_ZN12Arduboy2Base10drawBitmapEiiPKhhhh+0xc6>
    12d2:	8d c0       	rjmp	.+282    	; 0x13ee <_ZN12Arduboy2Base10drawBitmapEiiPKhhhh+0x1e0>
    int bRow = sRow + a;
    if (bRow > (HEIGHT/8)-1) break;
    12d4:	68 30       	cpi	r22, 0x08	; 8
    12d6:	71 05       	cpc	r23, r1
    12d8:	09 f4       	brne	.+2      	; 0x12dc <_ZN12Arduboy2Base10drawBitmapEiiPKhhhh+0xce>
    12da:	89 c0       	rjmp	.+274    	; 0x13ee <_ZN12Arduboy2Base10drawBitmapEiiPKhhhh+0x1e0>
    if (bRow > -2) {
    12dc:	6f 3f       	cpi	r22, 0xFF	; 255
    12de:	ef ef       	ldi	r30, 0xFF	; 255
    12e0:	7e 07       	cpc	r23, r30
    12e2:	0c f4       	brge	.+2      	; 0x12e6 <_ZN12Arduboy2Base10drawBitmapEiiPKhhhh+0xd8>
    12e4:	4b c0       	rjmp	.+150    	; 0x137c <_ZN12Arduboy2Base10drawBitmapEiiPKhhhh+0x16e>
    12e6:	6c 01       	movw	r12, r24
      for (int iCol = 0; iCol<w; iCol++) {
    12e8:	50 e0       	ldi	r21, 0x00	; 0
    12ea:	40 e0       	ldi	r20, 0x00	; 0
    12ec:	3e 01       	movw	r6, r28
    12ee:	e0 e8       	ldi	r30, 0x80	; 128
    12f0:	6e 0e       	add	r6, r30
    12f2:	71 1c       	adc	r7, r1
        if (iCol + x > (WIDTH-1)) break;
        if (iCol + x >= 0) {
    12f4:	d7 fc       	sbrc	r13, 7
    12f6:	35 c0       	rjmp	.+106    	; 0x1362 <_ZN12Arduboy2Base10drawBitmapEiiPKhhhh+0x154>
          if (bRow >= 0) {
    12f8:	6f 3f       	cpi	r22, 0xFF	; 255
    12fa:	76 07       	cpc	r23, r22
    12fc:	09 f4       	brne	.+2      	; 0x1300 <_ZN12Arduboy2Base10drawBitmapEiiPKhhhh+0xf2>
    12fe:	73 c0       	rjmp	.+230    	; 0x13e6 <_ZN12Arduboy2Base10drawBitmapEiiPKhhhh+0x1d8>
    1300:	5e 01       	movw	r10, r28
    1302:	a4 0e       	add	r10, r20
    1304:	b5 1e       	adc	r11, r21
    1306:	f5 01       	movw	r30, r10
    1308:	f0 80       	ld	r15, Z
    130a:	fa 01       	movw	r30, r20
    130c:	e0 0f       	add	r30, r16
    130e:	f1 1f       	adc	r31, r17
            if (color == WHITE)
    1310:	33 24       	eor	r3, r3
    1312:	33 94       	inc	r3
    1314:	e3 10       	cpse	r14, r3
    1316:	39 c0       	rjmp	.+114    	; 0x138a <_ZN12Arduboy2Base10drawBitmapEiiPKhhhh+0x17c>
              sBuffer[(bRow*WIDTH) + x + iCol] |= pgm_read_byte(bitmap+(a*w)+iCol) << yOffset;
    1318:	e4 91       	lpm	r30, Z
    131a:	0a 2e       	mov	r0, r26
    131c:	01 c0       	rjmp	.+2      	; 0x1320 <_ZN12Arduboy2Base10drawBitmapEiiPKhhhh+0x112>
    131e:	ee 0f       	add	r30, r30
    1320:	0a 94       	dec	r0
    1322:	ea f7       	brpl	.-6      	; 0x131e <_ZN12Arduboy2Base10drawBitmapEiiPKhhhh+0x110>
    1324:	fe 2a       	or	r15, r30
            else if (color == BLACK)
              sBuffer[(bRow*WIDTH) + x + iCol] &= ~(pgm_read_byte(bitmap+(a*w)+iCol) << yOffset);
            else
              sBuffer[(bRow*WIDTH) + x + iCol] ^= pgm_read_byte(bitmap+(a*w)+iCol) << yOffset;
    1326:	f5 01       	movw	r30, r10
    1328:	f0 82       	st	Z, r15
          }
          if (yOffset && bRow<(HEIGHT/8)-1 && bRow > -2) {
    132a:	10 97       	sbiw	r26, 0x00	; 0
    132c:	d1 f0       	breq	.+52     	; 0x1362 <_ZN12Arduboy2Base10drawBitmapEiiPKhhhh+0x154>
    132e:	67 30       	cpi	r22, 0x07	; 7
    1330:	71 05       	cpc	r23, r1
    1332:	b9 f0       	breq	.+46     	; 0x1362 <_ZN12Arduboy2Base10drawBitmapEiiPKhhhh+0x154>
    1334:	53 01       	movw	r10, r6
    1336:	a4 0e       	add	r10, r20
    1338:	b5 1e       	adc	r11, r21
    133a:	f5 01       	movw	r30, r10
    133c:	f0 80       	ld	r15, Z
    133e:	fa 01       	movw	r30, r20
    1340:	e0 0f       	add	r30, r16
    1342:	f1 1f       	adc	r31, r17
            if (color == WHITE)
    1344:	33 24       	eor	r3, r3
    1346:	33 94       	inc	r3
    1348:	e3 10       	cpse	r14, r3
    134a:	35 c0       	rjmp	.+106    	; 0x13b6 <_ZN12Arduboy2Base10drawBitmapEiiPKhhhh+0x1a8>
              sBuffer[((bRow+1)*WIDTH) + x + iCol] |= pgm_read_byte(bitmap+(a*w)+iCol) >> (8-yOffset);
    134c:	e4 91       	lpm	r30, Z
    134e:	f0 e0       	ldi	r31, 0x00	; 0
    1350:	08 2c       	mov	r0, r8
    1352:	02 c0       	rjmp	.+4      	; 0x1358 <_ZN12Arduboy2Base10drawBitmapEiiPKhhhh+0x14a>
    1354:	f5 95       	asr	r31
    1356:	e7 95       	ror	r30
    1358:	0a 94       	dec	r0
    135a:	e2 f7       	brpl	.-8      	; 0x1354 <_ZN12Arduboy2Base10drawBitmapEiiPKhhhh+0x146>
    135c:	fe 2a       	or	r15, r30
            else if (color == BLACK)
              sBuffer[((bRow+1)*WIDTH) + x + iCol] &= ~(pgm_read_byte(bitmap+(a*w)+iCol) >> (8-yOffset));
            else
              sBuffer[((bRow+1)*WIDTH) + x + iCol] ^= pgm_read_byte(bitmap+(a*w)+iCol) >> (8-yOffset);
    135e:	f5 01       	movw	r30, r10
    1360:	f0 82       	st	Z, r15
  if (h%8!=0) rows++;
  for (int a = 0; a < rows; a++) {
    int bRow = sRow + a;
    if (bRow > (HEIGHT/8)-1) break;
    if (bRow > -2) {
      for (int iCol = 0; iCol<w; iCol++) {
    1362:	4f 5f       	subi	r20, 0xFF	; 255
    1364:	5f 4f       	sbci	r21, 0xFF	; 255
    1366:	ff ef       	ldi	r31, 0xFF	; 255
    1368:	cf 1a       	sub	r12, r31
    136a:	df 0a       	sbc	r13, r31
    136c:	42 17       	cp	r20, r18
    136e:	53 07       	cpc	r21, r19
    1370:	2c f4       	brge	.+10     	; 0x137c <_ZN12Arduboy2Base10drawBitmapEiiPKhhhh+0x16e>
        if (iCol + x > (WIDTH-1)) break;
    1372:	f0 e8       	ldi	r31, 0x80	; 128
    1374:	cf 16       	cp	r12, r31
    1376:	d1 04       	cpc	r13, r1
    1378:	09 f0       	breq	.+2      	; 0x137c <_ZN12Arduboy2Base10drawBitmapEiiPKhhhh+0x16e>
    137a:	bc cf       	rjmp	.-136    	; 0x12f4 <_ZN12Arduboy2Base10drawBitmapEiiPKhhhh+0xe6>
    137c:	6f 5f       	subi	r22, 0xFF	; 255
    137e:	7f 4f       	sbci	r23, 0xFF	; 255
    1380:	c0 58       	subi	r28, 0x80	; 128
    1382:	df 4f       	sbci	r29, 0xFF	; 255
    1384:	02 0f       	add	r16, r18
    1386:	13 1f       	adc	r17, r19
    1388:	a1 cf       	rjmp	.-190    	; 0x12cc <_ZN12Arduboy2Base10drawBitmapEiiPKhhhh+0xbe>
        if (iCol + x >= 0) {
          if (bRow >= 0) {
            if (color == WHITE)
              sBuffer[(bRow*WIDTH) + x + iCol] |= pgm_read_byte(bitmap+(a*w)+iCol) << yOffset;
            else if (color == BLACK)
    138a:	e1 10       	cpse	r14, r1
    138c:	0c c0       	rjmp	.+24     	; 0x13a6 <_ZN12Arduboy2Base10drawBitmapEiiPKhhhh+0x198>
              sBuffer[(bRow*WIDTH) + x + iCol] &= ~(pgm_read_byte(bitmap+(a*w)+iCol) << yOffset);
    138e:	e4 91       	lpm	r30, Z
    1390:	f0 e0       	ldi	r31, 0x00	; 0
    1392:	0a 2e       	mov	r0, r26
    1394:	02 c0       	rjmp	.+4      	; 0x139a <_ZN12Arduboy2Base10drawBitmapEiiPKhhhh+0x18c>
    1396:	ee 0f       	add	r30, r30
    1398:	ff 1f       	adc	r31, r31
    139a:	0a 94       	dec	r0
    139c:	e2 f7       	brpl	.-8      	; 0x1396 <_ZN12Arduboy2Base10drawBitmapEiiPKhhhh+0x188>
    139e:	e0 95       	com	r30
    13a0:	f0 95       	com	r31
    13a2:	fe 22       	and	r15, r30
    13a4:	c0 cf       	rjmp	.-128    	; 0x1326 <_ZN12Arduboy2Base10drawBitmapEiiPKhhhh+0x118>
            else
              sBuffer[(bRow*WIDTH) + x + iCol] ^= pgm_read_byte(bitmap+(a*w)+iCol) << yOffset;
    13a6:	e4 91       	lpm	r30, Z
    13a8:	0a 2e       	mov	r0, r26
    13aa:	01 c0       	rjmp	.+2      	; 0x13ae <_ZN12Arduboy2Base10drawBitmapEiiPKhhhh+0x1a0>
    13ac:	ee 0f       	add	r30, r30
    13ae:	0a 94       	dec	r0
    13b0:	ea f7       	brpl	.-6      	; 0x13ac <_ZN12Arduboy2Base10drawBitmapEiiPKhhhh+0x19e>
    13b2:	fe 26       	eor	r15, r30
    13b4:	b8 cf       	rjmp	.-144    	; 0x1326 <_ZN12Arduboy2Base10drawBitmapEiiPKhhhh+0x118>
          }
          if (yOffset && bRow<(HEIGHT/8)-1 && bRow > -2) {
            if (color == WHITE)
              sBuffer[((bRow+1)*WIDTH) + x + iCol] |= pgm_read_byte(bitmap+(a*w)+iCol) >> (8-yOffset);
            else if (color == BLACK)
    13b6:	e1 10       	cpse	r14, r1
    13b8:	0c c0       	rjmp	.+24     	; 0x13d2 <_ZN12Arduboy2Base10drawBitmapEiiPKhhhh+0x1c4>
              sBuffer[((bRow+1)*WIDTH) + x + iCol] &= ~(pgm_read_byte(bitmap+(a*w)+iCol) >> (8-yOffset));
    13ba:	e4 91       	lpm	r30, Z
    13bc:	f0 e0       	ldi	r31, 0x00	; 0
    13be:	08 2c       	mov	r0, r8
    13c0:	02 c0       	rjmp	.+4      	; 0x13c6 <_ZN12Arduboy2Base10drawBitmapEiiPKhhhh+0x1b8>
    13c2:	f5 95       	asr	r31
    13c4:	e7 95       	ror	r30
    13c6:	0a 94       	dec	r0
    13c8:	e2 f7       	brpl	.-8      	; 0x13c2 <_ZN12Arduboy2Base10drawBitmapEiiPKhhhh+0x1b4>
    13ca:	e0 95       	com	r30
    13cc:	f0 95       	com	r31
    13ce:	fe 22       	and	r15, r30
    13d0:	c6 cf       	rjmp	.-116    	; 0x135e <_ZN12Arduboy2Base10drawBitmapEiiPKhhhh+0x150>
            else
              sBuffer[((bRow+1)*WIDTH) + x + iCol] ^= pgm_read_byte(bitmap+(a*w)+iCol) >> (8-yOffset);
    13d2:	e4 91       	lpm	r30, Z
    13d4:	f0 e0       	ldi	r31, 0x00	; 0
    13d6:	08 2c       	mov	r0, r8
    13d8:	02 c0       	rjmp	.+4      	; 0x13de <_ZN12Arduboy2Base10drawBitmapEiiPKhhhh+0x1d0>
    13da:	f5 95       	asr	r31
    13dc:	e7 95       	ror	r30
    13de:	0a 94       	dec	r0
    13e0:	e2 f7       	brpl	.-8      	; 0x13da <_ZN12Arduboy2Base10drawBitmapEiiPKhhhh+0x1cc>
    13e2:	fe 26       	eor	r15, r30
    13e4:	bc cf       	rjmp	.-136    	; 0x135e <_ZN12Arduboy2Base10drawBitmapEiiPKhhhh+0x150>
            else if (color == BLACK)
              sBuffer[(bRow*WIDTH) + x + iCol] &= ~(pgm_read_byte(bitmap+(a*w)+iCol) << yOffset);
            else
              sBuffer[(bRow*WIDTH) + x + iCol] ^= pgm_read_byte(bitmap+(a*w)+iCol) << yOffset;
          }
          if (yOffset && bRow<(HEIGHT/8)-1 && bRow > -2) {
    13e6:	10 97       	sbiw	r26, 0x00	; 0
    13e8:	09 f0       	breq	.+2      	; 0x13ec <_ZN12Arduboy2Base10drawBitmapEiiPKhhhh+0x1de>
    13ea:	a4 cf       	rjmp	.-184    	; 0x1334 <_ZN12Arduboy2Base10drawBitmapEiiPKhhhh+0x126>
    13ec:	ba cf       	rjmp	.-140    	; 0x1362 <_ZN12Arduboy2Base10drawBitmapEiiPKhhhh+0x154>
          }
        }
      }
    }
  }
}
    13ee:	df 91       	pop	r29
    13f0:	cf 91       	pop	r28
    13f2:	1f 91       	pop	r17
    13f4:	0f 91       	pop	r16
    13f6:	ff 90       	pop	r15
    13f8:	ef 90       	pop	r14
    13fa:	df 90       	pop	r13
    13fc:	cf 90       	pop	r12
    13fe:	bf 90       	pop	r11
    1400:	af 90       	pop	r10
    1402:	9f 90       	pop	r9
    1404:	8f 90       	pop	r8
    1406:	7f 90       	pop	r7
    1408:	6f 90       	pop	r6
    140a:	5f 90       	pop	r5
    140c:	4f 90       	pop	r4
    140e:	3f 90       	pop	r3
    1410:	08 95       	ret

00001412 <_ZL19drawLettersBigLabeliiPKhhh.constprop.15>:
    default:
        break;
    }
}

static void drawLettersBigLabel(int16_t x, int16_t y, const uint8_t *bitmap, uint8_t w, uint8_t h)
    1412:	6f 92       	push	r6
    1414:	7f 92       	push	r7
    1416:	8f 92       	push	r8
    1418:	9f 92       	push	r9
    141a:	af 92       	push	r10
    141c:	bf 92       	push	r11
    141e:	cf 92       	push	r12
    1420:	df 92       	push	r13
    1422:	ef 92       	push	r14
    1424:	0f 93       	push	r16
    1426:	1f 93       	push	r17
    1428:	cf 93       	push	r28
    142a:	df 93       	push	r29
    142c:	6c 01       	movw	r12, r24
    142e:	5b 01       	movw	r10, r22
    1430:	4a 01       	movw	r8, r20
    1432:	12 2f       	mov	r17, r18
{
    for (int i = 1; i <= 7; i += 2) {
    1434:	c1 e0       	ldi	r28, 0x01	; 1
    1436:	d0 e0       	ldi	r29, 0x00	; 0
        arduboy.drawBitmap(x + i % 3 - 1, y + i / 3 - 1, bitmap, w, h, BLACK);
    1438:	83 e0       	ldi	r24, 0x03	; 3
    143a:	68 2e       	mov	r6, r24
    143c:	71 2c       	mov	r7, r1
    143e:	ce 01       	movw	r24, r28
    1440:	b3 01       	movw	r22, r6
    1442:	0e 94 d4 2f 	call	0x5fa8	; 0x5fa8 <__divmodhi4>
    1446:	6a 0d       	add	r22, r10
    1448:	7b 1d       	adc	r23, r11
    144a:	61 50       	subi	r22, 0x01	; 1
    144c:	71 09       	sbc	r23, r1
    144e:	8c 0d       	add	r24, r12
    1450:	9d 1d       	adc	r25, r13
    1452:	e1 2c       	mov	r14, r1
    1454:	00 e1       	ldi	r16, 0x10	; 16
    1456:	21 2f       	mov	r18, r17
    1458:	a4 01       	movw	r20, r8
    145a:	01 97       	sbiw	r24, 0x01	; 1
    145c:	0e 94 07 09 	call	0x120e	; 0x120e <_ZN12Arduboy2Base10drawBitmapEiiPKhhhh>
    }
}

static void drawLettersBigLabel(int16_t x, int16_t y, const uint8_t *bitmap, uint8_t w, uint8_t h)
{
    for (int i = 1; i <= 7; i += 2) {
    1460:	22 96       	adiw	r28, 0x02	; 2
    1462:	c9 30       	cpi	r28, 0x09	; 9
    1464:	d1 05       	cpc	r29, r1
    1466:	59 f7       	brne	.-42     	; 0x143e <_ZL19drawLettersBigLabeliiPKhhh.constprop.15+0x2c>
        arduboy.drawBitmap(x + i % 3 - 1, y + i / 3 - 1, bitmap, w, h, BLACK);
    }
    arduboy.drawBitmap(x, y, bitmap, w, h);
    1468:	ee 24       	eor	r14, r14
    146a:	e3 94       	inc	r14
    146c:	21 2f       	mov	r18, r17
    146e:	a4 01       	movw	r20, r8
    1470:	b5 01       	movw	r22, r10
    1472:	c6 01       	movw	r24, r12
    1474:	0e 94 07 09 	call	0x120e	; 0x120e <_ZN12Arduboy2Base10drawBitmapEiiPKhhhh>
}
    1478:	df 91       	pop	r29
    147a:	cf 91       	pop	r28
    147c:	1f 91       	pop	r17
    147e:	0f 91       	pop	r16
    1480:	ef 90       	pop	r14
    1482:	df 90       	pop	r13
    1484:	cf 90       	pop	r12
    1486:	bf 90       	pop	r11
    1488:	af 90       	pop	r10
    148a:	9f 90       	pop	r9
    148c:	8f 90       	pop	r8
    148e:	7f 90       	pop	r7
    1490:	6f 90       	pop	r6
    1492:	08 95       	ret

00001494 <_ZN12Arduboy2Base9drawPixelEiih>:
  fillScreen(BLACK);
}

void Arduboy2Base::drawPixel(int16_t x, int16_t y, uint8_t color)
{
  if (x < 0 || x > (WIDTH-1) || y < 0 || y > (HEIGHT-1))
    1494:	80 38       	cpi	r24, 0x80	; 128
    1496:	91 05       	cpc	r25, r1
    1498:	b8 f4       	brcc	.+46     	; 0x14c8 <_ZN12Arduboy2Base9drawPixelEiih+0x34>
    149a:	60 34       	cpi	r22, 0x40	; 64
    149c:	71 05       	cpc	r23, r1
    149e:	a0 f4       	brcc	.+40     	; 0x14c8 <_ZN12Arduboy2Base9drawPixelEiih+0x34>
      [bit]          "=&d" (bit),          // upper register (LDI)
      [y]            "+d"  (y)             // upper register (ANDI), must be writable
    : [width_offset] "r"   ((uint8_t)(WIDTH/8)),
      [x]            "r"   ((uint8_t)x)
    :
  );
    14a0:	20 e1       	ldi	r18, 0x10	; 16
    14a2:	91 e0       	ldi	r25, 0x01	; 1
    14a4:	61 fd       	sbrc	r22, 1
    14a6:	94 e0       	ldi	r25, 0x04	; 4
    14a8:	60 fd       	sbrc	r22, 0
    14aa:	99 0f       	add	r25, r25
    14ac:	62 fd       	sbrc	r22, 2
    14ae:	92 95       	swap	r25
    14b0:	68 7f       	andi	r22, 0xF8	; 248
    14b2:	26 9f       	mul	r18, r22
    14b4:	d0 01       	movw	r26, r0
    14b6:	11 24       	eor	r1, r1
    14b8:	a8 0f       	add	r26, r24
  uint8_t data = sBuffer[row_offset] | bit;
    14ba:	a3 57       	subi	r26, 0x73	; 115
    14bc:	bc 4f       	sbci	r27, 0xFC	; 252
    14be:	8c 91       	ld	r24, X
  if (!(color & _BV(0))) data ^= bit;
    14c0:	40 ff       	sbrs	r20, 0
    14c2:	03 c0       	rjmp	.+6      	; 0x14ca <_ZN12Arduboy2Base9drawPixelEiih+0x36>
      [y]            "+d"  (y)             // upper register (ANDI), must be writable
    : [width_offset] "r"   ((uint8_t)(WIDTH/8)),
      [x]            "r"   ((uint8_t)x)
    :
  );
  uint8_t data = sBuffer[row_offset] | bit;
    14c4:	89 2b       	or	r24, r25
  if (!(color & _BV(0))) data ^= bit;
  sBuffer[row_offset] = data;
    14c6:	8c 93       	st	X, r24
}
    14c8:	08 95       	ret
    14ca:	90 95       	com	r25
    14cc:	89 23       	and	r24, r25
    14ce:	fb cf       	rjmp	.-10     	; 0x14c6 <_ZN12Arduboy2Base9drawPixelEiih+0x32>

000014d0 <_ZL13drawTitleLogov>:
    }
    isSettingChenged = false;
}

static void drawTitleLogo(void)
{
    14d0:	ef 92       	push	r14
    14d2:	0f 93       	push	r16
    arduboy.drawBitmap((WIDTH - IMG_TITLE_W) / 2, 8, imgTitle, IMG_TITLE_W, IMG_TITLE_H);
    14d4:	ee 24       	eor	r14, r14
    14d6:	e3 94       	inc	r14
    14d8:	05 e1       	ldi	r16, 0x15	; 21
    14da:	20 e8       	ldi	r18, 0x80	; 128
    14dc:	4f e5       	ldi	r20, 0x5F	; 95
    14de:	59 e0       	ldi	r21, 0x09	; 9
    14e0:	68 e0       	ldi	r22, 0x08	; 8
    14e2:	70 e0       	ldi	r23, 0x00	; 0
    14e4:	90 e0       	ldi	r25, 0x00	; 0
    14e6:	80 e0       	ldi	r24, 0x00	; 0
    14e8:	0e 94 07 09 	call	0x120e	; 0x120e <_ZN12Arduboy2Base10drawBitmapEiiPKhhhh>
#ifdef DEBUG
    arduboy.printEx(98, 30, F("DEBUG"));
#endif
}
    14ec:	0f 91       	pop	r16
    14ee:	ef 90       	pop	r14
    14f0:	08 95       	ret

000014f2 <_ZL7onStartv>:
    dprintln(F("Title screen"));
}

static void onStart(void)
{
    state = STATE_STARTED;
    14f2:	85 e0       	ldi	r24, 0x05	; 5
    14f4:	80 93 38 03 	sts	0x0338, r24	; 0x800338 <_ZL5state.lto_priv.53>
    dprintln(F("Game start"));
}
    14f8:	08 95       	ret

000014fa <_Z9drawTitlev>:
    randomSeed(rand() ^ micros()); // Shuffle random
    return (state == STATE_STARTED) ? MODE_GAME : MODE_TITLE;
}

void drawTitle(void)
{
    14fa:	cf 93       	push	r28
    if (state == STATE_STARTED) return;
    14fc:	c0 91 38 03 	lds	r28, 0x0338	; 0x800338 <_ZL5state.lto_priv.53>
    1500:	c5 30       	cpi	r28, 0x05	; 5
    1502:	89 f0       	breq	.+34     	; 0x1526 <_Z9drawTitlev+0x2c>
    if (isInvalid) arduboy.clear();
    1504:	80 91 4b 03 	lds	r24, 0x034B	; 0x80034b <isInvalid>
    1508:	81 11       	cpse	r24, r1
    150a:	0e 94 f2 08 	call	0x11e4	; 0x11e4 <_ZN8Arduboy25clearEv>
    callDrawerFunc(state);
    150e:	ec 2f       	mov	r30, r28
    1510:	f0 e0       	ldi	r31, 0x00	; 0
    1512:	ee 0f       	add	r30, r30
    1514:	ff 1f       	adc	r31, r31
    1516:	e9 56       	subi	r30, 0x69	; 105
    1518:	f8 4f       	sbci	r31, 0xF8	; 248
    151a:	85 91       	lpm	r24, Z+
    151c:	94 91       	lpm	r25, Z
    151e:	fc 01       	movw	r30, r24
    1520:	09 95       	icall
    isInvalid = false;
    1522:	10 92 4b 03 	sts	0x034B, r1	; 0x80034b <isInvalid>
}
    1526:	cf 91       	pop	r28
    1528:	08 95       	ret

0000152a <_Z11addMenuItemPK19__FlashStringHelperPFvvE>:
    menuItemCount = 0;
    dprintln(F("Clear menu items"));
}

void addMenuItem(const __FlashStringHelper *label, void (*func)(void))
{
    152a:	9c 01       	movw	r18, r24
    if (menuItemCount >= MENU_COUNT_MAX) return;
    152c:	90 91 30 03 	lds	r25, 0x0330	; 0x800330 <_ZL13menuItemCount>
    1530:	96 30       	cpi	r25, 0x06	; 6
    1532:	6c f4       	brge	.+26     	; 0x154e <_Z11addMenuItemPK19__FlashStringHelperPFvvE+0x24>
    ITEM_T *pItem = &menuItemAry[menuItemCount];
    pItem->label = label;
    1534:	84 e0       	ldi	r24, 0x04	; 4
    1536:	98 02       	muls	r25, r24
    1538:	f0 01       	movw	r30, r0
    153a:	11 24       	eor	r1, r1
    153c:	e5 5f       	subi	r30, 0xF5	; 245
    153e:	fc 4f       	sbci	r31, 0xFC	; 252
    1540:	33 83       	std	Z+3, r19	; 0x03
    1542:	22 83       	std	Z+2, r18	; 0x02
    pItem->func = func;
    1544:	71 83       	std	Z+1, r23	; 0x01
    1546:	60 83       	st	Z, r22
    menuItemCount++;
    1548:	9f 5f       	subi	r25, 0xFF	; 255
    154a:	90 93 30 03 	sts	0x0330, r25	; 0x800330 <_ZL13menuItemCount>
    if (label != NULL) {
        dprint(F("Add menu items: "));
        dprintln(label);
    }
}
    154e:	08 95       	ret

00001550 <_Z10updateLogov>:
    counter = COUNTER_MAX;
}

MODE_T updateLogo(void)
{
    if (--counter == 0) {
    1550:	90 91 45 03 	lds	r25, 0x0345	; 0x800345 <counter>
    1554:	91 50       	subi	r25, 0x01	; 1
    1556:	90 93 45 03 	sts	0x0345, r25	; 0x800345 <counter>
    155a:	81 e0       	ldi	r24, 0x01	; 1
    155c:	91 11       	cpse	r25, r1
    155e:	80 e0       	ldi	r24, 0x00	; 0
        dprintln(F("Start " APP_TITLE " Version " APP_VERSION));
        return MODE_TITLE;
    }
    return MODE_LOGO;
}
    1560:	08 95       	ret

00001562 <_Z8initLogov>:
/*                              Main Functions                               */
/*---------------------------------------------------------------------------*/

void initLogo(void)
{
    counter = COUNTER_MAX;
    1562:	88 e7       	ldi	r24, 0x78	; 120
    1564:	80 93 45 03 	sts	0x0345, r24	; 0x800345 <counter>
}
    1568:	08 95       	ret

0000156a <_ZL9newBulletiiaa>:

/*-----------------------------------------------------------------------------------------------*/

static void newBullet(int16_t x, int16_t y, int8_t deg, int8_t spd)
{
    if (bulletsNum == BULLET_MAX) return;
    156a:	90 91 c3 01 	lds	r25, 0x01C3	; 0x8001c3 <_ZL10bulletsNum>
    156e:	90 34       	cpi	r25, 0x40	; 64
    1570:	19 f1       	breq	.+70     	; 0x15b8 <_ZL9newBulletiiaa+0x4e>
    1572:	a0 91 02 01 	lds	r26, 0x0102	; 0x800102 <_ZZL9newBulletiiaaE2pB>
    1576:	b0 91 03 01 	lds	r27, 0x0103	; 0x800103 <_ZZL9newBulletiiaaE2pB+0x1>
    157a:	fd 01       	movw	r30, r26
    //if (!arduboy.collide(Point(x, y), screenRect)) return;

    static BULLET_T *pB = bullets;
    while (pB->spd) {
    157c:	30 81       	ld	r19, Z
    157e:	3f 71       	andi	r19, 0x1F	; 31
    1580:	41 f0       	breq	.+16     	; 0x1592 <_ZL9newBulletiiaa+0x28>
    1582:	35 96       	adiw	r30, 0x05	; 5
        if (++pB >= &bullets[BULLET_MAX]) pB = bullets;
    1584:	a4 ec       	ldi	r26, 0xC4	; 196
    1586:	b1 e0       	ldi	r27, 0x01	; 1
    1588:	33 e0       	ldi	r19, 0x03	; 3
    158a:	e4 30       	cpi	r30, 0x04	; 4
    158c:	f3 07       	cpc	r31, r19
    158e:	b0 f3       	brcs	.-20     	; 0x157c <_ZL9newBulletiiaa+0x12>
    1590:	f4 cf       	rjmp	.-24     	; 0x157a <_ZL9newBulletiiaa+0x10>
    1592:	f0 93 03 01 	sts	0x0103, r31	; 0x800103 <_ZZL9newBulletiiaaE2pB+0x1>
    1596:	e0 93 02 01 	sts	0x0102, r30	; 0x800102 <_ZZL9newBulletiiaaE2pB>
    }
    pB->bx = x;
    159a:	82 83       	std	Z+2, r24	; 0x02
    pB->by = y;
    159c:	63 83       	std	Z+3, r22	; 0x03
    pB->deg = deg;
    159e:	44 83       	std	Z+4, r20	; 0x04
    pB->spd = constrain(spd, BULLET_SPD_MIN, BULLET_SPD_MAX);
    15a0:	12 16       	cp	r1, r18
    15a2:	5c f4       	brge	.+22     	; 0x15ba <_ZL9newBulletiiaa+0x50>
    15a4:	20 32       	cpi	r18, 0x20	; 32
    15a6:	0c f0       	brlt	.+2      	; 0x15aa <_ZL9newBulletiiaa+0x40>
    15a8:	2f e1       	ldi	r18, 0x1F	; 31
    15aa:	2f 71       	andi	r18, 0x1F	; 31
    pB->rad = 0;
    15ac:	2f 71       	andi	r18, 0x1F	; 31
    15ae:	20 83       	st	Z, r18
    15b0:	11 82       	std	Z+1, r1	; 0x01
    bulletsNum++;
    15b2:	9f 5f       	subi	r25, 0xFF	; 255
    15b4:	90 93 c3 01 	sts	0x01C3, r25	; 0x8001c3 <_ZL10bulletsNum>
}
    15b8:	08 95       	ret
        if (++pB >= &bullets[BULLET_MAX]) pB = bullets;
    }
    pB->bx = x;
    pB->by = y;
    pB->deg = deg;
    pB->spd = constrain(spd, BULLET_SPD_MIN, BULLET_SPD_MAX);
    15ba:	21 e0       	ldi	r18, 0x01	; 1
    15bc:	f7 cf       	rjmp	.-18     	; 0x15ac <_ZL9newBulletiiaa+0x42>

000015be <_ZL17newFanwiseBulletsiiaaha>:
        if (spd >= BULLET_SPD_MIN) newBullet(x, y, deg, spd);
    }
}

static void newFanwiseBullets(int16_t x, int16_t y, int8_t deg, int8_t spd, uint8_t num,  int8_t gap)
{
    15be:	8f 92       	push	r8
    15c0:	9f 92       	push	r9
    15c2:	af 92       	push	r10
    15c4:	bf 92       	push	r11
    15c6:	cf 92       	push	r12
    15c8:	df 92       	push	r13
    15ca:	ef 92       	push	r14
    15cc:	0f 93       	push	r16
    15ce:	1f 93       	push	r17
    15d0:	cf 93       	push	r28
    15d2:	df 93       	push	r29
    15d4:	6c 01       	movw	r12, r24
    15d6:	5b 01       	movw	r10, r22
    15d8:	c4 2f       	mov	r28, r20
    15da:	d2 2f       	mov	r29, r18
    15dc:	80 2e       	mov	r8, r16
    15de:	91 2c       	mov	r9, r1
    if (num > 1) deg -= gap * (num - 1) / 2;
    15e0:	02 30       	cpi	r16, 0x02	; 2
    15e2:	70 f0       	brcs	.+28     	; 0x1600 <_ZL17newFanwiseBulletsiiaaha+0x42>
    15e4:	94 01       	movw	r18, r8
    15e6:	21 50       	subi	r18, 0x01	; 1
    15e8:	31 09       	sbc	r19, r1
    15ea:	4e 2d       	mov	r20, r14
    15ec:	42 03       	mulsu	r20, r18
    15ee:	c0 01       	movw	r24, r0
    15f0:	43 9f       	mul	r20, r19
    15f2:	90 0d       	add	r25, r0
    15f4:	11 24       	eor	r1, r1
    15f6:	97 fd       	sbrc	r25, 7
    15f8:	01 96       	adiw	r24, 0x01	; 1
    15fa:	95 95       	asr	r25
    15fc:	87 95       	ror	r24
    15fe:	c8 1b       	sub	r28, r24
        if (spd >= BULLET_SPD_MIN) newBullet(x, y, deg, spd);
    }
}

static void newFanwiseBullets(int16_t x, int16_t y, int8_t deg, int8_t spd, uint8_t num,  int8_t gap)
{
    1600:	10 e0       	ldi	r17, 0x00	; 0
    1602:	00 e0       	ldi	r16, 0x00	; 0
    if (num > 1) deg -= gap * (num - 1) / 2;
    for (int i = 0; i < num; i++, deg += gap) {
    1604:	08 15       	cp	r16, r8
    1606:	19 05       	cpc	r17, r9
    1608:	54 f4       	brge	.+20     	; 0x161e <_ZL17newFanwiseBulletsiiaaha+0x60>
        newBullet(x, y, deg, spd);
    160a:	2d 2f       	mov	r18, r29
    160c:	4c 2f       	mov	r20, r28
    160e:	b5 01       	movw	r22, r10
    1610:	c6 01       	movw	r24, r12
    1612:	0e 94 b5 0a 	call	0x156a	; 0x156a <_ZL9newBulletiiaa>
}

static void newFanwiseBullets(int16_t x, int16_t y, int8_t deg, int8_t spd, uint8_t num,  int8_t gap)
{
    if (num > 1) deg -= gap * (num - 1) / 2;
    for (int i = 0; i < num; i++, deg += gap) {
    1616:	0f 5f       	subi	r16, 0xFF	; 255
    1618:	1f 4f       	sbci	r17, 0xFF	; 255
    161a:	ce 0d       	add	r28, r14
    161c:	f3 cf       	rjmp	.-26     	; 0x1604 <_ZL17newFanwiseBulletsiiaaha+0x46>
        newBullet(x, y, deg, spd);
    }
}
    161e:	df 91       	pop	r29
    1620:	cf 91       	pop	r28
    1622:	1f 91       	pop	r17
    1624:	0f 91       	pop	r16
    1626:	ef 90       	pop	r14
    1628:	df 90       	pop	r13
    162a:	cf 90       	pop	r12
    162c:	bf 90       	pop	r11
    162e:	af 90       	pop	r10
    1630:	9f 90       	pop	r9
    1632:	8f 90       	pop	r8
    1634:	08 95       	ret

00001636 <_ZL11updateShotsv>:
    if (++pS >= &shots[SHOT_MAX]) pS = shots;
}

static void updateShots(void)
{
    for (SHOT_T *pS = shots; pS < &shots[SHOT_MAX]; pS++) {
    1636:	ee e4       	ldi	r30, 0x4E	; 78
    1638:	f1 e0       	ldi	r31, 0x01	; 1
        if (pS->x < WIDTH) pS->x += SHOT_SPD;
    163a:	80 81       	ld	r24, Z
    163c:	87 fd       	sbrc	r24, 7
    163e:	02 c0       	rjmp	.+4      	; 0x1644 <_ZL11updateShotsv+0xe>
    1640:	8b 5f       	subi	r24, 0xFB	; 251
    1642:	80 83       	st	Z, r24
    if (++pS >= &shots[SHOT_MAX]) pS = shots;
}

static void updateShots(void)
{
    for (SHOT_T *pS = shots; pS < &shots[SHOT_MAX]; pS++) {
    1644:	32 96       	adiw	r30, 0x02	; 2
    1646:	81 e0       	ldi	r24, 0x01	; 1
    1648:	e2 37       	cpi	r30, 0x72	; 114
    164a:	f8 07       	cpc	r31, r24
    164c:	b1 f7       	brne	.-20     	; 0x163a <_ZL11updateShotsv+0x4>
        if (pS->x < WIDTH) pS->x += SHOT_SPD;
    }
}
    164e:	08 95       	ret

00001650 <_ZL12updatePlayerv>:
    return currentButtonState & ~lastButtonState & buttons;
}

bool MyArduboy2::buttonPressed(uint8_t buttons)
{
    return currentButtonState & buttons;
    1650:	90 91 e2 07 	lds	r25, 0x07E2	; 0x8007e2 <arduboy+0x5>
    1654:	96 fb       	bst	r25, 6
    1656:	33 27       	eor	r19, r19
    1658:	30 f9       	bld	r19, 0
    165a:	95 fb       	bst	r25, 5
    165c:	88 27       	eor	r24, r24
    165e:	80 f9       	bld	r24, 0

/*-----------------------------------------------------------------------------------------------*/

static void updatePlayer(void)
{
    int8_t vx = arduboy.buttonPressed(RIGHT_BUTTON) - arduboy.buttonPressed(LEFT_BUTTON);
    1660:	38 1b       	sub	r19, r24
    1662:	94 fb       	bst	r25, 4
    1664:	55 27       	eor	r21, r21
    1666:	50 f9       	bld	r21, 0
    1668:	89 2f       	mov	r24, r25
    166a:	88 1f       	adc	r24, r24
    166c:	88 27       	eor	r24, r24
    166e:	88 1f       	adc	r24, r24
    int8_t vy = arduboy.buttonPressed(DOWN_BUTTON) - arduboy.buttonPressed(UP_BUTTON);
    1670:	58 1b       	sub	r21, r24
    int8_t vr = (playerSlow == PLAYER_SLOW_MAX) ? 2 : ((vx != 0 && vy != 0) ? 3 : 4);
    1672:	80 91 4b 01 	lds	r24, 0x014B	; 0x80014b <_ZL10playerSlow>
    1676:	42 e0       	ldi	r20, 0x02	; 2
    1678:	88 30       	cpi	r24, 0x08	; 8
    167a:	31 f0       	breq	.+12     	; 0x1688 <_ZL12updatePlayerv+0x38>
    167c:	33 23       	and	r19, r19
    167e:	19 f0       	breq	.+6      	; 0x1686 <_ZL12updatePlayerv+0x36>
    1680:	43 e0       	ldi	r20, 0x03	; 3
    1682:	51 11       	cpse	r21, r1
    1684:	01 c0       	rjmp	.+2      	; 0x1688 <_ZL12updatePlayerv+0x38>
    1686:	44 e0       	ldi	r20, 0x04	; 4
    playerX += vx * vr;
    1688:	20 91 06 03 	lds	r18, 0x0306	; 0x800306 <_ZL7playerX>
    168c:	34 9f       	mul	r19, r20
    168e:	20 0d       	add	r18, r0
    1690:	11 24       	eor	r1, r1
    playerX = constrain(playerX, 3 * PLAYER_SCALE, (WIDTH / 2 - 3) * PLAYER_SCALE - 1);
    1692:	24 3f       	cpi	r18, 0xF4	; 244
    1694:	d8 f0       	brcs	.+54     	; 0x16cc <_ZL12updatePlayerv+0x7c>
    1696:	23 ef       	ldi	r18, 0xF3	; 243
    1698:	20 93 06 03 	sts	0x0306, r18	; 0x800306 <_ZL7playerX>
    playerY += vy * vr;
    169c:	30 91 05 03 	lds	r19, 0x0305	; 0x800305 <_ZL7playerY>
    16a0:	54 9f       	mul	r21, r20
    16a2:	30 0d       	add	r19, r0
    16a4:	11 24       	eor	r1, r1
    playerY = constrain(playerY, 3 * PLAYER_SCALE, (HEIGHT - 3) * PLAYER_SCALE - 1);
    16a6:	34 3f       	cpi	r19, 0xF4	; 244
    16a8:	a8 f0       	brcs	.+42     	; 0x16d4 <_ZL12updatePlayerv+0x84>
    16aa:	33 ef       	ldi	r19, 0xF3	; 243
    16ac:	30 93 05 03 	sts	0x0305, r19	; 0x800305 <_ZL7playerY>

    if (arduboy.buttonPressed(B_BUTTON)) {
    16b0:	92 ff       	sbrs	r25, 2
    16b2:	45 c0       	rjmp	.+138    	; 0x173e <_ZL12updatePlayerv+0xee>
        if (playerFire == 0) playerFire = PLAYER_FIRE_MAX;
    16b4:	90 91 4a 01 	lds	r25, 0x014A	; 0x80014a <_ZL10playerFire>
    16b8:	91 11       	cpse	r25, r1
    16ba:	03 c0       	rjmp	.+6      	; 0x16c2 <_ZL12updatePlayerv+0x72>
    16bc:	9c e0       	ldi	r25, 0x0C	; 12
    16be:	90 93 4a 01 	sts	0x014A, r25	; 0x80014a <_ZL10playerFire>
        if (playerSlow < PLAYER_SLOW_MAX) playerSlow++;
    16c2:	88 30       	cpi	r24, 0x08	; 8
    16c4:	58 f0       	brcs	.+22     	; 0x16dc <_ZL12updatePlayerv+0x8c>
    16c6:	80 91 4a 01 	lds	r24, 0x014A	; 0x80014a <_ZL10playerFire>
    16ca:	0f c0       	rjmp	.+30     	; 0x16ea <_ZL12updatePlayerv+0x9a>
    16cc:	2c 30       	cpi	r18, 0x0C	; 12
    16ce:	20 f7       	brcc	.-56     	; 0x1698 <_ZL12updatePlayerv+0x48>
    16d0:	2c e0       	ldi	r18, 0x0C	; 12
    16d2:	e2 cf       	rjmp	.-60     	; 0x1698 <_ZL12updatePlayerv+0x48>
    16d4:	3c 30       	cpi	r19, 0x0C	; 12
    16d6:	50 f7       	brcc	.-44     	; 0x16ac <_ZL12updatePlayerv+0x5c>
    16d8:	3c e0       	ldi	r19, 0x0C	; 12
    16da:	e8 cf       	rjmp	.-48     	; 0x16ac <_ZL12updatePlayerv+0x5c>
    16dc:	8f 5f       	subi	r24, 0xFF	; 255
    } else {
        if (playerSlow > 0) playerSlow--;
    16de:	80 93 4b 01 	sts	0x014B, r24	; 0x80014b <_ZL10playerSlow>
    }
    if (playerFire > 0 && playerFire-- % PLAYER_FIRE_INT == 0) {
    16e2:	80 91 4a 01 	lds	r24, 0x014A	; 0x80014a <_ZL10playerFire>
    16e6:	88 23       	and	r24, r24
    16e8:	a9 f1       	breq	.+106    	; 0x1754 <_ZL12updatePlayerv+0x104>
    16ea:	4f ef       	ldi	r20, 0xFF	; 255
    16ec:	48 0f       	add	r20, r24
    16ee:	40 93 4a 01 	sts	0x014A, r20	; 0x80014a <_ZL10playerFire>
    16f2:	63 e0       	ldi	r22, 0x03	; 3
    16f4:	0e 94 b4 2f 	call	0x5f68	; 0x5f68 <__udivmodqi4>
    16f8:	91 11       	cpse	r25, r1
    16fa:	2c c0       	rjmp	.+88     	; 0x1754 <_ZL12updatePlayerv+0x104>
        newShot((PLAYER_FIRE_MAX / PLAYER_FIRE_INT) - playerFire / PLAYER_FIRE_INT);
    16fc:	8b ea       	ldi	r24, 0xAB	; 171
    16fe:	48 9f       	mul	r20, r24
    1700:	41 2d       	mov	r20, r1
    1702:	11 24       	eor	r1, r1
    1704:	46 95       	lsr	r20
    1706:	84 e0       	ldi	r24, 0x04	; 4
    1708:	84 1b       	sub	r24, r20
}

static void newShot(uint8_t g)
{
    static SHOT_T *pS = shots;
    uint8_t x = playerX / PLAYER_SCALE + SHOT_SPD, y = playerY / PLAYER_SCALE;
    170a:	26 95       	lsr	r18
    170c:	26 95       	lsr	r18
    170e:	2b 5f       	subi	r18, 0xFB	; 251
    1710:	36 95       	lsr	r19
    1712:	36 95       	lsr	r19
    pS->x = x;
    1714:	e0 91 00 01 	lds	r30, 0x0100	; 0x800100 <__data_start>
    1718:	f0 91 01 01 	lds	r31, 0x0101	; 0x800101 <__data_start+0x1>
    171c:	20 83       	st	Z, r18
    pS->y = y - g;
    171e:	93 2f       	mov	r25, r19
    1720:	98 1b       	sub	r25, r24
    1722:	91 83       	std	Z+1, r25	; 0x01
    pS++;
    pS->x = x;
    1724:	22 83       	std	Z+2, r18	; 0x02
    pS->y = y + g;
    1726:	38 0f       	add	r19, r24
    1728:	33 83       	std	Z+3, r19	; 0x03
    if (++pS >= &shots[SHOT_MAX]) pS = shots;
    172a:	34 96       	adiw	r30, 0x04	; 4
    172c:	81 e0       	ldi	r24, 0x01	; 1
    172e:	e2 37       	cpi	r30, 0x72	; 114
    1730:	f8 07       	cpc	r31, r24
    1732:	48 f4       	brcc	.+18     	; 0x1746 <_ZL12updatePlayerv+0xf6>
    1734:	f0 93 01 01 	sts	0x0101, r31	; 0x800101 <__data_start+0x1>
    1738:	e0 93 00 01 	sts	0x0100, r30	; 0x800100 <__data_start>
    173c:	08 95       	ret

    if (arduboy.buttonPressed(B_BUTTON)) {
        if (playerFire == 0) playerFire = PLAYER_FIRE_MAX;
        if (playerSlow < PLAYER_SLOW_MAX) playerSlow++;
    } else {
        if (playerSlow > 0) playerSlow--;
    173e:	88 23       	and	r24, r24
    1740:	81 f2       	breq	.-96     	; 0x16e2 <_ZL12updatePlayerv+0x92>
    1742:	81 50       	subi	r24, 0x01	; 1
    1744:	cc cf       	rjmp	.-104    	; 0x16de <_ZL12updatePlayerv+0x8e>
    pS->x = x;
    pS->y = y - g;
    pS++;
    pS->x = x;
    pS->y = y + g;
    if (++pS >= &shots[SHOT_MAX]) pS = shots;
    1746:	8e e4       	ldi	r24, 0x4E	; 78
    1748:	91 e0       	ldi	r25, 0x01	; 1
    174a:	90 93 01 01 	sts	0x0101, r25	; 0x800101 <__data_start+0x1>
    174e:	80 93 00 01 	sts	0x0100, r24	; 0x800100 <__data_start>
    1752:	08 95       	ret
        if (playerSlow > 0) playerSlow--;
    }
    if (playerFire > 0 && playerFire-- % PLAYER_FIRE_INT == 0) {
        newShot((PLAYER_FIRE_MAX / PLAYER_FIRE_INT) - playerFire / PLAYER_FIRE_INT);
    }
}
    1754:	08 95       	ret

00001756 <_ZL10sparkleLedh>:
    setMenuItemPos((state == STATE_OVER && !isDefeated) ? 1 : 0);
    isMenu = true;
}

static void sparkleLed(uint8_t idx)
{
    1756:	28 2f       	mov	r18, r24
    if (!record.isBlinkLED) return;
    1758:	80 91 3d 03 	lds	r24, 0x033D	; 0x80033d <record+0x3>
    175c:	85 ff       	sbrs	r24, 5
    175e:	1d c0       	rjmp	.+58     	; 0x179a <_ZL10sparkleLedh+0x44>
    uint8_t ledValue = pgm_read_byte(ledValues + idx);
    1760:	e2 2f       	mov	r30, r18
    1762:	f0 e0       	ldi	r31, 0x00	; 0
    1764:	e9 56       	subi	r30, 0x69	; 105
    1766:	fa 4f       	sbci	r31, 0xFA	; 250
    1768:	e4 91       	lpm	r30, Z
    ledRed = ledValue / 25;
    176a:	8e 2f       	mov	r24, r30
    176c:	69 e1       	ldi	r22, 0x19	; 25
    176e:	0e 94 b4 2f 	call	0x5f68	; 0x5f68 <__udivmodqi4>
    1772:	80 93 49 01 	sts	0x0149, r24	; 0x800149 <_ZL6ledRed>
    ledGreen = ledValue / 5 % 5;
    1776:	35 e0       	ldi	r19, 0x05	; 5
    1778:	8e 2f       	mov	r24, r30
    177a:	63 2f       	mov	r22, r19
    177c:	0e 94 b4 2f 	call	0x5f68	; 0x5f68 <__udivmodqi4>
    1780:	49 2f       	mov	r20, r25
    1782:	0e 94 b4 2f 	call	0x5f68	; 0x5f68 <__udivmodqi4>
    1786:	90 93 48 01 	sts	0x0148, r25	; 0x800148 <_ZL8ledGreen>
    ledBlue = ledValue % 5;
    178a:	40 93 47 01 	sts	0x0147, r20	; 0x800147 <_ZL7ledBlue>
    ledLevel = (idx == LED_IDX_OVER) ? LED_LEVEL_OVER : LED_LEVEL_NORMAL;
    178e:	88 e0       	ldi	r24, 0x08	; 8
    1790:	25 30       	cpi	r18, 0x05	; 5
    1792:	09 f4       	brne	.+2      	; 0x1796 <_ZL10sparkleLedh+0x40>
    1794:	80 e1       	ldi	r24, 0x10	; 16
    1796:	80 93 46 01 	sts	0x0146, r24	; 0x800146 <_ZL8ledLevel>
}
    179a:	08 95       	ret

0000179c <_ZL5mySinai>:
    73, 76, 78, 81, 83, 85, 88, 90, 92, 94, 96, 98, 100, 102, 104, 106, 108, 109, 111, 112, 114,
    115, 117, 118, 119, 120, 121, 122, 123, 124, 124, 125, 126, 126, 127, 127, 127, 127, 127, 128
};

static int16_t mySin(int8_t deg, int16_t rad)
{
    179c:	e8 2f       	mov	r30, r24
    if (deg < 0) rad = -rad, deg &= 127;
    179e:	87 ff       	sbrs	r24, 7
    17a0:	04 c0       	rjmp	.+8      	; 0x17aa <_ZL5mySinai+0xe>
    17a2:	71 95       	neg	r23
    17a4:	61 95       	neg	r22
    17a6:	71 09       	sbc	r23, r1
    17a8:	ef 77       	andi	r30, 0x7F	; 127
    if (deg > 64) deg = 128 - deg;
    17aa:	e1 34       	cpi	r30, 0x41	; 65
    17ac:	1c f0       	brlt	.+6      	; 0x17b4 <_ZL5mySinai+0x18>
    17ae:	80 e8       	ldi	r24, 0x80	; 128
    17b0:	8e 1b       	sub	r24, r30
    17b2:	e8 2f       	mov	r30, r24
    return pgm_read_byte(sineTable + deg) * rad >> 7;
    17b4:	0e 2e       	mov	r0, r30
    17b6:	00 0c       	add	r0, r0
    17b8:	ff 0b       	sbc	r31, r31
    17ba:	e4 54       	subi	r30, 0x44	; 68
    17bc:	fd 4f       	sbci	r31, 0xFD	; 253
    17be:	e4 91       	lpm	r30, Z
    17c0:	e6 9f       	mul	r30, r22
    17c2:	c0 01       	movw	r24, r0
    17c4:	e7 9f       	mul	r30, r23
    17c6:	90 0d       	add	r25, r0
    17c8:	11 24       	eor	r1, r1
}
    17ca:	88 0f       	add	r24, r24
    17cc:	89 2f       	mov	r24, r25
    17ce:	88 1f       	adc	r24, r24
    17d0:	99 0b       	sbc	r25, r25
    17d2:	08 95       	ret

000017d4 <_ZL15getBulletCoordsP8BULLET_T>:
    }
    return ret;
}

static Point getBulletCoords(BULLET_T *pB)
{
    17d4:	cf 92       	push	r12
    17d6:	df 92       	push	r13
    17d8:	ef 92       	push	r14
    17da:	ff 92       	push	r15
    17dc:	0f 93       	push	r16
    17de:	1f 93       	push	r17
    17e0:	cf 93       	push	r28
    17e2:	df 93       	push	r29
    17e4:	ec 01       	movw	r28, r24
    int16_t rad = pB->rad / BULLET_SCALE;
    17e6:	88 81       	ld	r24, Y
    17e8:	28 2f       	mov	r18, r24
    17ea:	22 95       	swap	r18
    17ec:	26 95       	lsr	r18
    17ee:	27 70       	andi	r18, 0x07	; 7
    17f0:	99 81       	ldd	r25, Y+1	; 0x01
    17f2:	89 2f       	mov	r24, r25
    17f4:	88 0f       	add	r24, r24
    17f6:	88 0f       	add	r24, r24
    17f8:	88 0f       	add	r24, r24
    17fa:	82 2b       	or	r24, r18
    17fc:	92 95       	swap	r25
    17fe:	96 95       	lsr	r25
    1800:	97 70       	andi	r25, 0x07	; 7
    1802:	6c e0       	ldi	r22, 0x0C	; 12
    1804:	70 e0       	ldi	r23, 0x00	; 0
    1806:	0e 94 d4 2f 	call	0x5fa8	; 0x5fa8 <__divmodhi4>
    180a:	6b 01       	movw	r12, r22
    return Point(pB->bx + myCos(pB->deg, rad), pB->by + mySin(pB->deg, rad));
    180c:	0b 81       	ldd	r16, Y+3	; 0x03
    180e:	10 e0       	ldi	r17, 0x00	; 0
    1810:	8c 81       	ldd	r24, Y+4	; 0x04
    1812:	0e 94 ce 0b 	call	0x179c	; 0x179c <_ZL5mySinai>
    1816:	08 0f       	add	r16, r24
    1818:	19 1f       	adc	r17, r25
    181a:	ea 80       	ldd	r14, Y+2	; 0x02
    181c:	f1 2c       	mov	r15, r1
    181e:	8c 81       	ldd	r24, Y+4	; 0x04
    1820:	b6 01       	movw	r22, r12
    1822:	80 5c       	subi	r24, 0xC0	; 192
    1824:	0e 94 ce 0b 	call	0x179c	; 0x179c <_ZL5mySinai>
    1828:	a7 01       	movw	r20, r14
    182a:	48 0f       	add	r20, r24
    182c:	59 1f       	adc	r21, r25
}
    182e:	c8 01       	movw	r24, r16
    1830:	ba 01       	movw	r22, r20
    1832:	df 91       	pop	r29
    1834:	cf 91       	pop	r28
    1836:	1f 91       	pop	r17
    1838:	0f 91       	pop	r16
    183a:	ff 90       	pop	r15
    183c:	ef 90       	pop	r14
    183e:	df 90       	pop	r13
    1840:	cf 90       	pop	r12
    1842:	08 95       	ret

00001844 <_ZL13updateBulletsv>:
        newBullet(x, y, deg, spd);
    }
}

static bool updateBullets(void)
{
    1844:	9f 92       	push	r9
    1846:	af 92       	push	r10
    1848:	bf 92       	push	r11
    184a:	cf 92       	push	r12
    184c:	df 92       	push	r13
    184e:	ef 92       	push	r14
    1850:	ff 92       	push	r15
    1852:	0f 93       	push	r16
    1854:	1f 93       	push	r17
    1856:	cf 93       	push	r28
    1858:	df 93       	push	r29
    bool ret = false;
    Rect playerRect = Rect(playerX / PLAYER_SCALE - 1, playerY / PLAYER_SCALE - 1, 3, 3);
    185a:	00 91 05 03 	lds	r16, 0x0305	; 0x800305 <_ZL7playerY>
    185e:	06 95       	lsr	r16
    1860:	06 95       	lsr	r16
    1862:	10 e0       	ldi	r17, 0x00	; 0
    1864:	78 01       	movw	r14, r16
    1866:	81 e0       	ldi	r24, 0x01	; 1
    1868:	e8 1a       	sub	r14, r24
    186a:	f1 08       	sbc	r15, r1
    186c:	c0 91 06 03 	lds	r28, 0x0306	; 0x800306 <_ZL7playerX>
    1870:	c6 95       	lsr	r28
    1872:	c6 95       	lsr	r28
    1874:	d0 e0       	ldi	r29, 0x00	; 0
    1876:	6e 01       	movw	r12, r28
    1878:	e1 e0       	ldi	r30, 0x01	; 1
    187a:	ce 1a       	sub	r12, r30
    187c:	d1 08       	sbc	r13, r1
    for (BULLET_T *pB = bullets; pB < &bullets[BULLET_MAX]; pB++) {
    187e:	84 ec       	ldi	r24, 0xC4	; 196
    1880:	a8 2e       	mov	r10, r24
    1882:	81 e0       	ldi	r24, 0x01	; 1
    1884:	b8 2e       	mov	r11, r24
    }
}

static bool updateBullets(void)
{
    bool ret = false;
    1886:	91 2c       	mov	r9, r1
  return ((previousButtonState & button) && !(currentButtonState & button));
}

bool Arduboy2Base::collide(Point point, Rect rect)
{
  return ((point.x >= rect.x) && (point.x < rect.x + rect.width) &&
    1888:	22 96       	adiw	r28, 0x02	; 2
      (point.y >= rect.y) && (point.y < rect.y + rect.height));
    188a:	0e 5f       	subi	r16, 0xFE	; 254
    188c:	1f 4f       	sbci	r17, 0xFF	; 255
    Rect playerRect = Rect(playerX / PLAYER_SCALE - 1, playerY / PLAYER_SCALE - 1, 3, 3);
    for (BULLET_T *pB = bullets; pB < &bullets[BULLET_MAX]; pB++) {
        if (pB->spd) {
    188e:	f5 01       	movw	r30, r10
    1890:	30 81       	ld	r19, Z
    1892:	23 2f       	mov	r18, r19
    1894:	2f 71       	andi	r18, 0x1F	; 31
    1896:	51 f1       	breq	.+84     	; 0x18ec <_ZL13updateBulletsv+0xa8>
            pB->rad += pB->spd;
    1898:	32 95       	swap	r19
    189a:	36 95       	lsr	r19
    189c:	37 70       	andi	r19, 0x07	; 7
    189e:	41 81       	ldd	r20, Z+1	; 0x01
    18a0:	54 2f       	mov	r21, r20
    18a2:	55 0f       	add	r21, r21
    18a4:	55 0f       	add	r21, r21
    18a6:	55 0f       	add	r21, r21
    18a8:	85 2f       	mov	r24, r21
    18aa:	83 2b       	or	r24, r19
    18ac:	94 2f       	mov	r25, r20
    18ae:	92 95       	swap	r25
    18b0:	96 95       	lsr	r25
    18b2:	97 70       	andi	r25, 0x07	; 7
    18b4:	82 0f       	add	r24, r18
    18b6:	91 1d       	adc	r25, r1
    18b8:	38 2f       	mov	r19, r24
    18ba:	32 95       	swap	r19
    18bc:	33 0f       	add	r19, r19
    18be:	30 7e       	andi	r19, 0xE0	; 224
    18c0:	23 2b       	or	r18, r19
    18c2:	20 83       	st	Z, r18
    18c4:	92 95       	swap	r25
    18c6:	99 0f       	add	r25, r25
    18c8:	90 7e       	andi	r25, 0xE0	; 224
    18ca:	86 95       	lsr	r24
    18cc:	86 95       	lsr	r24
    18ce:	86 95       	lsr	r24
    18d0:	89 2b       	or	r24, r25
    18d2:	81 83       	std	Z+1, r24	; 0x01
            Point bulletPoint = getBulletCoords(pB);
    18d4:	c5 01       	movw	r24, r10
    18d6:	0e 94 ea 0b 	call	0x17d4	; 0x17d4 <_ZL15getBulletCoordsP8BULLET_T>
  return ((previousButtonState & button) && !(currentButtonState & button));
}

bool Arduboy2Base::collide(Point point, Rect rect)
{
  return ((point.x >= rect.x) && (point.x < rect.x + rect.width) &&
    18da:	60 38       	cpi	r22, 0x80	; 128
    18dc:	71 05       	cpc	r23, r1
    18de:	d8 f4       	brcc	.+54     	; 0x1916 <_ZL13updateBulletsv+0xd2>
      (point.y >= rect.y) && (point.y < rect.y + rect.height));
    18e0:	80 34       	cpi	r24, 0x40	; 64
    18e2:	91 05       	cpc	r25, r1
    18e4:	c0 f4       	brcc	.+48     	; 0x1916 <_ZL13updateBulletsv+0xd2>
    18e6:	6c 15       	cp	r22, r12
    18e8:	7d 05       	cpc	r23, r13
    18ea:	fc f4       	brge	.+62     	; 0x192a <_ZL13updateBulletsv+0xe6>

static bool updateBullets(void)
{
    bool ret = false;
    Rect playerRect = Rect(playerX / PLAYER_SCALE - 1, playerY / PLAYER_SCALE - 1, 3, 3);
    for (BULLET_T *pB = bullets; pB < &bullets[BULLET_MAX]; pB++) {
    18ec:	f5 e0       	ldi	r31, 0x05	; 5
    18ee:	af 0e       	add	r10, r31
    18f0:	b1 1c       	adc	r11, r1
    18f2:	84 e0       	ldi	r24, 0x04	; 4
    18f4:	a8 16       	cp	r10, r24
    18f6:	83 e0       	ldi	r24, 0x03	; 3
    18f8:	b8 06       	cpc	r11, r24
    18fa:	49 f6       	brne	.-110    	; 0x188e <_ZL13updateBulletsv+0x4a>
#endif
            }
        }
    }
    return ret;
}
    18fc:	89 2d       	mov	r24, r9
    18fe:	df 91       	pop	r29
    1900:	cf 91       	pop	r28
    1902:	1f 91       	pop	r17
    1904:	0f 91       	pop	r16
    1906:	ff 90       	pop	r15
    1908:	ef 90       	pop	r14
    190a:	df 90       	pop	r13
    190c:	cf 90       	pop	r12
    190e:	bf 90       	pop	r11
    1910:	af 90       	pop	r10
    1912:	9f 90       	pop	r9
    1914:	08 95       	ret
    for (BULLET_T *pB = bullets; pB < &bullets[BULLET_MAX]; pB++) {
        if (pB->spd) {
            pB->rad += pB->spd;
            Point bulletPoint = getBulletCoords(pB);
            if (!arduboy.collide(bulletPoint, screenRect)) {
                pB->spd = 0;
    1916:	f5 01       	movw	r30, r10
    1918:	80 81       	ld	r24, Z
    191a:	80 7e       	andi	r24, 0xE0	; 224
    191c:	80 83       	st	Z, r24
                bulletsNum--;
    191e:	80 91 c3 01 	lds	r24, 0x01C3	; 0x8001c3 <_ZL10bulletsNum>
    1922:	81 50       	subi	r24, 0x01	; 1
    1924:	80 93 c3 01 	sts	0x01C3, r24	; 0x8001c3 <_ZL10bulletsNum>
    1928:	e1 cf       	rjmp	.-62     	; 0x18ec <_ZL13updateBulletsv+0xa8>
  return ((previousButtonState & button) && !(currentButtonState & button));
}

bool Arduboy2Base::collide(Point point, Rect rect)
{
  return ((point.x >= rect.x) && (point.x < rect.x + rect.width) &&
    192a:	6c 17       	cp	r22, r28
    192c:	7d 07       	cpc	r23, r29
    192e:	f4 f6       	brge	.-68     	; 0x18ec <_ZL13updateBulletsv+0xa8>
    1930:	8e 15       	cp	r24, r14
    1932:	9f 05       	cpc	r25, r15
    1934:	dc f2       	brlt	.-74     	; 0x18ec <_ZL13updateBulletsv+0xa8>
      (point.y >= rect.y) && (point.y < rect.y + rect.height));
    1936:	80 17       	cp	r24, r16
    1938:	91 07       	cpc	r25, r17
    193a:	c4 f6       	brge	.-80     	; 0x18ec <_ZL13updateBulletsv+0xa8>
            } else if (arduboy.collide(bulletPoint, playerRect)) {
                ret = true; // Game over...
    193c:	99 24       	eor	r9, r9
    193e:	93 94       	inc	r9
    1940:	d5 cf       	rjmp	.-86     	; 0x18ec <_ZL13updateBulletsv+0xa8>

00001942 <_ZL14getEnemyCoordsP7GROUP_TP7ENEMY_Tj>:
    if (isDamaged) arduboy.playTone(200, 10);
    return (enemyLives == 0 && gameFrames >= GAME_DURATION);
}

static Point getEnemyCoords(GROUP_T *pG, ENEMY_T *pE, uint16_t frames)
{
    1942:	cf 92       	push	r12
    1944:	df 92       	push	r13
    1946:	ef 92       	push	r14
    1948:	ff 92       	push	r15
    194a:	0f 93       	push	r16
    194c:	1f 93       	push	r17
    194e:	cf 93       	push	r28
    1950:	df 93       	push	r29
    1952:	7c 01       	movw	r14, r24
    1954:	8b 01       	movw	r16, r22
    frames += pE->framesGap;
    1956:	db 01       	movw	r26, r22
    1958:	12 96       	adiw	r26, 0x02	; 2
    195a:	ec 91       	ld	r30, X
    195c:	e4 0f       	add	r30, r20
    195e:	f5 2f       	mov	r31, r21
    1960:	f1 1d       	adc	r31, r1
    int8_t xDeg = (frames * pG->xCoef) / pG->xRad;
    1962:	dc 01       	movw	r26, r24
    1964:	12 96       	adiw	r26, 0x02	; 2
    1966:	cc 90       	ld	r12, X
    1968:	12 97       	sbiw	r26, 0x02	; 2
    196a:	8c 2d       	mov	r24, r12
    196c:	8f 73       	andi	r24, 0x3F	; 63
    196e:	8e 9f       	mul	r24, r30
    1970:	90 01       	movw	r18, r0
    1972:	8f 9f       	mul	r24, r31
    1974:	30 0d       	add	r19, r0
    1976:	11 24       	eor	r1, r1
    1978:	6c 91       	ld	r22, X
    197a:	96 2f       	mov	r25, r22
    197c:	92 95       	swap	r25
    197e:	9f 70       	andi	r25, 0x0F	; 15
    1980:	11 96       	adiw	r26, 0x01	; 1
    1982:	4c 91       	ld	r20, X
    1984:	64 2f       	mov	r22, r20
    1986:	63 70       	andi	r22, 0x03	; 3
    1988:	62 95       	swap	r22
    198a:	60 7f       	andi	r22, 0xF0	; 240
    198c:	69 2b       	or	r22, r25
    198e:	70 e0       	ldi	r23, 0x00	; 0
    1990:	c9 01       	movw	r24, r18
    1992:	0e 94 c0 2f 	call	0x5f80	; 0x5f80 <__udivmodhi4>
    1996:	d6 2e       	mov	r13, r22
    int8_t yDeg = (frames * pG->yCoef) / pG->yRad + pG->yFlip * 128;
    1998:	24 2f       	mov	r18, r20
    199a:	26 95       	lsr	r18
    199c:	26 95       	lsr	r18
    199e:	2f 71       	andi	r18, 0x1F	; 31
    return Point(pE->bx + WIDTH / 2 + myCos(xDeg, pG->xRad), pE->by + mySin(yDeg, pG->yRad));
    19a0:	d8 01       	movw	r26, r16
    19a2:	cc 91       	ld	r28, X
    19a4:	8c 2f       	mov	r24, r28
    19a6:	82 95       	swap	r24
    19a8:	86 95       	lsr	r24
    19aa:	86 95       	lsr	r24
    19ac:	83 70       	andi	r24, 0x03	; 3
    19ae:	11 96       	adiw	r26, 0x01	; 1
    19b0:	cc 91       	ld	r28, X
    19b2:	cf 70       	andi	r28, 0x0F	; 15
    19b4:	cc 0f       	add	r28, r28
    19b6:	cc 0f       	add	r28, r28
    19b8:	c8 2b       	or	r28, r24
    19ba:	d0 e0       	ldi	r29, 0x00	; 0
    19bc:	30 e0       	ldi	r19, 0x00	; 0

static Point getEnemyCoords(GROUP_T *pG, ENEMY_T *pE, uint16_t frames)
{
    frames += pE->framesGap;
    int8_t xDeg = (frames * pG->xCoef) / pG->xRad;
    int8_t yDeg = (frames * pG->yCoef) / pG->yRad + pG->yFlip * 128;
    19be:	c2 94       	swap	r12
    19c0:	c6 94       	lsr	r12
    19c2:	c6 94       	lsr	r12
    19c4:	83 e0       	ldi	r24, 0x03	; 3
    19c6:	c8 22       	and	r12, r24
    19c8:	d7 01       	movw	r26, r14
    19ca:	13 96       	adiw	r26, 0x03	; 3
    19cc:	9c 91       	ld	r25, X
    19ce:	9f 70       	andi	r25, 0x0F	; 15
    19d0:	99 0f       	add	r25, r25
    19d2:	99 0f       	add	r25, r25
    19d4:	9c 29       	or	r25, r12
    19d6:	9e 9f       	mul	r25, r30
    19d8:	b0 01       	movw	r22, r0
    19da:	9f 9f       	mul	r25, r31
    19dc:	70 0d       	add	r23, r0
    19de:	11 24       	eor	r1, r1
    19e0:	cb 01       	movw	r24, r22
    19e2:	b9 01       	movw	r22, r18
    19e4:	0e 94 c0 2f 	call	0x5f80	; 0x5f80 <__udivmodhi4>
    19e8:	86 2f       	mov	r24, r22
    19ea:	40 78       	andi	r20, 0x80	; 128
    return Point(pE->bx + WIDTH / 2 + myCos(xDeg, pG->xRad), pE->by + mySin(yDeg, pG->yRad));
    19ec:	b9 01       	movw	r22, r18
    19ee:	84 0f       	add	r24, r20
    19f0:	0e 94 ce 0b 	call	0x179c	; 0x179c <_ZL5mySinai>
    19f4:	c8 0f       	add	r28, r24
    19f6:	d9 1f       	adc	r29, r25
    19f8:	f8 01       	movw	r30, r16
    19fa:	00 81       	ld	r16, Z
    19fc:	0f 73       	andi	r16, 0x3F	; 63
    19fe:	10 e0       	ldi	r17, 0x00	; 0
    1a00:	00 5c       	subi	r16, 0xC0	; 192
    1a02:	1f 4f       	sbci	r17, 0xFF	; 255
    1a04:	d7 01       	movw	r26, r14
    1a06:	6c 91       	ld	r22, X
    1a08:	86 2f       	mov	r24, r22
    1a0a:	82 95       	swap	r24
    1a0c:	8f 70       	andi	r24, 0x0F	; 15
    1a0e:	11 96       	adiw	r26, 0x01	; 1
    1a10:	6c 91       	ld	r22, X
    1a12:	63 70       	andi	r22, 0x03	; 3
    1a14:	62 95       	swap	r22
    1a16:	60 7f       	andi	r22, 0xF0	; 240
    1a18:	68 2b       	or	r22, r24
    1a1a:	70 e0       	ldi	r23, 0x00	; 0
    1a1c:	80 e4       	ldi	r24, 0x40	; 64
    1a1e:	8d 0d       	add	r24, r13
    1a20:	0e 94 ce 0b 	call	0x179c	; 0x179c <_ZL5mySinai>
    1a24:	a8 01       	movw	r20, r16
    1a26:	48 0f       	add	r20, r24
    1a28:	59 1f       	adc	r21, r25
}
    1a2a:	ce 01       	movw	r24, r28
    1a2c:	ba 01       	movw	r22, r20
    1a2e:	df 91       	pop	r29
    1a30:	cf 91       	pop	r28
    1a32:	1f 91       	pop	r17
    1a34:	0f 91       	pop	r16
    1a36:	ff 90       	pop	r15
    1a38:	ef 90       	pop	r14
    1a3a:	df 90       	pop	r13
    1a3c:	cf 90       	pop	r12
    1a3e:	08 95       	ret

00001a40 <_Z14drawButtonIconiib>:
        seed /= GAME_SEED_TOKEN_VAL;
    }
}

void drawButtonIcon(int16_t x, int16_t y, bool isB)
{
    1a40:	ef 92       	push	r14
    1a42:	0f 93       	push	r16
    arduboy.drawBitmap(x, y, imgButtons[isB],
    1a44:	27 e0       	ldi	r18, 0x07	; 7
    1a46:	42 9f       	mul	r20, r18
    1a48:	a0 01       	movw	r20, r0
    1a4a:	11 24       	eor	r1, r1
    1a4c:	42 55       	subi	r20, 0x52	; 82
    1a4e:	5d 4f       	sbci	r21, 0xFD	; 253
    1a50:	e0 90 04 01 	lds	r14, 0x0104	; 0x800104 <_ZN8Arduboy29textColorE>
    1a54:	07 e0       	ldi	r16, 0x07	; 7
    1a56:	27 e0       	ldi	r18, 0x07	; 7
    1a58:	0e 94 07 09 	call	0x120e	; 0x120e <_ZN12Arduboy2Base10drawBitmapEiiPKhhhh>
            IMG_BUTTONS_W, IMG_BUTTONS_H, arduboy.getTextColor());
}
    1a5c:	0f 91       	pop	r16
    1a5e:	ef 90       	pop	r14
    1a60:	08 95       	ret

00001a62 <_Z10handleDPadv>:
    dprintln(F("Clear EEPROM"));
}

void handleDPad(void)
{
    padX = padY = 0;
    1a62:	10 92 2f 03 	sts	0x032F, r1	; 0x80032f <padY>
    1a66:	10 92 2e 03 	sts	0x032E, r1	; 0x80032e <padX>
    1a6a:	80 91 e2 07 	lds	r24, 0x07E2	; 0x8007e2 <arduboy+0x5>
    1a6e:	98 2f       	mov	r25, r24
    1a70:	90 7f       	andi	r25, 0xF0	; 240
    if (arduboy.buttonPressed(LEFT_BUTTON | RIGHT_BUTTON | UP_BUTTON | DOWN_BUTTON)) {
    1a72:	41 f1       	breq	.+80     	; 0x1ac4 <_Z10handleDPadv+0x62>
        if (++padRepeatCount >= (PAD_REPEAT_DELAY + PAD_REPEAT_INTERVAL)) {
    1a74:	90 91 44 01 	lds	r25, 0x0144	; 0x800144 <padRepeatCount>
    1a78:	9f 5f       	subi	r25, 0xFF	; 255
    1a7a:	94 31       	cpi	r25, 0x14	; 20
    1a7c:	0c f5       	brge	.+66     	; 0x1ac0 <_Z10handleDPadv+0x5e>
            padRepeatCount = PAD_REPEAT_DELAY;
    1a7e:	90 93 44 01 	sts	0x0144, r25	; 0x800144 <padRepeatCount>
        }
        if (padRepeatCount == 1 || padRepeatCount == PAD_REPEAT_DELAY) {
    1a82:	90 91 44 01 	lds	r25, 0x0144	; 0x800144 <padRepeatCount>
    1a86:	91 30       	cpi	r25, 0x01	; 1
    1a88:	11 f0       	breq	.+4      	; 0x1a8e <_Z10handleDPadv+0x2c>
    1a8a:	9f 30       	cpi	r25, 0x0F	; 15
    1a8c:	e9 f4       	brne	.+58     	; 0x1ac8 <_Z10handleDPadv+0x66>
            if (arduboy.buttonPressed(LEFT_BUTTON))  padX--;
    1a8e:	85 ff       	sbrs	r24, 5
    1a90:	03 c0       	rjmp	.+6      	; 0x1a98 <_Z10handleDPadv+0x36>
    1a92:	9f ef       	ldi	r25, 0xFF	; 255
    1a94:	90 93 2e 03 	sts	0x032E, r25	; 0x80032e <padX>
            if (arduboy.buttonPressed(RIGHT_BUTTON)) padX++;
    1a98:	86 ff       	sbrs	r24, 6
    1a9a:	05 c0       	rjmp	.+10     	; 0x1aa6 <_Z10handleDPadv+0x44>
    1a9c:	90 91 2e 03 	lds	r25, 0x032E	; 0x80032e <padX>
    1aa0:	9f 5f       	subi	r25, 0xFF	; 255
    1aa2:	90 93 2e 03 	sts	0x032E, r25	; 0x80032e <padX>
            if (arduboy.buttonPressed(UP_BUTTON))    padY--;
    1aa6:	87 ff       	sbrs	r24, 7
    1aa8:	03 c0       	rjmp	.+6      	; 0x1ab0 <_Z10handleDPadv+0x4e>
    1aaa:	9f ef       	ldi	r25, 0xFF	; 255
    1aac:	90 93 2f 03 	sts	0x032F, r25	; 0x80032f <padY>
            if (arduboy.buttonPressed(DOWN_BUTTON))  padY++;
    1ab0:	84 ff       	sbrs	r24, 4
    1ab2:	0a c0       	rjmp	.+20     	; 0x1ac8 <_Z10handleDPadv+0x66>
    1ab4:	80 91 2f 03 	lds	r24, 0x032F	; 0x80032f <padY>
    1ab8:	8f 5f       	subi	r24, 0xFF	; 255
    1aba:	80 93 2f 03 	sts	0x032F, r24	; 0x80032f <padY>
    1abe:	08 95       	ret
void handleDPad(void)
{
    padX = padY = 0;
    if (arduboy.buttonPressed(LEFT_BUTTON | RIGHT_BUTTON | UP_BUTTON | DOWN_BUTTON)) {
        if (++padRepeatCount >= (PAD_REPEAT_DELAY + PAD_REPEAT_INTERVAL)) {
            padRepeatCount = PAD_REPEAT_DELAY;
    1ac0:	9f e0       	ldi	r25, 0x0F	; 15
    1ac2:	dd cf       	rjmp	.-70     	; 0x1a7e <_Z10handleDPadv+0x1c>
            if (arduboy.buttonPressed(RIGHT_BUTTON)) padX++;
            if (arduboy.buttonPressed(UP_BUTTON))    padY--;
            if (arduboy.buttonPressed(DOWN_BUTTON))  padY++;
        }
    } else {
        padRepeatCount = 0;
    1ac4:	10 92 44 01 	sts	0x0144, r1	; 0x800144 <padRepeatCount>
    }
}
    1ac8:	08 95       	ret

00001aca <_ZL12calcCheckSumv>:
static uint16_t calcCheckSum()
{
    uint16_t checkSum = (EEPROM_SIGNATURE & 0xFFFF) + (EEPROM_SIGNATURE >> 16) * 3;
    uint16_t *p = (uint16_t *) &record;
    for (int i = 0; i < sizeof(record) / 2; i++) {
        checkSum += *p++ * (i * 2 + 5);
    1aca:	ea e3       	ldi	r30, 0x3A	; 58
    1acc:	f3 e0       	ldi	r31, 0x03	; 3
    1ace:	20 81       	ld	r18, Z
    1ad0:	31 81       	ldd	r19, Z+1	; 0x01
    1ad2:	45 e0       	ldi	r20, 0x05	; 5
    1ad4:	42 9f       	mul	r20, r18
    1ad6:	c0 01       	movw	r24, r0
    1ad8:	43 9f       	mul	r20, r19
    1ada:	90 0d       	add	r25, r0
    1adc:	11 24       	eor	r1, r1
    1ade:	42 81       	ldd	r20, Z+2	; 0x02
    1ae0:	53 81       	ldd	r21, Z+3	; 0x03
    1ae2:	67 e0       	ldi	r22, 0x07	; 7
    1ae4:	64 9f       	mul	r22, r20
    1ae6:	90 01       	movw	r18, r0
    1ae8:	65 9f       	mul	r22, r21
    1aea:	30 0d       	add	r19, r0
    1aec:	11 24       	eor	r1, r1
    1aee:	82 0f       	add	r24, r18
    1af0:	93 1f       	adc	r25, r19
    1af2:	87 5c       	subi	r24, 0xC7	; 199
    1af4:	93 48       	sbci	r25, 0x83	; 131
    1af6:	44 81       	ldd	r20, Z+4	; 0x04
    1af8:	55 81       	ldd	r21, Z+5	; 0x05
    1afa:	69 e0       	ldi	r22, 0x09	; 9
    1afc:	64 9f       	mul	r22, r20
    1afe:	90 01       	movw	r18, r0
    1b00:	65 9f       	mul	r22, r21
    1b02:	30 0d       	add	r19, r0
    1b04:	11 24       	eor	r1, r1
    1b06:	28 0f       	add	r18, r24
    1b08:	39 1f       	adc	r19, r25
    1b0a:	46 81       	ldd	r20, Z+6	; 0x06
    1b0c:	57 81       	ldd	r21, Z+7	; 0x07
    1b0e:	6b e0       	ldi	r22, 0x0B	; 11
    1b10:	64 9f       	mul	r22, r20
    1b12:	c0 01       	movw	r24, r0
    1b14:	65 9f       	mul	r22, r21
    1b16:	90 0d       	add	r25, r0
    1b18:	11 24       	eor	r1, r1
    1b1a:	82 0f       	add	r24, r18
    1b1c:	93 1f       	adc	r25, r19
    1b1e:	40 85       	ldd	r20, Z+8	; 0x08
    1b20:	51 85       	ldd	r21, Z+9	; 0x09
    1b22:	6d e0       	ldi	r22, 0x0D	; 13
    1b24:	64 9f       	mul	r22, r20
    1b26:	90 01       	movw	r18, r0
    1b28:	65 9f       	mul	r22, r21
    1b2a:	30 0d       	add	r19, r0
    1b2c:	11 24       	eor	r1, r1
    }
    return checkSum;
}
    1b2e:	82 0f       	add	r24, r18
    1b30:	93 1f       	adc	r25, r19
    1b32:	08 95       	ret

00001b34 <_ZL10setupTimerhjh>:
        break;
    }
}

static void setupTimer(uint8_t timerNum, uint16_t frequency, uint8_t dutyCycle)
{
    1b34:	cf 92       	push	r12
    1b36:	df 92       	push	r13
    1b38:	ef 92       	push	r14
    1b3a:	ff 92       	push	r15
    1b3c:	0f 93       	push	r16
    1b3e:	1f 93       	push	r17
    1b40:	cf 93       	push	r28
    1b42:	df 93       	push	r29
    1b44:	08 2f       	mov	r16, r24
    1b46:	14 2f       	mov	r17, r20
    frequency *= dutyCycle;
    1b48:	46 9f       	mul	r20, r22
    1b4a:	e0 01       	movw	r28, r0
    1b4c:	47 9f       	mul	r20, r23
    1b4e:	d0 0d       	add	r29, r0
    1b50:	11 24       	eor	r1, r1
    unsigned long ocr = F_CPU / frequency - 1;
    1b52:	f1 2c       	mov	r15, r1
    1b54:	e1 2c       	mov	r14, r1
    1b56:	60 e0       	ldi	r22, 0x00	; 0
    1b58:	74 e2       	ldi	r23, 0x24	; 36
    1b5a:	84 ef       	ldi	r24, 0xF4	; 244
    1b5c:	90 e0       	ldi	r25, 0x00	; 0
    1b5e:	a7 01       	movw	r20, r14
    1b60:	9e 01       	movw	r18, r28
    1b62:	0e 94 41 2c 	call	0x5882	; 0x5882 <__divmodsi4>
    1b66:	21 50       	subi	r18, 0x01	; 1
    1b68:	31 09       	sbc	r19, r1
    1b6a:	41 09       	sbc	r20, r1
    1b6c:	51 09       	sbc	r21, r1
    byte prescalarBits = 0b001;
    1b6e:	91 e0       	ldi	r25, 0x01	; 1
    if (ocr > 0xFFFF) {
    1b70:	21 15       	cp	r18, r1
    1b72:	31 05       	cpc	r19, r1
    1b74:	81 e0       	ldi	r24, 0x01	; 1
    1b76:	48 07       	cpc	r20, r24
    1b78:	51 05       	cpc	r21, r1
    1b7a:	6c f0       	brlt	.+26     	; 0x1b96 <_ZL10setupTimerhjh+0x62>
        ocr = F_CPU / 64 / frequency - 1;
    1b7c:	60 e9       	ldi	r22, 0x90	; 144
    1b7e:	70 ed       	ldi	r23, 0xD0	; 208
    1b80:	83 e0       	ldi	r24, 0x03	; 3
    1b82:	90 e0       	ldi	r25, 0x00	; 0
    1b84:	a7 01       	movw	r20, r14
    1b86:	9e 01       	movw	r18, r28
    1b88:	0e 94 41 2c 	call	0x5882	; 0x5882 <__divmodsi4>
    1b8c:	21 50       	subi	r18, 0x01	; 1
    1b8e:	31 09       	sbc	r19, r1
    1b90:	41 09       	sbc	r20, r1
    1b92:	51 09       	sbc	r21, r1
        prescalarBits = 0b011;
    1b94:	93 e0       	ldi	r25, 0x03	; 3
    }

    // Set the OCR for the given timer, then turn on the interrupts
    switch (timerNum) {
    1b96:	01 30       	cpi	r16, 0x01	; 1
    1b98:	59 f0       	breq	.+22     	; 0x1bb0 <_ZL10setupTimerhjh+0x7c>
    1b9a:	03 30       	cpi	r16, 0x03	; 3
    1b9c:	f9 f0       	breq	.+62     	; 0x1bdc <_ZL10setupTimerhjh+0xa8>
        timer3DutyCycle = dutyCycle;
        timer3Frequency = frequency;
        startTimer(3, ocr, prescalarBits);
        break;
    }
}
    1b9e:	df 91       	pop	r29
    1ba0:	cf 91       	pop	r28
    1ba2:	1f 91       	pop	r17
    1ba4:	0f 91       	pop	r16
    1ba6:	ff 90       	pop	r15
    1ba8:	ef 90       	pop	r14
    1baa:	df 90       	pop	r13
    1bac:	cf 90       	pop	r12
    1bae:	08 95       	ret
    }

    // Set the OCR for the given timer, then turn on the interrupts
    switch (timerNum) {
    case 1:
        timer1DutyCycle = dutyCycle;
    1bb0:	10 93 42 01 	sts	0x0142, r17	; 0x800142 <_ZL15timer1DutyCycle>
        startTimer(1, ocr, prescalarBits);
    1bb4:	80 91 81 00 	lds	r24, 0x0081	; 0x800081 <__DATA_REGION_ORIGIN__+0x21>
    1bb8:	88 7f       	andi	r24, 0xF8	; 248
    1bba:	89 2b       	or	r24, r25
    1bbc:	80 93 81 00 	sts	0x0081, r24	; 0x800081 <__DATA_REGION_ORIGIN__+0x21>
    1bc0:	30 93 89 00 	sts	0x0089, r19	; 0x800089 <__DATA_REGION_ORIGIN__+0x29>
    1bc4:	20 93 88 00 	sts	0x0088, r18	; 0x800088 <__DATA_REGION_ORIGIN__+0x28>
    1bc8:	10 92 85 00 	sts	0x0085, r1	; 0x800085 <__DATA_REGION_ORIGIN__+0x25>
    1bcc:	10 92 84 00 	sts	0x0084, r1	; 0x800084 <__DATA_REGION_ORIGIN__+0x24>
    1bd0:	80 91 6f 00 	lds	r24, 0x006F	; 0x80006f <__DATA_REGION_ORIGIN__+0xf>
    1bd4:	82 60       	ori	r24, 0x02	; 2
    1bd6:	80 93 6f 00 	sts	0x006F, r24	; 0x80006f <__DATA_REGION_ORIGIN__+0xf>
    1bda:	e1 cf       	rjmp	.-62     	; 0x1b9e <_ZL10setupTimerhjh+0x6a>
        break;
    case 3:
        timer3DutyCycle = dutyCycle;
    1bdc:	10 93 43 01 	sts	0x0143, r17	; 0x800143 <_ZL15timer3DutyCycle>
        timer3Frequency = frequency;
    1be0:	d0 93 41 01 	sts	0x0141, r29	; 0x800141 <__data_end+0x1>
    1be4:	c0 93 40 01 	sts	0x0140, r28	; 0x800140 <__data_end>
        startTimer(3, ocr, prescalarBits);
    1be8:	80 91 91 00 	lds	r24, 0x0091	; 0x800091 <__DATA_REGION_ORIGIN__+0x31>
    1bec:	88 7f       	andi	r24, 0xF8	; 248
    1bee:	89 2b       	or	r24, r25
    1bf0:	80 93 91 00 	sts	0x0091, r24	; 0x800091 <__DATA_REGION_ORIGIN__+0x31>
    1bf4:	30 93 99 00 	sts	0x0099, r19	; 0x800099 <__DATA_REGION_ORIGIN__+0x39>
    1bf8:	20 93 98 00 	sts	0x0098, r18	; 0x800098 <__DATA_REGION_ORIGIN__+0x38>
    1bfc:	10 92 95 00 	sts	0x0095, r1	; 0x800095 <__DATA_REGION_ORIGIN__+0x35>
    1c00:	10 92 94 00 	sts	0x0094, r1	; 0x800094 <__DATA_REGION_ORIGIN__+0x34>
    1c04:	80 91 71 00 	lds	r24, 0x0071	; 0x800071 <__DATA_REGION_ORIGIN__+0x11>
    1c08:	82 60       	ori	r24, 0x02	; 2
    1c0a:	80 93 71 00 	sts	0x0071, r24	; 0x800071 <__DATA_REGION_ORIGIN__+0x11>
    1c0e:	c7 cf       	rjmp	.-114    	; 0x1b9e <_ZL10setupTimerhjh+0x6a>

00001c10 <_ZL8stopNoteh>:
    setupTimer(getTimerNum(chan), frequency, dutyCycle);
}

static void stopNote(uint8_t chan)
{
    switch (getTimerNum(chan)) {
    1c10:	81 11       	cpse	r24, r1
    1c12:	16 c0       	rjmp	.+44     	; 0x1c40 <_ZL8stopNoteh+0x30>
    case 1:
        if (!isTonePlaying) stopTimer(1);
        break;
    case 3:
        isWaitTimerPlaying = false;
    1c14:	10 92 86 03 	sts	0x0386, r1	; 0x800386 <_ZL18isWaitTimerPlaying>
        if (!isMuteScore) setLowTimerPin(3);
    1c18:	80 91 7c 03 	lds	r24, 0x037C	; 0x80037c <_ZL11isMuteScore>
    1c1c:	81 11       	cpse	r24, r1
    1c1e:	0a c0       	rjmp	.+20     	; 0x1c34 <_ZL8stopNoteh+0x24>
    1c20:	80 91 26 03 	lds	r24, 0x0326	; 0x800326 <_ZL13timer3PinMask>
    1c24:	e0 91 27 03 	lds	r30, 0x0327	; 0x800327 <_ZL13timer3PinPort>
    1c28:	f0 91 28 03 	lds	r31, 0x0328	; 0x800328 <_ZL13timer3PinPort+0x1>
    1c2c:	90 81       	ld	r25, Z
    1c2e:	80 95       	com	r24
    1c30:	89 23       	and	r24, r25
    1c32:	80 83       	st	Z, r24
        setupTimer(3, FREQUENCY_IDLE, DUTY_CYCLE_MIN);
    1c34:	42 e0       	ldi	r20, 0x02	; 2
    1c36:	64 ef       	ldi	r22, 0xF4	; 244
    1c38:	71 e0       	ldi	r23, 0x01	; 1
    1c3a:	83 e0       	ldi	r24, 0x03	; 3
    1c3c:	0c 94 9a 0d 	jmp	0x1b34	; 0x1b34 <_ZL10setupTimerhjh>

static void stopNote(uint8_t chan)
{
    switch (getTimerNum(chan)) {
    case 1:
        if (!isTonePlaying) stopTimer(1);
    1c40:	80 91 81 03 	lds	r24, 0x0381	; 0x800381 <_ZL13isTonePlaying>
    1c44:	81 11       	cpse	r24, r1
    1c46:	10 c0       	rjmp	.+32     	; 0x1c68 <_ZL8stopNoteh+0x58>
    1c48:	80 91 6f 00 	lds	r24, 0x006F	; 0x80006f <__DATA_REGION_ORIGIN__+0xf>
    1c4c:	8d 7f       	andi	r24, 0xFD	; 253
    1c4e:	80 93 6f 00 	sts	0x006F, r24	; 0x80006f <__DATA_REGION_ORIGIN__+0xf>
    1c52:	80 91 23 03 	lds	r24, 0x0323	; 0x800323 <_ZL13timer1PinMask>
    1c56:	e0 91 24 03 	lds	r30, 0x0324	; 0x800324 <_ZL13timer1PinPort>
    1c5a:	f0 91 25 03 	lds	r31, 0x0325	; 0x800325 <_ZL13timer1PinPort+0x1>
    1c5e:	90 81       	ld	r25, Z
    1c60:	80 95       	com	r24
    1c62:	89 23       	and	r24, r25
    1c64:	80 83       	st	Z, r24
    1c66:	08 95       	ret
        isWaitTimerPlaying = false;
        if (!isMuteScore) setLowTimerPin(3);
        setupTimer(3, FREQUENCY_IDLE, DUTY_CYCLE_MIN);
        break;
    }
}
    1c68:	08 95       	ret

00001c6a <_ZN10MyArduboy28playToneEjjhh.constprop.28>:

/*---------------------------------------------------------------------------*/
/*                                 Play sounds                               */
/*---------------------------------------------------------------------------*/

void MyArduboy2::playTone(uint16_t frequency, uint16_t duration,
    1c6a:	ff 92       	push	r15
    1c6c:	0f 93       	push	r16
    1c6e:	1f 93       	push	r17
    1c70:	cf 93       	push	r28
    1c72:	df 93       	push	r29
    1c74:	ec 01       	movw	r28, r24
        uint8_t priority = 0xFF, uint8_t dutyCycle = DUTY_CYCLE_MIN)
{
    if (numChans == 0) return;
    1c76:	90 91 8c 03 	lds	r25, 0x038C	; 0x80038c <_ZL8numChans>
    1c7a:	99 23       	and	r25, r25
    1c7c:	09 f4       	brne	.+2      	; 0x1c80 <_ZN10MyArduboy28playToneEjjhh.constprop.28+0x16>
    1c7e:	64 c0       	rjmp	.+200    	; 0x1d48 <_ZN10MyArduboy28playToneEjjhh.constprop.28+0xde>
    1c80:	8b 01       	movw	r16, r22
    if (numChans == 1 && isScorePlaying) {
    1c82:	91 30       	cpi	r25, 0x01	; 1
    1c84:	71 f4       	brne	.+28     	; 0x1ca2 <_ZN10MyArduboy28playToneEjjhh.constprop.28+0x38>
    1c86:	80 91 8b 03 	lds	r24, 0x038B	; 0x80038b <_ZL14isScorePlaying>
    1c8a:	88 23       	and	r24, r24
    1c8c:	51 f0       	breq	.+20     	; 0x1ca2 <_ZN10MyArduboy28playToneEjjhh.constprop.28+0x38>
        if (priority > audioPriority) return;
    1c8e:	80 91 8a 03 	lds	r24, 0x038A	; 0x80038a <_ZL13audioPriority>
    1c92:	8f 3f       	cpi	r24, 0xFF	; 255
    1c94:	09 f0       	breq	.+2      	; 0x1c98 <_ZN10MyArduboy28playToneEjjhh.constprop.28+0x2e>
    1c96:	58 c0       	rjmp	.+176    	; 0x1d48 <_ZN10MyArduboy28playToneEjjhh.constprop.28+0xde>
}

void MyArduboy2::stopScore(void)
{
    for (uint8_t chan = 0; chan < numChans; chan++) {
        stopNote(chan);
    1c98:	80 e0       	ldi	r24, 0x00	; 0
    1c9a:	0e 94 08 0e 	call	0x1c10	; 0x1c10 <_ZL8stopNoteh>
    }
    isScorePlaying = false;
    1c9e:	10 92 8b 03 	sts	0x038B, r1	; 0x80038b <_ZL14isScorePlaying>
    if (numChans == 1 && isScorePlaying) {
        if (priority > audioPriority) return;
        stopScore();
    }

    isAllMuted = !outputEnabled();
    1ca2:	e0 91 88 03 	lds	r30, 0x0388	; 0x800388 <_ZL13outputEnabled>
    1ca6:	f0 91 89 03 	lds	r31, 0x0389	; 0x800389 <_ZL13outputEnabled+0x1>
    1caa:	09 95       	icall
    1cac:	ff 24       	eor	r15, r15
    1cae:	f3 94       	inc	r15
    1cb0:	8f 25       	eor	r24, r15
    1cb2:	80 93 87 03 	sts	0x0387, r24	; 0x800387 <_ZL10isAllMuted>
    frequency = min(frequency, FREQUENCY_MAX);
    dutyCycle = constrain(dutyCycle, DUTY_CYCLE_MIN, DUTY_CYCLE_MAX);
    unsigned long toggle_count = ((unsigned long)duration * frequency * dutyCycle + 500) / 1000;
    1cb6:	30 e0       	ldi	r19, 0x00	; 0
    1cb8:	20 e0       	ldi	r18, 0x00	; 0
    1cba:	a9 01       	movw	r20, r18
    1cbc:	98 01       	movw	r18, r16
    1cbe:	22 0f       	add	r18, r18
    1cc0:	33 1f       	adc	r19, r19
    1cc2:	44 1f       	adc	r20, r20
    1cc4:	55 1f       	adc	r21, r21
    1cc6:	de 01       	movw	r26, r28
    1cc8:	0e 94 60 2c 	call	0x58c0	; 0x58c0 <__muluhisi3>
    1ccc:	6c 50       	subi	r22, 0x0C	; 12
    1cce:	7e 4f       	sbci	r23, 0xFE	; 254
    1cd0:	8f 4f       	sbci	r24, 0xFF	; 255
    1cd2:	9f 4f       	sbci	r25, 0xFF	; 255
    1cd4:	28 ee       	ldi	r18, 0xE8	; 232
    1cd6:	33 e0       	ldi	r19, 0x03	; 3
    1cd8:	40 e0       	ldi	r20, 0x00	; 0
    1cda:	50 e0       	ldi	r21, 0x00	; 0
    1cdc:	0e 94 73 2c 	call	0x58e6	; 0x58e6 <__udivmodsi4>
    if (toggle_count == 0) toggle_count = 1;

    uint8_t chan = numChans - 1;
    if (chan == 0) {
    1ce0:	80 91 8c 03 	lds	r24, 0x038C	; 0x80038c <_ZL8numChans>
    1ce4:	81 30       	cpi	r24, 0x01	; 1
    1ce6:	a1 f4       	brne	.+40     	; 0x1d10 <_ZN10MyArduboy28playToneEjjhh.constprop.28+0xa6>
        isWaitTimerPlaying = true;
    1ce8:	80 93 86 03 	sts	0x0386, r24	; 0x800386 <_ZL18isWaitTimerPlaying>
        timer3ToggleCount = toggle_count;
    1cec:	20 93 82 03 	sts	0x0382, r18	; 0x800382 <_ZL17timer3ToggleCount>
    1cf0:	30 93 83 03 	sts	0x0383, r19	; 0x800383 <_ZL17timer3ToggleCount+0x1>
    1cf4:	40 93 84 03 	sts	0x0384, r20	; 0x800384 <_ZL17timer3ToggleCount+0x2>
    1cf8:	50 93 85 03 	sts	0x0385, r21	; 0x800385 <_ZL17timer3ToggleCount+0x3>
            isMuteScore = (priority <= audioPriority);
        } else {
            audioPriority = priority;
        }
    }
    setupTimer(getTimerNum(chan), frequency, dutyCycle);
    1cfc:	83 e0       	ldi	r24, 0x03	; 3
    1cfe:	42 e0       	ldi	r20, 0x02	; 2
    1d00:	be 01       	movw	r22, r28
}
    1d02:	df 91       	pop	r29
    1d04:	cf 91       	pop	r28
    1d06:	1f 91       	pop	r17
    1d08:	0f 91       	pop	r16
    1d0a:	ff 90       	pop	r15
            isMuteScore = (priority <= audioPriority);
        } else {
            audioPriority = priority;
        }
    }
    setupTimer(getTimerNum(chan), frequency, dutyCycle);
    1d0c:	0c 94 9a 0d 	jmp	0x1b34	; 0x1b34 <_ZL10setupTimerhjh>
    uint8_t chan = numChans - 1;
    if (chan == 0) {
        isWaitTimerPlaying = true;
        timer3ToggleCount = toggle_count;
    } else {
        isTonePlaying = true;
    1d10:	f0 92 81 03 	sts	0x0381, r15	; 0x800381 <_ZL13isTonePlaying>
        timer1ToggleCount = toggle_count;
    1d14:	20 93 7d 03 	sts	0x037D, r18	; 0x80037d <_ZL17timer1ToggleCount>
    1d18:	30 93 7e 03 	sts	0x037E, r19	; 0x80037e <_ZL17timer1ToggleCount+0x1>
    1d1c:	40 93 7f 03 	sts	0x037F, r20	; 0x80037f <_ZL17timer1ToggleCount+0x2>
    1d20:	50 93 80 03 	sts	0x0380, r21	; 0x800380 <_ZL17timer1ToggleCount+0x3>
        if (isScorePlaying) {
    1d24:	80 91 8b 03 	lds	r24, 0x038B	; 0x80038b <_ZL14isScorePlaying>
    1d28:	88 23       	and	r24, r24
    1d2a:	51 f0       	breq	.+20     	; 0x1d40 <_ZN10MyArduboy28playToneEjjhh.constprop.28+0xd6>
            isMuteScore = (priority <= audioPriority);
    1d2c:	81 e0       	ldi	r24, 0x01	; 1
    1d2e:	90 91 8a 03 	lds	r25, 0x038A	; 0x80038a <_ZL13audioPriority>
    1d32:	9f 3f       	cpi	r25, 0xFF	; 255
    1d34:	09 f0       	breq	.+2      	; 0x1d38 <_ZN10MyArduboy28playToneEjjhh.constprop.28+0xce>
    1d36:	80 e0       	ldi	r24, 0x00	; 0
    1d38:	80 93 7c 03 	sts	0x037C, r24	; 0x80037c <_ZL11isMuteScore>
        } else {
            audioPriority = priority;
        }
    }
    setupTimer(getTimerNum(chan), frequency, dutyCycle);
    1d3c:	81 e0       	ldi	r24, 0x01	; 1
    1d3e:	df cf       	rjmp	.-66     	; 0x1cfe <_ZN10MyArduboy28playToneEjjhh.constprop.28+0x94>
        isTonePlaying = true;
        timer1ToggleCount = toggle_count;
        if (isScorePlaying) {
            isMuteScore = (priority <= audioPriority);
        } else {
            audioPriority = priority;
    1d40:	8f ef       	ldi	r24, 0xFF	; 255
    1d42:	80 93 8a 03 	sts	0x038A, r24	; 0x80038a <_ZL13audioPriority>
    1d46:	fa cf       	rjmp	.-12     	; 0x1d3c <_ZN10MyArduboy28playToneEjjhh.constprop.28+0xd2>
        }
    }
    setupTimer(getTimerNum(chan), frequency, dutyCycle);
}
    1d48:	df 91       	pop	r29
    1d4a:	cf 91       	pop	r28
    1d4c:	1f 91       	pop	r17
    1d4e:	0f 91       	pop	r16
    1d50:	ff 90       	pop	r15
    1d52:	08 95       	ret

00001d54 <_Z14playSoundClickv>:
    arduboy.playTone(440, 10);
}

void playSoundClick(void)
{
    arduboy.playTone(587, 20);
    1d54:	64 e1       	ldi	r22, 0x14	; 20
    1d56:	70 e0       	ldi	r23, 0x00	; 0
    1d58:	8b e4       	ldi	r24, 0x4B	; 75
    1d5a:	92 e0       	ldi	r25, 0x02	; 2
    1d5c:	0c 94 35 0e 	jmp	0x1c6a	; 0x1c6a <_ZN10MyArduboy28playToneEjjhh.constprop.28>

00001d60 <_ZL16onMenuToggleItemv>:
    isSettingChenged = true;
}

static void onMenuToggleItem(void)
{
    playSoundClick();
    1d60:	0e 94 aa 0e 	call	0x1d54	; 0x1d54 <_Z14playSoundClickv>
    bitToggle(*((uint8_t *)&record + 3), getMenuItemPos() + 3); // Trick!!
    1d64:	ea e3       	ldi	r30, 0x3A	; 58
    1d66:	f3 e0       	ldi	r31, 0x03	; 3
    1d68:	20 91 39 03 	lds	r18, 0x0339	; 0x800339 <_ZL11menuItemPos>
    1d6c:	2d 5f       	subi	r18, 0xFD	; 253
    1d6e:	81 e0       	ldi	r24, 0x01	; 1
    1d70:	90 e0       	ldi	r25, 0x00	; 0
    1d72:	a0 e0       	ldi	r26, 0x00	; 0
    1d74:	b0 e0       	ldi	r27, 0x00	; 0
    1d76:	04 c0       	rjmp	.+8      	; 0x1d80 <_ZL16onMenuToggleItemv+0x20>
    1d78:	88 0f       	add	r24, r24
    1d7a:	99 1f       	adc	r25, r25
    1d7c:	aa 1f       	adc	r26, r26
    1d7e:	bb 1f       	adc	r27, r27
    1d80:	2a 95       	dec	r18
    1d82:	d2 f7       	brpl	.-12     	; 0x1d78 <_ZL16onMenuToggleItemv+0x18>
    1d84:	23 81       	ldd	r18, Z+3	; 0x03
    1d86:	82 27       	eor	r24, r18
    1d88:	83 83       	std	Z+3, r24	; 0x03
    isSettingChenged = true;
    1d8a:	81 e0       	ldi	r24, 0x01	; 1
    1d8c:	80 93 4a 03 	sts	0x034A, r24	; 0x80034a <_ZL16isSettingChenged>
}
    1d90:	08 95       	ret

00001d92 <_ZL16onMenuDifficultyv>:
    dprintln(F("Show credit"));
}

static void onMenuDifficulty(void)
{
    playSoundClick();
    1d92:	0e 94 aa 0e 	call	0x1d54	; 0x1d54 <_Z14playSoundClickv>
    record.gameRank = record.gameRank % GAME_RANK_MAX + 1;
    1d96:	ed e3       	ldi	r30, 0x3D	; 61
    1d98:	f3 e0       	ldi	r31, 0x03	; 3
    1d9a:	20 81       	ld	r18, Z
    1d9c:	82 2f       	mov	r24, r18
    1d9e:	8f 70       	andi	r24, 0x0F	; 15
    1da0:	90 e0       	ldi	r25, 0x00	; 0
    1da2:	6a e0       	ldi	r22, 0x0A	; 10
    1da4:	70 e0       	ldi	r23, 0x00	; 0
    1da6:	0e 94 d4 2f 	call	0x5fa8	; 0x5fa8 <__divmodhi4>
    1daa:	8f 5f       	subi	r24, 0xFF	; 255
    1dac:	8f 70       	andi	r24, 0x0F	; 15
    1dae:	20 7f       	andi	r18, 0xF0	; 240
    1db0:	28 2b       	or	r18, r24
    1db2:	20 83       	st	Z, r18
    isSettingChenged = true;
    1db4:	81 e0       	ldi	r24, 0x01	; 1
    1db6:	80 93 4a 03 	sts	0x034A, r24	; 0x80034a <_ZL16isSettingChenged>
}
    1dba:	08 95       	ret

00001dbc <_ZL8onCreditv>:
    dprintln(F("Settings"));
}

static void onCredit(void)
{
    playSoundClick();
    1dbc:	0e 94 aa 0e 	call	0x1d54	; 0x1d54 <_Z14playSoundClickv>
    state = STATE_CREDIT;
    1dc0:	83 e0       	ldi	r24, 0x03	; 3
    1dc2:	80 93 38 03 	sts	0x0338, r24	; 0x800338 <_ZL5state.lto_priv.53>
    isInvalid = true;
    1dc6:	81 e0       	ldi	r24, 0x01	; 1
    1dc8:	80 93 4b 03 	sts	0x034B, r24	; 0x80034b <isInvalid>
    dprintln(F("Show credit"));
}
    1dcc:	08 95       	ret

00001dce <_ZL10onSettingsv>:
    }
}

static void onSettings(void)
{
    playSoundClick();
    1dce:	0e 94 aa 0e 	call	0x1d54	; 0x1d54 <_Z14playSoundClickv>

/*---------------------------------------------------------------------------*/

void clearMenuItems(void)
{
    menuItemCount = 0;
    1dd2:	10 92 30 03 	sts	0x0330, r1	; 0x800330 <_ZL13menuItemCount>
    clearMenuItems();
    addMenuItem(F("DIFFICULTY"), onMenuDifficulty);
    1dd6:	69 ec       	ldi	r22, 0xC9	; 201
    1dd8:	7e e0       	ldi	r23, 0x0E	; 14
    1dda:	85 ee       	ldi	r24, 0xE5	; 229
    1ddc:	97 e0       	ldi	r25, 0x07	; 7
    1dde:	0e 94 95 0a 	call	0x152a	; 0x152a <_Z11addMenuItemPK19__FlashStringHelperPFvvE>
    addMenuItem(F("PATTERN"), onMenuToggleItem);
    1de2:	60 eb       	ldi	r22, 0xB0	; 176
    1de4:	7e e0       	ldi	r23, 0x0E	; 14
    1de6:	8d ed       	ldi	r24, 0xDD	; 221
    1de8:	97 e0       	ldi	r25, 0x07	; 7
    1dea:	0e 94 95 0a 	call	0x152a	; 0x152a <_Z11addMenuItemPK19__FlashStringHelperPFvvE>
    addMenuItem(F("LED BLINK"), onMenuToggleItem);
    1dee:	60 eb       	ldi	r22, 0xB0	; 176
    1df0:	7e e0       	ldi	r23, 0x0E	; 14
    1df2:	83 ed       	ldi	r24, 0xD3	; 211
    1df4:	97 e0       	ldi	r25, 0x07	; 7
    1df6:	0e 94 95 0a 	call	0x152a	; 0x152a <_Z11addMenuItemPK19__FlashStringHelperPFvvE>
    addMenuItem(F("DETECT EDGE"), onMenuToggleItem);
    1dfa:	60 eb       	ldi	r22, 0xB0	; 176
    1dfc:	7e e0       	ldi	r23, 0x0E	; 14
    1dfe:	87 ec       	ldi	r24, 0xC7	; 199
    1e00:	97 e0       	ldi	r25, 0x07	; 7
    1e02:	0e 94 95 0a 	call	0x152a	; 0x152a <_Z11addMenuItemPK19__FlashStringHelperPFvvE>
    addMenuItem(F("EXIT"), onTop);
    1e06:	65 e2       	ldi	r22, 0x25	; 37
    1e08:	7f e0       	ldi	r23, 0x0F	; 15
    1e0a:	82 ec       	ldi	r24, 0xC2	; 194
    1e0c:	97 e0       	ldi	r25, 0x07	; 7
    1e0e:	0e 94 95 0a 	call	0x152a	; 0x152a <_Z11addMenuItemPK19__FlashStringHelperPFvvE>
    isControlSound = s;
}

void setMenuItemPos(int8_t pos)
{
    menuItemPos = pos;
    1e12:	10 92 39 03 	sts	0x0339, r1	; 0x800339 <_ZL11menuItemPos>
    isInvalidMenu = true;
    1e16:	81 e0       	ldi	r24, 0x01	; 1
    1e18:	80 93 31 03 	sts	0x0331, r24	; 0x800331 <_ZL13isInvalidMenu>
    return menuItemCount;
}

void setMenuCoords(int8_t x, int8_t y, int8_t w, int8_t h, bool f, bool s)
{
    menuX = x;
    1e1c:	92 e0       	ldi	r25, 0x02	; 2
    1e1e:	90 93 37 03 	sts	0x0337, r25	; 0x800337 <_ZL5menuX>
    menuY = y;
    1e22:	2c e0       	ldi	r18, 0x0C	; 12
    1e24:	20 93 36 03 	sts	0x0336, r18	; 0x800336 <_ZL5menuY>
    menuW = w;
    1e28:	2c e7       	ldi	r18, 0x7C	; 124
    1e2a:	20 93 35 03 	sts	0x0335, r18	; 0x800335 <_ZL5menuW>
    menuH = h;
    1e2e:	2e e1       	ldi	r18, 0x1E	; 30
    1e30:	20 93 34 03 	sts	0x0334, r18	; 0x800334 <_ZL5menuH>
    isFramed = f;
    1e34:	10 92 33 03 	sts	0x0333, r1	; 0x800333 <_ZL8isFramed>
    isControlSound = s;
    1e38:	10 92 32 03 	sts	0x0332, r1	; 0x800332 <_ZL14isControlSound>
    setMenuItemPos(0);
    setMenuCoords(2, 12, 124, 30, false, false);
    state = STATE_SETTINGS;
    1e3c:	90 93 38 03 	sts	0x0338, r25	; 0x800338 <_ZL5state.lto_priv.53>
    isInvalid = true;
    1e40:	80 93 4b 03 	sts	0x034B, r24	; 0x80034b <isInvalid>
    isSettingChenged = true;
    1e44:	80 93 4a 03 	sts	0x034A, r24	; 0x80034a <_ZL16isSettingChenged>
    dprintln(F("Settings"));
}
    1e48:	08 95       	ret

00001e4a <_ZL5onTopv>:
/*                               Menu Handlers                               */
/*---------------------------------------------------------------------------*/

static void onTop(void)
{
    if (state == STATE_SETTINGS) playSoundClick();
    1e4a:	80 91 38 03 	lds	r24, 0x0338	; 0x800338 <_ZL5state.lto_priv.53>
    1e4e:	82 30       	cpi	r24, 0x02	; 2
    1e50:	11 f4       	brne	.+4      	; 0x1e56 <_ZL5onTopv+0xc>
    1e52:	0e 94 aa 0e 	call	0x1d54	; 0x1d54 <_Z14playSoundClickv>

/*---------------------------------------------------------------------------*/

void clearMenuItems(void)
{
    menuItemCount = 0;
    1e56:	10 92 30 03 	sts	0x0330, r1	; 0x800330 <_ZL13menuItemCount>
    clearMenuItems();
    if (record.playCount > 0) {
    1e5a:	80 91 42 03 	lds	r24, 0x0342	; 0x800342 <record+0x8>
    1e5e:	90 91 43 03 	lds	r25, 0x0343	; 0x800343 <record+0x9>
    1e62:	89 2b       	or	r24, r25
    1e64:	61 f0       	breq	.+24     	; 0x1e7e <_ZL5onTopv+0x34>
        addMenuItem(F("RETRY"), onStart);
    1e66:	69 e7       	ldi	r22, 0x79	; 121
    1e68:	7a e0       	ldi	r23, 0x0A	; 10
    1e6a:	8c eb       	ldi	r24, 0xBC	; 188
    1e6c:	97 e0       	ldi	r25, 0x07	; 7
    1e6e:	0e 94 95 0a 	call	0x152a	; 0x152a <_Z11addMenuItemPK19__FlashStringHelperPFvvE>
        addMenuItem(NULL, NULL);
    1e72:	70 e0       	ldi	r23, 0x00	; 0
    1e74:	60 e0       	ldi	r22, 0x00	; 0
    1e76:	90 e0       	ldi	r25, 0x00	; 0
    1e78:	80 e0       	ldi	r24, 0x00	; 0
    1e7a:	0e 94 95 0a 	call	0x152a	; 0x152a <_Z11addMenuItemPK19__FlashStringHelperPFvvE>
    }
    addMenuItem(F("NEW BATTLE"), onNewBattle);
    1e7e:	6f e0       	ldi	r22, 0x0F	; 15
    1e80:	78 e1       	ldi	r23, 0x18	; 24
    1e82:	81 eb       	ldi	r24, 0xB1	; 177
    1e84:	97 e0       	ldi	r25, 0x07	; 7
    1e86:	0e 94 95 0a 	call	0x152a	; 0x152a <_Z11addMenuItemPK19__FlashStringHelperPFvvE>
    addMenuItem(F("SETTINGS"), onSettings);
    1e8a:	67 ee       	ldi	r22, 0xE7	; 231
    1e8c:	7e e0       	ldi	r23, 0x0E	; 14
    1e8e:	88 ea       	ldi	r24, 0xA8	; 168
    1e90:	97 e0       	ldi	r25, 0x07	; 7
    1e92:	0e 94 95 0a 	call	0x152a	; 0x152a <_Z11addMenuItemPK19__FlashStringHelperPFvvE>
    addMenuItem(F("CREDIT"), onCredit);
    1e96:	6e ed       	ldi	r22, 0xDE	; 222
    1e98:	7e e0       	ldi	r23, 0x0E	; 14
    1e9a:	81 ea       	ldi	r24, 0xA1	; 161
    1e9c:	97 e0       	ldi	r25, 0x07	; 7
    1e9e:	0e 94 95 0a 	call	0x152a	; 0x152a <_Z11addMenuItemPK19__FlashStringHelperPFvvE>
    setMenuItemPos((state == STATE_SETTINGS) ? getMenuItemCount() - 2 : record.isCleared * 2);
    1ea2:	80 91 38 03 	lds	r24, 0x0338	; 0x800338 <_ZL5state.lto_priv.53>
    1ea6:	82 30       	cpi	r24, 0x02	; 2
    1ea8:	e9 f4       	brne	.+58     	; 0x1ee4 <_ZL5onTopv+0x9a>
    1eaa:	80 91 30 03 	lds	r24, 0x0330	; 0x800330 <_ZL13menuItemCount>
    1eae:	82 50       	subi	r24, 0x02	; 2
    isControlSound = s;
}

void setMenuItemPos(int8_t pos)
{
    menuItemPos = pos;
    1eb0:	80 93 39 03 	sts	0x0339, r24	; 0x800339 <_ZL11menuItemPos>
    isInvalidMenu = true;
    1eb4:	81 e0       	ldi	r24, 0x01	; 1
    1eb6:	80 93 31 03 	sts	0x0331, r24	; 0x800331 <_ZL13isInvalidMenu>
    return menuItemCount;
}

void setMenuCoords(int8_t x, int8_t y, int8_t w, int8_t h, bool f, bool s)
{
    menuX = x;
    1eba:	9c e2       	ldi	r25, 0x2C	; 44
    1ebc:	90 93 37 03 	sts	0x0337, r25	; 0x800337 <_ZL5menuX>
    menuY = y;
    1ec0:	96 e2       	ldi	r25, 0x26	; 38
    1ec2:	90 93 36 03 	sts	0x0336, r25	; 0x800336 <_ZL5menuY>
    menuW = w;
    1ec6:	94 e5       	ldi	r25, 0x54	; 84
    1ec8:	90 93 35 03 	sts	0x0335, r25	; 0x800335 <_ZL5menuW>
    menuH = h;
    1ecc:	9a e1       	ldi	r25, 0x1A	; 26
    1ece:	90 93 34 03 	sts	0x0334, r25	; 0x800334 <_ZL5menuH>
    isFramed = f;
    1ed2:	10 92 33 03 	sts	0x0333, r1	; 0x800333 <_ZL8isFramed>
    isControlSound = s;
    1ed6:	80 93 32 03 	sts	0x0332, r24	; 0x800332 <_ZL14isControlSound>
    setMenuCoords(44, 38, 84, 26, false, true);
    state = STATE_TOP;
    1eda:	80 93 38 03 	sts	0x0338, r24	; 0x800338 <_ZL5state.lto_priv.53>
    isInvalid = true;
    1ede:	80 93 4b 03 	sts	0x034B, r24	; 0x80034b <isInvalid>
    dprintln(F("Title screen"));
}
    1ee2:	08 95       	ret
        addMenuItem(NULL, NULL);
    }
    addMenuItem(F("NEW BATTLE"), onNewBattle);
    addMenuItem(F("SETTINGS"), onSettings);
    addMenuItem(F("CREDIT"), onCredit);
    setMenuItemPos((state == STATE_SETTINGS) ? getMenuItemCount() - 2 : record.isCleared * 2);
    1ee4:	80 91 3d 03 	lds	r24, 0x033D	; 0x80033d <record+0x3>
    1ee8:	87 fb       	bst	r24, 7
    1eea:	88 27       	eor	r24, r24
    1eec:	80 f9       	bld	r24, 0
    1eee:	88 0f       	add	r24, r24
    1ef0:	df cf       	rjmp	.-66     	; 0x1eb0 <_ZL5onTopv+0x66>

00001ef2 <_ZL15handleAnyButtonv>:
    return ret;
}

static void handleAnyButton(void)
{
    if (arduboy.buttonDown(A_BUTTON | B_BUTTON)) {
    1ef2:	8c e0       	ldi	r24, 0x0C	; 12
    1ef4:	0e 94 f5 05 	call	0xbea	; 0xbea <_ZN10MyArduboy210buttonDownEh.constprop.43>
    1ef8:	88 23       	and	r24, r24
    1efa:	39 f0       	breq	.+14     	; 0x1f0a <_ZL15handleAnyButtonv+0x18>
        playSoundClick();
    1efc:	0e 94 aa 0e 	call	0x1d54	; 0x1d54 <_Z14playSoundClickv>
        state = STATE_TOP;
    1f00:	81 e0       	ldi	r24, 0x01	; 1
    1f02:	80 93 38 03 	sts	0x0338, r24	; 0x800338 <_ZL5state.lto_priv.53>
        isInvalid = true;
    1f06:	80 93 4b 03 	sts	0x034B, r24	; 0x80034b <isInvalid>
    }
}
    1f0a:	08 95       	ret

00001f0c <_ZL10onContinuev>:
/*                               Menu Handlers                               */
/*---------------------------------------------------------------------------*/

static void onContinue(void)
{
    playSoundClick();
    1f0c:	0e 94 aa 0e 	call	0x1d54	; 0x1d54 <_Z14playSoundClickv>
    isMenu = false;
    1f10:	10 92 04 03 	sts	0x0304, r1	; 0x800304 <_ZL6isMenu>
    isInvalid = true;
    1f14:	81 e0       	ldi	r24, 0x01	; 1
    1f16:	80 93 4b 03 	sts	0x034B, r24	; 0x80034b <isInvalid>
    dprintln(F("Menu: continue"));
}
    1f1a:	08 95       	ret

00001f1c <_ZL13onConfirmQuitv>:
    dprintln(F("Menu: retry"));
    initGame();
}

static void onConfirmQuit(void)
{
    1f1c:	cf 93       	push	r28
    1f1e:	df 93       	push	r29
    int16_t y = getMenuItemPos() * 6 + 38;
    1f20:	c0 91 39 03 	lds	r28, 0x0339	; 0x800339 <_ZL11menuItemPos>
    1f24:	86 e0       	ldi	r24, 0x06	; 6
    1f26:	c8 02       	muls	r28, r24
    1f28:	e0 01       	movw	r28, r0
    1f2a:	11 24       	eor	r1, r1
    1f2c:	a6 96       	adiw	r28, 0x26	; 38
    dprintln(menuItemPos);
}

void setConfirmMenu(int8_t y, void (*funcOk)(), void (*funcCancel)())
{
    playSoundClick();
    1f2e:	0e 94 aa 0e 	call	0x1d54	; 0x1d54 <_Z14playSoundClickv>

/*---------------------------------------------------------------------------*/

void clearMenuItems(void)
{
    menuItemCount = 0;
    1f32:	10 92 30 03 	sts	0x0330, r1	; 0x800330 <_ZL13menuItemCount>

void setConfirmMenu(int8_t y, void (*funcOk)(), void (*funcCancel)())
{
    playSoundClick();
    clearMenuItems();
    addMenuItem(F("OK"), funcOk);
    1f36:	63 ee       	ldi	r22, 0xE3	; 227
    1f38:	73 e2       	ldi	r23, 0x23	; 35
    1f3a:	8a eb       	ldi	r24, 0xBA	; 186
    1f3c:	95 e0       	ldi	r25, 0x05	; 5
    1f3e:	0e 94 95 0a 	call	0x152a	; 0x152a <_Z11addMenuItemPK19__FlashStringHelperPFvvE>
    addMenuItem(F("CANCEL"), funcCancel);
    1f42:	66 e8       	ldi	r22, 0x86	; 134
    1f44:	7f e0       	ldi	r23, 0x0F	; 15
    1f46:	83 eb       	ldi	r24, 0xB3	; 179
    1f48:	95 e0       	ldi	r25, 0x05	; 5
    1f4a:	0e 94 95 0a 	call	0x152a	; 0x152a <_Z11addMenuItemPK19__FlashStringHelperPFvvE>
    return menuItemCount;
}

void setMenuCoords(int8_t x, int8_t y, int8_t w, int8_t h, bool f, bool s)
{
    menuX = x;
    1f4e:	88 e2       	ldi	r24, 0x28	; 40
    1f50:	80 93 37 03 	sts	0x0337, r24	; 0x800337 <_ZL5menuX>
    menuY = y;
    1f54:	c0 93 36 03 	sts	0x0336, r28	; 0x800336 <_ZL5menuY>
    menuW = w;
    1f58:	8f e2       	ldi	r24, 0x2F	; 47
    1f5a:	80 93 35 03 	sts	0x0335, r24	; 0x800335 <_ZL5menuW>
    menuH = h;
    1f5e:	8b e0       	ldi	r24, 0x0B	; 11
    1f60:	80 93 34 03 	sts	0x0334, r24	; 0x800334 <_ZL5menuH>
    isFramed = f;
    1f64:	81 e0       	ldi	r24, 0x01	; 1
    1f66:	80 93 33 03 	sts	0x0333, r24	; 0x800333 <_ZL8isFramed>
    isControlSound = s;
    1f6a:	80 93 32 03 	sts	0x0332, r24	; 0x800332 <_ZL14isControlSound>
}

void setMenuItemPos(int8_t pos)
{
    menuItemPos = pos;
    1f6e:	80 93 39 03 	sts	0x0339, r24	; 0x800339 <_ZL11menuItemPos>
    isInvalidMenu = true;
    1f72:	80 93 31 03 	sts	0x0331, r24	; 0x800331 <_ZL13isInvalidMenu>
    setConfirmMenu(y, onQuit, onContinue);
    dprintln(F("Menu: confirm quit"));
}
    1f76:	df 91       	pop	r29
    1f78:	cf 91       	pop	r28
    1f7a:	08 95       	ret

00001f7c <_ZL12openGameMenuv>:
    }
    isInvalid = true;
}

static void openGameMenu(void)
{
    1f7c:	cf 93       	push	r28
    playSoundClick();
    1f7e:	0e 94 aa 0e 	call	0x1d54	; 0x1d54 <_Z14playSoundClickv>

/*---------------------------------------------------------------------------*/

void clearMenuItems(void)
{
    menuItemCount = 0;
    1f82:	10 92 30 03 	sts	0x0330, r1	; 0x800330 <_ZL13menuItemCount>
    clearMenuItems();
    if (state <= STATE_PLAYING) addMenuItem(F("CONTINUE"), onContinue);
    1f86:	c0 91 09 03 	lds	r28, 0x0309	; 0x800309 <_ZL5state.lto_priv.52>
    1f8a:	c2 30       	cpi	r28, 0x02	; 2
    1f8c:	b8 f1       	brcs	.+110    	; 0x1ffc <_ZL12openGameMenuv+0x80>
    if (state >= STATE_PLAYING) addMenuItem(F("RETRY"), onRetry);
    1f8e:	62 e2       	ldi	r22, 0x22	; 34
    1f90:	79 e1       	ldi	r23, 0x19	; 25
    1f92:	88 e8       	ldi	r24, 0x88	; 136
    1f94:	95 e0       	ldi	r25, 0x05	; 5
    1f96:	0e 94 95 0a 	call	0x152a	; 0x152a <_Z11addMenuItemPK19__FlashStringHelperPFvvE>
    addMenuItem(F("BACK TO TITLE"), (state == STATE_PLAYING) ? onConfirmQuit : onQuit);
    1f9a:	6e e8       	ldi	r22, 0x8E	; 142
    1f9c:	7f e0       	ldi	r23, 0x0F	; 15
    1f9e:	c1 30       	cpi	r28, 0x01	; 1
    1fa0:	11 f0       	breq	.+4      	; 0x1fa6 <_ZL12openGameMenuv+0x2a>
    1fa2:	63 ee       	ldi	r22, 0xE3	; 227
    1fa4:	73 e2       	ldi	r23, 0x23	; 35
    1fa6:	8a e7       	ldi	r24, 0x7A	; 122
    1fa8:	95 e0       	ldi	r25, 0x05	; 5
    1faa:	0e 94 95 0a 	call	0x152a	; 0x152a <_Z11addMenuItemPK19__FlashStringHelperPFvvE>
    uint8_t h = getMenuItemCount() * 6;
    1fae:	90 91 30 03 	lds	r25, 0x0330	; 0x800330 <_ZL13menuItemCount>
    1fb2:	89 2f       	mov	r24, r25
    1fb4:	88 0f       	add	r24, r24
    1fb6:	89 0f       	add	r24, r25
    1fb8:	88 0f       	add	r24, r24
    return menuItemCount;
}

void setMenuCoords(int8_t x, int8_t y, int8_t w, int8_t h, bool f, bool s)
{
    menuX = x;
    1fba:	93 e1       	ldi	r25, 0x13	; 19
    1fbc:	90 93 37 03 	sts	0x0337, r25	; 0x800337 <_ZL5menuX>
    setMenuCoords(19, 54 - h, 89, h - 1, true, true);
    1fc0:	96 e3       	ldi	r25, 0x36	; 54
    1fc2:	98 1b       	sub	r25, r24
    menuY = y;
    1fc4:	90 93 36 03 	sts	0x0336, r25	; 0x800336 <_ZL5menuY>
    menuW = w;
    1fc8:	99 e5       	ldi	r25, 0x59	; 89
    1fca:	90 93 35 03 	sts	0x0335, r25	; 0x800335 <_ZL5menuW>
    1fce:	81 50       	subi	r24, 0x01	; 1
    menuH = h;
    1fd0:	80 93 34 03 	sts	0x0334, r24	; 0x800334 <_ZL5menuH>
    isFramed = f;
    1fd4:	91 e0       	ldi	r25, 0x01	; 1
    1fd6:	90 93 33 03 	sts	0x0333, r25	; 0x800333 <_ZL8isFramed>
    isControlSound = s;
    1fda:	90 93 32 03 	sts	0x0332, r25	; 0x800332 <_ZL14isControlSound>
    setMenuItemPos((state == STATE_OVER && !isDefeated) ? 1 : 0);
    1fde:	80 91 45 01 	lds	r24, 0x0145	; 0x800145 <_ZL10isDefeated>
    1fe2:	89 27       	eor	r24, r25
    1fe4:	c2 30       	cpi	r28, 0x02	; 2
    1fe6:	09 f0       	breq	.+2      	; 0x1fea <_ZL12openGameMenuv+0x6e>
    1fe8:	80 e0       	ldi	r24, 0x00	; 0
}

void setMenuItemPos(int8_t pos)
{
    menuItemPos = pos;
    1fea:	80 93 39 03 	sts	0x0339, r24	; 0x800339 <_ZL11menuItemPos>
    isInvalidMenu = true;
    1fee:	81 e0       	ldi	r24, 0x01	; 1
    1ff0:	80 93 31 03 	sts	0x0331, r24	; 0x800331 <_ZL13isInvalidMenu>
    isMenu = true;
    1ff4:	80 93 04 03 	sts	0x0304, r24	; 0x800304 <_ZL6isMenu>
}
    1ff8:	cf 91       	pop	r28
    1ffa:	08 95       	ret

static void openGameMenu(void)
{
    playSoundClick();
    clearMenuItems();
    if (state <= STATE_PLAYING) addMenuItem(F("CONTINUE"), onContinue);
    1ffc:	66 e8       	ldi	r22, 0x86	; 134
    1ffe:	7f e0       	ldi	r23, 0x0F	; 15
    2000:	8e e8       	ldi	r24, 0x8E	; 142
    2002:	95 e0       	ldi	r25, 0x05	; 5
    2004:	0e 94 95 0a 	call	0x152a	; 0x152a <_Z11addMenuItemPK19__FlashStringHelperPFvvE>
    if (state >= STATE_PLAYING) addMenuItem(F("RETRY"), onRetry);
    2008:	cc 23       	and	r28, r28
    200a:	59 f2       	breq	.-106    	; 0x1fa2 <_ZL12openGameMenuv+0x26>
    200c:	c0 cf       	rjmp	.-128    	; 0x1f8e <_ZL12openGameMenuv+0x12>

0000200e <_Z13playSoundTickv>:
    dprintln(on);
}

void playSoundTick(void)
{
    arduboy.playTone(440, 10);
    200e:	6a e0       	ldi	r22, 0x0A	; 10
    2010:	70 e0       	ldi	r23, 0x00	; 0
    2012:	88 eb       	ldi	r24, 0xB8	; 184
    2014:	91 e0       	ldi	r25, 0x01	; 1
    2016:	0c 94 35 0e 	jmp	0x1c6a	; 0x1c6a <_ZN10MyArduboy28playToneEjjhh.constprop.28>

0000201a <_ZL15handleCodeEntryv>:
    handleMenu();
    if (arduboy.buttonDown(UP_BUTTON | DOWN_BUTTON)) isSettingChenged = true;
}

static void handleCodeEntry(void)
{
    201a:	8f 92       	push	r8
    201c:	9f 92       	push	r9
    201e:	af 92       	push	r10
    2020:	bf 92       	push	r11
    2022:	cf 92       	push	r12
    2024:	df 92       	push	r13
    2026:	ef 92       	push	r14
    2028:	ff 92       	push	r15
    202a:	cf 93       	push	r28
    202c:	df 93       	push	r29
    int8_t vx = arduboy.buttonDown(RIGHT_BUTTON) - arduboy.buttonDown(LEFT_BUTTON);
    202e:	80 e4       	ldi	r24, 0x40	; 64
    2030:	0e 94 f5 05 	call	0xbea	; 0xbea <_ZN10MyArduboy210buttonDownEh.constprop.43>
    2034:	f8 2e       	mov	r15, r24
    2036:	80 e2       	ldi	r24, 0x20	; 32
    2038:	0e 94 f5 05 	call	0xbea	; 0xbea <_ZN10MyArduboy210buttonDownEh.constprop.43>
    203c:	f8 1a       	sub	r15, r24
    if (vx != 0 && gameSeedX + vx >= 0 && gameSeedX + vx < GAME_SEED_TOKEN_MAX) {
    203e:	c1 f0       	breq	.+48     	; 0x2070 <_ZL15handleCodeEntryv+0x56>
    2040:	80 91 44 03 	lds	r24, 0x0344	; 0x800344 <_ZL9gameSeedX>
    2044:	2f 2d       	mov	r18, r15
    2046:	0f 2c       	mov	r0, r15
    2048:	00 0c       	add	r0, r0
    204a:	33 0b       	sbc	r19, r19
    204c:	82 0f       	add	r24, r18
    204e:	93 2f       	mov	r25, r19
    2050:	91 1d       	adc	r25, r1
    2052:	8f 3f       	cpi	r24, 0xFF	; 255
    2054:	98 07       	cpc	r25, r24
    2056:	61 f0       	breq	.+24     	; 0x2070 <_ZL15handleCodeEntryv+0x56>
    2058:	05 97       	sbiw	r24, 0x05	; 5
    205a:	54 f4       	brge	.+20     	; 0x2070 <_ZL15handleCodeEntryv+0x56>
        playSoundTick();
    205c:	0e 94 07 10 	call	0x200e	; 0x200e <_Z13playSoundTickv>
        gameSeedX += vx;
    2060:	80 91 44 03 	lds	r24, 0x0344	; 0x800344 <_ZL9gameSeedX>
    2064:	f8 0e       	add	r15, r24
    2066:	f0 92 44 03 	sts	0x0344, r15	; 0x800344 <_ZL9gameSeedX>
        isSettingChenged = true;
    206a:	81 e0       	ldi	r24, 0x01	; 1
    206c:	80 93 4a 03 	sts	0x034A, r24	; 0x80034a <_ZL16isSettingChenged>
    }
    if (padY != 0) {
    2070:	80 91 2f 03 	lds	r24, 0x032F	; 0x80032f <padY>
    2074:	88 23       	and	r24, r24
    2076:	09 f4       	brne	.+2      	; 0x207a <_ZL15handleCodeEntryv+0x60>
    2078:	57 c0       	rjmp	.+174    	; 0x2128 <_ZL15handleCodeEntryv+0x10e>
        playSoundTick();
    207a:	0e 94 07 10 	call	0x200e	; 0x200e <_Z13playSoundTickv>
        int32_t k = 1;
        for (int i = 0; i < gameSeedX; i++, k *= GAME_SEED_TOKEN_VAL) { ; }
    207e:	c0 91 44 03 	lds	r28, 0x0344	; 0x800344 <_ZL9gameSeedX>
    2082:	d0 e0       	ldi	r29, 0x00	; 0
    2084:	f0 e0       	ldi	r31, 0x00	; 0
    2086:	e0 e0       	ldi	r30, 0x00	; 0
        gameSeedX += vx;
        isSettingChenged = true;
    }
    if (padY != 0) {
        playSoundTick();
        int32_t k = 1;
    2088:	c1 2c       	mov	r12, r1
    208a:	d1 2c       	mov	r13, r1
    208c:	76 01       	movw	r14, r12
    208e:	c3 94       	inc	r12
        for (int i = 0; i < gameSeedX; i++, k *= GAME_SEED_TOKEN_VAL) { ; }
    2090:	ec 17       	cp	r30, r28
    2092:	fd 07       	cpc	r31, r29
    2094:	54 f4       	brge	.+20     	; 0x20aa <_ZL15handleCodeEntryv+0x90>
    2096:	31 96       	adiw	r30, 0x01	; 1
    2098:	ab e1       	ldi	r26, 0x1B	; 27
    209a:	b0 e0       	ldi	r27, 0x00	; 0
    209c:	a7 01       	movw	r20, r14
    209e:	96 01       	movw	r18, r12
    20a0:	0e 94 60 2c 	call	0x58c0	; 0x58c0 <__muluhisi3>
    20a4:	6b 01       	movw	r12, r22
    20a6:	7c 01       	movw	r14, r24
    20a8:	f3 cf       	rjmp	.-26     	; 0x2090 <_ZL15handleCodeEntryv+0x76>
        int8_t token = (gameSeedTmp / k) % GAME_SEED_TOKEN_VAL;
    20aa:	80 90 46 03 	lds	r8, 0x0346	; 0x800346 <_ZL11gameSeedTmp>
    20ae:	90 90 47 03 	lds	r9, 0x0347	; 0x800347 <_ZL11gameSeedTmp+0x1>
    20b2:	a0 90 48 03 	lds	r10, 0x0348	; 0x800348 <_ZL11gameSeedTmp+0x2>
    20b6:	b0 90 49 03 	lds	r11, 0x0349	; 0x800349 <_ZL11gameSeedTmp+0x3>
        if (token + padY < 0 || token + padY >= GAME_SEED_TOKEN_VAL) {
    20ba:	c0 91 2f 03 	lds	r28, 0x032F	; 0x80032f <padY>
    }
    if (padY != 0) {
        playSoundTick();
        int32_t k = 1;
        for (int i = 0; i < gameSeedX; i++, k *= GAME_SEED_TOKEN_VAL) { ; }
        int8_t token = (gameSeedTmp / k) % GAME_SEED_TOKEN_VAL;
    20be:	c5 01       	movw	r24, r10
    20c0:	b4 01       	movw	r22, r8
    20c2:	a7 01       	movw	r20, r14
    20c4:	96 01       	movw	r18, r12
    20c6:	0e 94 41 2c 	call	0x5882	; 0x5882 <__divmodsi4>
    20ca:	ca 01       	movw	r24, r20
    20cc:	b9 01       	movw	r22, r18
    20ce:	2b e1       	ldi	r18, 0x1B	; 27
    20d0:	30 e0       	ldi	r19, 0x00	; 0
    20d2:	40 e0       	ldi	r20, 0x00	; 0
    20d4:	50 e0       	ldi	r21, 0x00	; 0
    20d6:	0e 94 41 2c 	call	0x5882	; 0x5882 <__divmodsi4>
        if (token + padY < 0 || token + padY >= GAME_SEED_TOKEN_VAL) {
    20da:	2c 2f       	mov	r18, r28
    20dc:	0c 2e       	mov	r0, r28
    20de:	00 0c       	add	r0, r0
    20e0:	33 0b       	sbc	r19, r19
    20e2:	c9 01       	movw	r24, r18
    20e4:	86 0f       	add	r24, r22
    20e6:	97 1f       	adc	r25, r23
    20e8:	4b 97       	sbiw	r24, 0x1b	; 27
    20ea:	40 f0       	brcs	.+16     	; 0x20fc <_ZL15handleCodeEntryv+0xe2>
            k = (1 - GAME_SEED_TOKEN_VAL) * k;
    20ec:	a6 ee       	ldi	r26, 0xE6	; 230
    20ee:	bf ef       	ldi	r27, 0xFF	; 255
    20f0:	a7 01       	movw	r20, r14
    20f2:	96 01       	movw	r18, r12
    20f4:	0e 94 6e 2c 	call	0x58dc	; 0x58dc <__mulohisi3>
    20f8:	6b 01       	movw	r12, r22
    20fa:	7c 01       	movw	r14, r24
        }
        gameSeedTmp += padY * k;
    20fc:	ac 2f       	mov	r26, r28
    20fe:	cc 0f       	add	r28, r28
    2100:	bb 0b       	sbc	r27, r27
    2102:	a7 01       	movw	r20, r14
    2104:	96 01       	movw	r18, r12
    2106:	0e 94 6b 2c 	call	0x58d6	; 0x58d6 <__mulshisi3>
    210a:	86 0e       	add	r8, r22
    210c:	97 1e       	adc	r9, r23
    210e:	a8 1e       	adc	r10, r24
    2110:	b9 1e       	adc	r11, r25
    2112:	80 92 46 03 	sts	0x0346, r8	; 0x800346 <_ZL11gameSeedTmp>
    2116:	90 92 47 03 	sts	0x0347, r9	; 0x800347 <_ZL11gameSeedTmp+0x1>
    211a:	a0 92 48 03 	sts	0x0348, r10	; 0x800348 <_ZL11gameSeedTmp+0x2>
    211e:	b0 92 49 03 	sts	0x0349, r11	; 0x800349 <_ZL11gameSeedTmp+0x3>
        isSettingChenged = true;
    2122:	81 e0       	ldi	r24, 0x01	; 1
    2124:	80 93 4a 03 	sts	0x034A, r24	; 0x80034a <_ZL16isSettingChenged>
    }
    if (arduboy.buttonDown(A_BUTTON)) {
    2128:	88 e0       	ldi	r24, 0x08	; 8
    212a:	0e 94 f5 05 	call	0xbea	; 0xbea <_ZN10MyArduboy210buttonDownEh.constprop.43>
    212e:	88 23       	and	r24, r24
    2130:	91 f0       	breq	.+36     	; 0x2156 <_ZL15handleCodeEntryv+0x13c>
        playSoundClick();
    2132:	0e 94 aa 0e 	call	0x1d54	; 0x1d54 <_Z14playSoundClickv>
        state = STATE_TOP;
    2136:	81 e0       	ldi	r24, 0x01	; 1
    2138:	80 93 38 03 	sts	0x0338, r24	; 0x800338 <_ZL5state.lto_priv.53>
        isInvalid = true;
    213c:	80 93 4b 03 	sts	0x034B, r24	; 0x80034b <isInvalid>
    } else if (arduboy.buttonDown(B_BUTTON)) {
        if (record.gameSeed != gameSeedTmp) record.isCleared = false;
        record.gameSeed = gameSeedTmp;
        onStart();
    }
}
    2140:	df 91       	pop	r29
    2142:	cf 91       	pop	r28
    2144:	ff 90       	pop	r15
    2146:	ef 90       	pop	r14
    2148:	df 90       	pop	r13
    214a:	cf 90       	pop	r12
    214c:	bf 90       	pop	r11
    214e:	af 90       	pop	r10
    2150:	9f 90       	pop	r9
    2152:	8f 90       	pop	r8
    2154:	08 95       	ret
    }
    if (arduboy.buttonDown(A_BUTTON)) {
        playSoundClick();
        state = STATE_TOP;
        isInvalid = true;
    } else if (arduboy.buttonDown(B_BUTTON)) {
    2156:	84 e0       	ldi	r24, 0x04	; 4
    2158:	0e 94 f5 05 	call	0xbea	; 0xbea <_ZN10MyArduboy210buttonDownEh.constprop.43>
    215c:	88 23       	and	r24, r24
    215e:	81 f3       	breq	.-32     	; 0x2140 <_ZL15handleCodeEntryv+0x126>
        if (record.gameSeed != gameSeedTmp) record.isCleared = false;
    2160:	40 91 46 03 	lds	r20, 0x0346	; 0x800346 <_ZL11gameSeedTmp>
    2164:	50 91 47 03 	lds	r21, 0x0347	; 0x800347 <_ZL11gameSeedTmp+0x1>
    2168:	60 91 48 03 	lds	r22, 0x0348	; 0x800348 <_ZL11gameSeedTmp+0x2>
    216c:	70 91 49 03 	lds	r23, 0x0349	; 0x800349 <_ZL11gameSeedTmp+0x3>
    2170:	80 91 3a 03 	lds	r24, 0x033A	; 0x80033a <record>
    2174:	90 91 3b 03 	lds	r25, 0x033B	; 0x80033b <record+0x1>
    2178:	a0 91 3c 03 	lds	r26, 0x033C	; 0x80033c <record+0x2>
    217c:	b0 e0       	ldi	r27, 0x00	; 0
    217e:	84 17       	cp	r24, r20
    2180:	95 07       	cpc	r25, r21
    2182:	a6 07       	cpc	r26, r22
    2184:	b7 07       	cpc	r27, r23
    2186:	29 f0       	breq	.+10     	; 0x2192 <_ZL15handleCodeEntryv+0x178>
    2188:	80 91 3d 03 	lds	r24, 0x033D	; 0x80033d <record+0x3>
    218c:	8f 77       	andi	r24, 0x7F	; 127
    218e:	80 93 3d 03 	sts	0x033D, r24	; 0x80033d <record+0x3>
        record.gameSeed = gameSeedTmp;
    2192:	40 93 3a 03 	sts	0x033A, r20	; 0x80033a <record>
    2196:	50 93 3b 03 	sts	0x033B, r21	; 0x80033b <record+0x1>
    219a:	60 93 3c 03 	sts	0x033C, r22	; 0x80033c <record+0x2>
    dprintln(F("Title screen"));
}

static void onStart(void)
{
    state = STATE_STARTED;
    219e:	85 e0       	ldi	r24, 0x05	; 5
    21a0:	80 93 38 03 	sts	0x0338, r24	; 0x800338 <_ZL5state.lto_priv.53>
    21a4:	cd cf       	rjmp	.-102    	; 0x2140 <_ZL15handleCodeEntryv+0x126>

000021a6 <_Z10handleMenuv>:
    isInvalidMenu = true;
}

void handleMenu(void)
{
    if (arduboy.buttonDown(UP_BUTTON) && menuItemPos > 0) {
    21a6:	80 e8       	ldi	r24, 0x80	; 128
    21a8:	0e 94 f5 05 	call	0xbea	; 0xbea <_ZN10MyArduboy210buttonDownEh.constprop.43>
    21ac:	88 23       	and	r24, r24
    21ae:	c1 f0       	breq	.+48     	; 0x21e0 <_Z10handleMenuv+0x3a>
    21b0:	80 91 39 03 	lds	r24, 0x0339	; 0x800339 <_ZL11menuItemPos>
    21b4:	18 16       	cp	r1, r24
    21b6:	a4 f4       	brge	.+40     	; 0x21e0 <_Z10handleMenuv+0x3a>
    21b8:	81 50       	subi	r24, 0x01	; 1
        while (!(menuItemAry[--menuItemPos].func)) { ; }
    21ba:	98 2f       	mov	r25, r24
    21bc:	81 50       	subi	r24, 0x01	; 1
    21be:	24 e0       	ldi	r18, 0x04	; 4
    21c0:	92 02       	muls	r25, r18
    21c2:	f0 01       	movw	r30, r0
    21c4:	11 24       	eor	r1, r1
    21c6:	e5 5f       	subi	r30, 0xF5	; 245
    21c8:	fc 4f       	sbci	r31, 0xFC	; 252
    21ca:	20 81       	ld	r18, Z
    21cc:	31 81       	ldd	r19, Z+1	; 0x01
    21ce:	23 2b       	or	r18, r19
    21d0:	a1 f3       	breq	.-24     	; 0x21ba <_Z10handleMenuv+0x14>
    21d2:	90 93 39 03 	sts	0x0339, r25	; 0x800339 <_ZL11menuItemPos>
        playSoundTick();
    21d6:	0e 94 07 10 	call	0x200e	; 0x200e <_Z13playSoundTickv>
        isInvalidMenu = true;
    21da:	81 e0       	ldi	r24, 0x01	; 1
    21dc:	80 93 31 03 	sts	0x0331, r24	; 0x800331 <_ZL13isInvalidMenu>
        dprint(F("menuItemPos="));
        dprintln(menuItemPos);
    }
    if (arduboy.buttonDown(DOWN_BUTTON) && menuItemPos < menuItemCount - 1) {
    21e0:	80 e1       	ldi	r24, 0x10	; 16
    21e2:	0e 94 f5 05 	call	0xbea	; 0xbea <_ZN10MyArduboy210buttonDownEh.constprop.43>
    21e6:	88 23       	and	r24, r24
    21e8:	21 f1       	breq	.+72     	; 0x2232 <_Z10handleMenuv+0x8c>
    21ea:	80 91 39 03 	lds	r24, 0x0339	; 0x800339 <_ZL11menuItemPos>
    21ee:	48 2f       	mov	r20, r24
    21f0:	08 2e       	mov	r0, r24
    21f2:	00 0c       	add	r0, r0
    21f4:	55 0b       	sbc	r21, r21
    21f6:	20 91 30 03 	lds	r18, 0x0330	; 0x800330 <_ZL13menuItemCount>
    21fa:	02 2e       	mov	r0, r18
    21fc:	00 0c       	add	r0, r0
    21fe:	33 0b       	sbc	r19, r19
    2200:	21 50       	subi	r18, 0x01	; 1
    2202:	31 09       	sbc	r19, r1
    2204:	42 17       	cp	r20, r18
    2206:	53 07       	cpc	r21, r19
    2208:	a4 f4       	brge	.+40     	; 0x2232 <_Z10handleMenuv+0x8c>
    220a:	8f 5f       	subi	r24, 0xFF	; 255
        while (!(menuItemAry[++menuItemPos].func)) { ; }
    220c:	98 2f       	mov	r25, r24
    220e:	8f 5f       	subi	r24, 0xFF	; 255
    2210:	24 e0       	ldi	r18, 0x04	; 4
    2212:	92 02       	muls	r25, r18
    2214:	f0 01       	movw	r30, r0
    2216:	11 24       	eor	r1, r1
    2218:	e5 5f       	subi	r30, 0xF5	; 245
    221a:	fc 4f       	sbci	r31, 0xFC	; 252
    221c:	20 81       	ld	r18, Z
    221e:	31 81       	ldd	r19, Z+1	; 0x01
    2220:	23 2b       	or	r18, r19
    2222:	a1 f3       	breq	.-24     	; 0x220c <_Z10handleMenuv+0x66>
    2224:	90 93 39 03 	sts	0x0339, r25	; 0x800339 <_ZL11menuItemPos>
        playSoundTick();
    2228:	0e 94 07 10 	call	0x200e	; 0x200e <_Z13playSoundTickv>
        isInvalidMenu = true;
    222c:	81 e0       	ldi	r24, 0x01	; 1
    222e:	80 93 31 03 	sts	0x0331, r24	; 0x800331 <_ZL13isInvalidMenu>
        dprint(F("menuItemPos="));
        dprintln(menuItemPos);
    }
    if (isControlSound && arduboy.buttonDown(A_BUTTON)) {
    2232:	80 91 32 03 	lds	r24, 0x0332	; 0x800332 <_ZL14isControlSound>
    2236:	88 23       	and	r24, r24
    2238:	81 f0       	breq	.+32     	; 0x225a <_Z10handleMenuv+0xb4>
    223a:	88 e0       	ldi	r24, 0x08	; 8
    223c:	0e 94 f5 05 	call	0xbea	; 0xbea <_ZN10MyArduboy210buttonDownEh.constprop.43>
    2240:	88 23       	and	r24, r24
    2242:	59 f0       	breq	.+22     	; 0x225a <_Z10handleMenuv+0xb4>
    return audio.enabled();
}

void MyArduboy2::setAudioEnabled(bool on)
{
    (on) ? audio.on() : audio.off();
    2244:	80 91 4c 03 	lds	r24, 0x034C	; 0x80034c <_ZN13Arduboy2Audio13audio_enabledE>
    2248:	81 11       	cpse	r24, r1
    224a:	18 c0       	rjmp	.+48     	; 0x227c <_Z10handleMenuv+0xd6>
    224c:	0e 94 ec 08 	call	0x11d8	; 0x11d8 <_ZN13Arduboy2Audio2onEv>
        setSound(!arduboy.isAudioEnabled());
        playSoundClick();
    2250:	0e 94 aa 0e 	call	0x1d54	; 0x1d54 <_Z14playSoundClickv>
        isInvalidMenu = true;
    2254:	81 e0       	ldi	r24, 0x01	; 1
    2256:	80 93 31 03 	sts	0x0331, r24	; 0x800331 <_ZL13isInvalidMenu>
    }
    if (arduboy.buttonDown(B_BUTTON)) {
    225a:	84 e0       	ldi	r24, 0x04	; 4
    225c:	0e 94 f5 05 	call	0xbea	; 0xbea <_ZN10MyArduboy210buttonDownEh.constprop.43>
    2260:	88 23       	and	r24, r24
    2262:	79 f0       	breq	.+30     	; 0x2282 <_Z10handleMenuv+0xdc>
        menuItemAry[menuItemPos].func();
    2264:	e0 91 39 03 	lds	r30, 0x0339	; 0x800339 <_ZL11menuItemPos>
    2268:	84 e0       	ldi	r24, 0x04	; 4
    226a:	e8 02       	muls	r30, r24
    226c:	f0 01       	movw	r30, r0
    226e:	11 24       	eor	r1, r1
    2270:	e5 5f       	subi	r30, 0xF5	; 245
    2272:	fc 4f       	sbci	r31, 0xFC	; 252
    2274:	01 90       	ld	r0, Z+
    2276:	f0 81       	ld	r31, Z
    2278:	e0 2d       	mov	r30, r0
    227a:	09 94       	ijmp
    227c:	0e 94 e7 08 	call	0x11ce	; 0x11ce <_ZN13Arduboy2Audio3offEv>
    2280:	e7 cf       	rjmp	.-50     	; 0x2250 <_Z10handleMenuv+0xaa>
    }
}
    2282:	08 95       	ret

00002284 <_ZL14handleSettingsv>:
/*                             Control Functions                             */
/*---------------------------------------------------------------------------*/

static void handleSettings(void)
{
    switch (getMenuItemPos()) {
    2284:	80 91 39 03 	lds	r24, 0x0339	; 0x800339 <_ZL11menuItemPos>
    2288:	88 23       	and	r24, r24
    228a:	79 f0       	breq	.+30     	; 0x22aa <_ZL14handleSettingsv+0x26>
    228c:	87 fd       	sbrc	r24, 7
    228e:	02 c0       	rjmp	.+4      	; 0x2294 <_ZL14handleSettingsv+0x10>
    2290:	84 30       	cpi	r24, 0x04	; 4
    2292:	64 f1       	brlt	.+88     	; 0x22ec <_ZL14handleSettingsv+0x68>
        if (arduboy.buttonDown(LEFT_BUTTON | RIGHT_BUTTON)) onMenuToggleItem();
        break;
    default:
        break;
    }
    handleMenu();
    2294:	0e 94 d3 10 	call	0x21a6	; 0x21a6 <_Z10handleMenuv>
    if (arduboy.buttonDown(UP_BUTTON | DOWN_BUTTON)) isSettingChenged = true;
    2298:	80 e9       	ldi	r24, 0x90	; 144
    229a:	0e 94 f5 05 	call	0xbea	; 0xbea <_ZN10MyArduboy210buttonDownEh.constprop.43>
    229e:	88 23       	and	r24, r24
    22a0:	19 f0       	breq	.+6      	; 0x22a8 <_ZL14handleSettingsv+0x24>
    22a2:	81 e0       	ldi	r24, 0x01	; 1
    22a4:	80 93 4a 03 	sts	0x034A, r24	; 0x80034a <_ZL16isSettingChenged>
}
    22a8:	08 95       	ret

static void handleSettings(void)
{
    switch (getMenuItemPos()) {
    case 0:
        if (padX != 0) {
    22aa:	80 91 2e 03 	lds	r24, 0x032E	; 0x80032e <padX>
    22ae:	88 23       	and	r24, r24
    22b0:	89 f3       	breq	.-30     	; 0x2294 <_ZL14handleSettingsv+0x10>
            playSoundTick();
    22b2:	0e 94 07 10 	call	0x200e	; 0x200e <_Z13playSoundTickv>
            record.gameRank = circulate(record.gameRank - 1, padX, GAME_RANK_MAX) + 1;
    22b6:	20 91 3d 03 	lds	r18, 0x033D	; 0x80033d <record+0x3>
    22ba:	82 2f       	mov	r24, r18
    22bc:	8f 70       	andi	r24, 0x0F	; 15
    22be:	81 50       	subi	r24, 0x01	; 1
    22c0:	99 0b       	sbc	r25, r25
    22c2:	30 91 2e 03 	lds	r19, 0x032E	; 0x80032e <padX>
    22c6:	83 0f       	add	r24, r19
    22c8:	91 1d       	adc	r25, r1
    22ca:	37 fd       	sbrc	r19, 7
    22cc:	9a 95       	dec	r25
    22ce:	0a 96       	adiw	r24, 0x0a	; 10
    22d0:	6a e0       	ldi	r22, 0x0A	; 10
    22d2:	70 e0       	ldi	r23, 0x00	; 0
    22d4:	0e 94 d4 2f 	call	0x5fa8	; 0x5fa8 <__divmodhi4>
    22d8:	8f 5f       	subi	r24, 0xFF	; 255
    22da:	8f 70       	andi	r24, 0x0F	; 15
    22dc:	20 7f       	andi	r18, 0xF0	; 240
    22de:	28 2b       	or	r18, r24
    22e0:	20 93 3d 03 	sts	0x033D, r18	; 0x80033d <record+0x3>
            isSettingChenged = true;
    22e4:	81 e0       	ldi	r24, 0x01	; 1
    22e6:	80 93 4a 03 	sts	0x034A, r24	; 0x80034a <_ZL16isSettingChenged>
    22ea:	d4 cf       	rjmp	.-88     	; 0x2294 <_ZL14handleSettingsv+0x10>
        }
        break;
    case 1:
    case 2:
    case 3:
        if (arduboy.buttonDown(LEFT_BUTTON | RIGHT_BUTTON)) onMenuToggleItem();
    22ec:	80 e6       	ldi	r24, 0x60	; 96
    22ee:	0e 94 f5 05 	call	0xbea	; 0xbea <_ZN10MyArduboy210buttonDownEh.constprop.43>
    22f2:	88 23       	and	r24, r24
    22f4:	79 f2       	breq	.-98     	; 0x2294 <_ZL14handleSettingsv+0x10>
    22f6:	0e 94 b0 0e 	call	0x1d60	; 0x1d60 <_ZL16onMenuToggleItemv>
    22fa:	cc cf       	rjmp	.-104    	; 0x2294 <_ZL14handleSettingsv+0x10>

000022fc <_Z10updateGamev>:
    isInvalid = true;
}

MODE_T updateGame(void)
{
    handleDPad();
    22fc:	0e 94 31 0d 	call	0x1a62	; 0x1a62 <_Z10handleDPadv>
    if (isMenu) {
    2300:	80 91 04 03 	lds	r24, 0x0304	; 0x800304 <_ZL6isMenu>
    2304:	88 23       	and	r24, r24
    2306:	41 f0       	breq	.+16     	; 0x2318 <_Z10updateGamev+0x1c>
        handleMenu();
    2308:	0e 94 d3 10 	call	0x21a6	; 0x21a6 <_Z10handleMenuv>
    } else {
        counter++;
        if (ledLevel > 0) ledLevel--;
        callHandlerFunc(state);
    }
    return (state == STATE_LEAVE) ? MODE_TITLE : MODE_GAME;
    230c:	80 91 09 03 	lds	r24, 0x0309	; 0x800309 <_ZL5state.lto_priv.52>
    2310:	83 30       	cpi	r24, 0x03	; 3
    2312:	d1 f0       	breq	.+52     	; 0x2348 <_Z10updateGamev+0x4c>
    2314:	82 e0       	ldi	r24, 0x02	; 2
    2316:	08 95       	ret
{
    handleDPad();
    if (isMenu) {
        handleMenu();
    } else {
        counter++;
    2318:	80 91 45 03 	lds	r24, 0x0345	; 0x800345 <counter>
    231c:	8f 5f       	subi	r24, 0xFF	; 255
    231e:	80 93 45 03 	sts	0x0345, r24	; 0x800345 <counter>
        if (ledLevel > 0) ledLevel--;
    2322:	80 91 46 01 	lds	r24, 0x0146	; 0x800146 <_ZL8ledLevel>
    2326:	88 23       	and	r24, r24
    2328:	19 f0       	breq	.+6      	; 0x2330 <_Z10updateGamev+0x34>
    232a:	81 50       	subi	r24, 0x01	; 1
    232c:	80 93 46 01 	sts	0x0146, r24	; 0x800146 <_ZL8ledLevel>
        callHandlerFunc(state);
    2330:	e0 91 09 03 	lds	r30, 0x0309	; 0x800309 <_ZL5state.lto_priv.52>
    2334:	f0 e0       	ldi	r31, 0x00	; 0
    2336:	ee 0f       	add	r30, r30
    2338:	ff 1f       	adc	r31, r31
    233a:	ed 5e       	subi	r30, 0xED	; 237
    233c:	fc 4f       	sbci	r31, 0xFC	; 252
    233e:	85 91       	lpm	r24, Z+
    2340:	94 91       	lpm	r25, Z
    2342:	fc 01       	movw	r30, r24
    2344:	09 95       	icall
    2346:	e2 cf       	rjmp	.-60     	; 0x230c <_Z10updateGamev+0x10>
    }
    return (state == STATE_LEAVE) ? MODE_TITLE : MODE_GAME;
    2348:	81 e0       	ldi	r24, 0x01	; 1
}
    234a:	08 95       	ret

0000234c <_ZL9stepScorev>:

If CMD < 0x80, then the other 7 bits and the next byte are a
15-bit big-endian number of msec to wait
*/
static void stepScore(void)
{
    234c:	ff 92       	push	r15
    234e:	0f 93       	push	r16
    2350:	1f 93       	push	r17
    2352:	cf 93       	push	r28
    2354:	df 93       	push	r29
            break;
        } else if (opcode == TUNE_OP_MARK) { // set mark to repeat
            scoreStart = scoreCursor - 1;
            if (scoreRepeat > 0) scorePitch += (int8_t)pgm_read_byte(tuneNoteTable + opvalue);
        } else if (opcode == TUNE_OP_REPEAT) { // repeat score
            if (opvalue == 0 || ++scoreRepeat < (1 << opvalue)) {
    2356:	01 e0       	ldi	r16, 0x01	; 1
    2358:	10 e0       	ldi	r17, 0x00	; 0
        uint8_t chan = opvalue & 0x03;
        if (opcode == TUNE_OP_STOPNOTE) { // stop note
            stopNote(chan);
        } else if (opcode == TUNE_OP_PLAYNOTE) { // play note
            uint8_t dutyCycle = ((opvalue & 0x0C) >> 2) + 2;
            isAllMuted = !outputEnabled();
    235a:	ff 24       	eor	r15, r15
    235c:	f3 94       	inc	r15
15-bit big-endian number of msec to wait
*/
static void stepScore(void)
{
    while (true) {
        byte command = pgm_read_byte(scoreCursor++);
    235e:	e0 91 78 03 	lds	r30, 0x0378	; 0x800378 <_ZL11scoreCursor>
    2362:	f0 91 79 03 	lds	r31, 0x0379	; 0x800379 <_ZL11scoreCursor+0x1>
    2366:	af 01       	movw	r20, r30
    2368:	4f 5f       	subi	r20, 0xFF	; 255
    236a:	5f 4f       	sbci	r21, 0xFF	; 255
    236c:	50 93 79 03 	sts	0x0379, r21	; 0x800379 <_ZL11scoreCursor+0x1>
    2370:	40 93 78 03 	sts	0x0378, r20	; 0x800378 <_ZL11scoreCursor>
    2374:	24 91       	lpm	r18, Z
        uint8_t opcode = command & 0xF0;
    2376:	82 2f       	mov	r24, r18
    2378:	80 7f       	andi	r24, 0xF0	; 240
        uint8_t opvalue = command & 0x0F;
    237a:	c2 2f       	mov	r28, r18
    237c:	cf 70       	andi	r28, 0x0F	; 15
        uint8_t chan = opvalue & 0x03;
    237e:	d2 2f       	mov	r29, r18
    2380:	d3 70       	andi	r29, 0x03	; 3
        if (opcode == TUNE_OP_STOPNOTE) { // stop note
    2382:	80 38       	cpi	r24, 0x80	; 128
    2384:	21 f4       	brne	.+8      	; 0x238e <_ZL9stepScorev+0x42>
            stopNote(chan);
    2386:	8d 2f       	mov	r24, r29
    2388:	0e 94 08 0e 	call	0x1c10	; 0x1c10 <_ZL8stopNoteh>
    238c:	e8 cf       	rjmp	.-48     	; 0x235e <_ZL9stepScorev+0x12>
        } else if (opcode == TUNE_OP_PLAYNOTE) { // play note
    238e:	80 39       	cpi	r24, 0x90	; 144
    2390:	09 f0       	breq	.+2      	; 0x2394 <_ZL9stepScorev+0x48>
    2392:	3f c0       	rjmp	.+126    	; 0x2412 <_ZL9stepScorev+0xc6>
            uint8_t dutyCycle = ((opvalue & 0x0C) >> 2) + 2;
            isAllMuted = !outputEnabled();
    2394:	e0 91 88 03 	lds	r30, 0x0388	; 0x800388 <_ZL13outputEnabled>
    2398:	f0 91 89 03 	lds	r31, 0x0389	; 0x800389 <_ZL13outputEnabled+0x1>
    239c:	09 95       	icall
    239e:	8f 25       	eor	r24, r15
    23a0:	80 93 87 03 	sts	0x0387, r24	; 0x800387 <_ZL10isAllMuted>
            playNote(chan, pgm_read_byte(scoreCursor++) + scorePitch, dutyCycle);
    23a4:	e0 91 78 03 	lds	r30, 0x0378	; 0x800378 <_ZL11scoreCursor>
    23a8:	f0 91 79 03 	lds	r31, 0x0379	; 0x800379 <_ZL11scoreCursor+0x1>
    23ac:	cf 01       	movw	r24, r30
    23ae:	01 96       	adiw	r24, 0x01	; 1
    23b0:	90 93 79 03 	sts	0x0379, r25	; 0x800379 <_ZL11scoreCursor+0x1>
    23b4:	80 93 78 03 	sts	0x0378, r24	; 0x800378 <_ZL11scoreCursor>
    23b8:	e4 91       	lpm	r30, Z
    23ba:	80 91 77 03 	lds	r24, 0x0377	; 0x800377 <_ZL10scorePitch>
    }
}

static void playNote(uint8_t chan, uint8_t note, uint8_t dutyCycle)
{
    if (chan >= numChans) return;
    23be:	90 91 8c 03 	lds	r25, 0x038C	; 0x80038c <_ZL8numChans>
    23c2:	d9 17       	cp	r29, r25
    23c4:	60 f6       	brcc	.-104    	; 0x235e <_ZL9stepScorev+0x12>
    if (chan == 1 && isTonePlaying) return;
    23c6:	d1 30       	cpi	r29, 0x01	; 1
    23c8:	21 f4       	brne	.+8      	; 0x23d2 <_ZL9stepScorev+0x86>
    23ca:	90 91 81 03 	lds	r25, 0x0381	; 0x800381 <_ZL13isTonePlaying>
    23ce:	91 11       	cpse	r25, r1
    23d0:	c6 cf       	rjmp	.-116    	; 0x235e <_ZL9stepScorev+0x12>
        if (opcode == TUNE_OP_STOPNOTE) { // stop note
            stopNote(chan);
        } else if (opcode == TUNE_OP_PLAYNOTE) { // play note
            uint8_t dutyCycle = ((opvalue & 0x0C) >> 2) + 2;
            isAllMuted = !outputEnabled();
            playNote(chan, pgm_read_byte(scoreCursor++) + scorePitch, dutyCycle);
    23d2:	8e 0f       	add	r24, r30

static void playNote(uint8_t chan, uint8_t note, uint8_t dutyCycle)
{
    if (chan >= numChans) return;
    if (chan == 1 && isTonePlaying) return;
    if (note > NOTE_MAX) return;
    23d4:	87 fd       	sbrc	r24, 7
    23d6:	c3 cf       	rjmp	.-122    	; 0x235e <_ZL9stepScorev+0x12>
    23d8:	e8 2f       	mov	r30, r24
    23da:	f0 e0       	ldi	r31, 0x00	; 0

    uint16_t frequency = (note < NOTE_MIDDLE) ?
    23dc:	8c 33       	cpi	r24, 0x3C	; 60
    23de:	90 f4       	brcc	.+36     	; 0x2404 <_ZL9stepScorev+0xb8>
            pgm_read_byte(midiByteNoteFrequencies + note) :
    23e0:	ee 59       	subi	r30, 0x9E	; 158
    23e2:	fd 4f       	sbci	r31, 0xFD	; 253
    23e4:	e4 91       	lpm	r30, Z
{
    if (chan >= numChans) return;
    if (chan == 1 && isTonePlaying) return;
    if (note > NOTE_MAX) return;

    uint16_t frequency = (note < NOTE_MIDDLE) ?
    23e6:	6e 2f       	mov	r22, r30
    23e8:	70 e0       	ldi	r23, 0x00	; 0
            pgm_read_byte(midiByteNoteFrequencies + note) :
            pgm_read_word(midiWordNoteFrequencies + note - NOTE_MIDDLE);
    if (chan == 0) isWaitTimerPlaying = true;
    setupTimer(getTimerNum(chan), frequency, dutyCycle);
    23ea:	81 e0       	ldi	r24, 0x01	; 1
    if (note > NOTE_MAX) return;

    uint16_t frequency = (note < NOTE_MIDDLE) ?
            pgm_read_byte(midiByteNoteFrequencies + note) :
            pgm_read_word(midiWordNoteFrequencies + note - NOTE_MIDDLE);
    if (chan == 0) isWaitTimerPlaying = true;
    23ec:	d1 11       	cpse	r29, r1
    23ee:	03 c0       	rjmp	.+6      	; 0x23f6 <_ZL9stepScorev+0xaa>
    23f0:	f0 92 86 03 	sts	0x0386, r15	; 0x800386 <_ZL18isWaitTimerPlaying>
    setupTimer(getTimerNum(chan), frequency, dutyCycle);
    23f4:	83 e0       	ldi	r24, 0x03	; 3
        uint8_t opvalue = command & 0x0F;
        uint8_t chan = opvalue & 0x03;
        if (opcode == TUNE_OP_STOPNOTE) { // stop note
            stopNote(chan);
        } else if (opcode == TUNE_OP_PLAYNOTE) { // play note
            uint8_t dutyCycle = ((opvalue & 0x0C) >> 2) + 2;
    23f6:	4c 2f       	mov	r20, r28
    23f8:	46 95       	lsr	r20
    23fa:	46 95       	lsr	r20
    23fc:	4e 5f       	subi	r20, 0xFE	; 254

    uint16_t frequency = (note < NOTE_MIDDLE) ?
            pgm_read_byte(midiByteNoteFrequencies + note) :
            pgm_read_word(midiWordNoteFrequencies + note - NOTE_MIDDLE);
    if (chan == 0) isWaitTimerPlaying = true;
    setupTimer(getTimerNum(chan), frequency, dutyCycle);
    23fe:	0e 94 9a 0d 	call	0x1b34	; 0x1b34 <_ZL10setupTimerhjh>
    2402:	ad cf       	rjmp	.-166    	; 0x235e <_ZL9stepScorev+0x12>
    if (chan == 1 && isTonePlaying) return;
    if (note > NOTE_MAX) return;

    uint16_t frequency = (note < NOTE_MIDDLE) ?
            pgm_read_byte(midiByteNoteFrequencies + note) :
            pgm_read_word(midiWordNoteFrequencies + note - NOTE_MIDDLE);
    2404:	ee 0f       	add	r30, r30
    2406:	ff 1f       	adc	r31, r31
    2408:	ee 59       	subi	r30, 0x9E	; 158
    240a:	fe 4f       	sbci	r31, 0xFE	; 254
    240c:	65 91       	lpm	r22, Z+
    240e:	74 91       	lpm	r23, Z
    2410:	ec cf       	rjmp	.-40     	; 0x23ea <_ZL9stepScorev+0x9e>
            stopNote(chan);
        } else if (opcode == TUNE_OP_PLAYNOTE) { // play note
            uint8_t dutyCycle = ((opvalue & 0x0C) >> 2) + 2;
            isAllMuted = !outputEnabled();
            playNote(chan, pgm_read_byte(scoreCursor++) + scorePitch, dutyCycle);
        } else if (opcode < 0x80) { // wait count in msec.
    2412:	87 fd       	sbrc	r24, 7
    2414:	3f c0       	rjmp	.+126    	; 0x2494 <_ZL9stepScorev+0x148>
            uint16_t duration = (uint16_t)command << 8 | pgm_read_byte(scoreCursor++);
    2416:	32 96       	adiw	r30, 0x02	; 2
    2418:	f0 93 79 03 	sts	0x0379, r31	; 0x800379 <_ZL11scoreCursor+0x1>
    241c:	e0 93 78 03 	sts	0x0378, r30	; 0x800378 <_ZL11scoreCursor>
    2420:	fa 01       	movw	r30, r20
    2422:	44 91       	lpm	r20, Z
            timer3ToggleCount = ((unsigned long)duration * timer3Frequency + 500) / 1000;
    2424:	a0 91 40 01 	lds	r26, 0x0140	; 0x800140 <__data_end>
    2428:	b0 91 41 01 	lds	r27, 0x0141	; 0x800141 <__data_end+0x1>
        } else if (opcode == TUNE_OP_PLAYNOTE) { // play note
            uint8_t dutyCycle = ((opvalue & 0x0C) >> 2) + 2;
            isAllMuted = !outputEnabled();
            playNote(chan, pgm_read_byte(scoreCursor++) + scorePitch, dutyCycle);
        } else if (opcode < 0x80) { // wait count in msec.
            uint16_t duration = (uint16_t)command << 8 | pgm_read_byte(scoreCursor++);
    242c:	32 2f       	mov	r19, r18
    242e:	24 2f       	mov	r18, r20
            timer3ToggleCount = ((unsigned long)duration * timer3Frequency + 500) / 1000;
    2430:	0e 94 95 2c 	call	0x592a	; 0x592a <__umulhisi3>
    2434:	6c 50       	subi	r22, 0x0C	; 12
    2436:	7e 4f       	sbci	r23, 0xFE	; 254
    2438:	8f 4f       	sbci	r24, 0xFF	; 255
    243a:	9f 4f       	sbci	r25, 0xFF	; 255
    243c:	28 ee       	ldi	r18, 0xE8	; 232
    243e:	33 e0       	ldi	r19, 0x03	; 3
    2440:	40 e0       	ldi	r20, 0x00	; 0
    2442:	50 e0       	ldi	r21, 0x00	; 0
    2444:	0e 94 73 2c 	call	0x58e6	; 0x58e6 <__udivmodsi4>
    2448:	20 93 82 03 	sts	0x0382, r18	; 0x800382 <_ZL17timer3ToggleCount>
    244c:	30 93 83 03 	sts	0x0383, r19	; 0x800383 <_ZL17timer3ToggleCount+0x1>
    2450:	40 93 84 03 	sts	0x0384, r20	; 0x800384 <_ZL17timer3ToggleCount+0x2>
    2454:	50 93 85 03 	sts	0x0385, r21	; 0x800385 <_ZL17timer3ToggleCount+0x3>
            if (timer3ToggleCount == 0) timer3ToggleCount = 1;
    2458:	80 91 82 03 	lds	r24, 0x0382	; 0x800382 <_ZL17timer3ToggleCount>
    245c:	90 91 83 03 	lds	r25, 0x0383	; 0x800383 <_ZL17timer3ToggleCount+0x1>
    2460:	a0 91 84 03 	lds	r26, 0x0384	; 0x800384 <_ZL17timer3ToggleCount+0x2>
    2464:	b0 91 85 03 	lds	r27, 0x0385	; 0x800385 <_ZL17timer3ToggleCount+0x3>
    2468:	89 2b       	or	r24, r25
    246a:	8a 2b       	or	r24, r26
    246c:	8b 2b       	or	r24, r27
    246e:	61 f4       	brne	.+24     	; 0x2488 <_ZL9stepScorev+0x13c>
    2470:	81 e0       	ldi	r24, 0x01	; 1
    2472:	90 e0       	ldi	r25, 0x00	; 0
    2474:	a0 e0       	ldi	r26, 0x00	; 0
    2476:	b0 e0       	ldi	r27, 0x00	; 0
    2478:	80 93 82 03 	sts	0x0382, r24	; 0x800382 <_ZL17timer3ToggleCount>
    247c:	90 93 83 03 	sts	0x0383, r25	; 0x800383 <_ZL17timer3ToggleCount+0x1>
    2480:	a0 93 84 03 	sts	0x0384, r26	; 0x800384 <_ZL17timer3ToggleCount+0x2>
    2484:	b0 93 85 03 	sts	0x0385, r27	; 0x800385 <_ZL17timer3ToggleCount+0x3>
        } else if (opcode == TUNE_OP_STOP) { // stop score
            isScorePlaying = false;
            break;
        }
    }
}
    2488:	df 91       	pop	r29
    248a:	cf 91       	pop	r28
    248c:	1f 91       	pop	r17
    248e:	0f 91       	pop	r16
    2490:	ff 90       	pop	r15
    2492:	08 95       	ret
        } else if (opcode < 0x80) { // wait count in msec.
            uint16_t duration = (uint16_t)command << 8 | pgm_read_byte(scoreCursor++);
            timer3ToggleCount = ((unsigned long)duration * timer3Frequency + 500) / 1000;
            if (timer3ToggleCount == 0) timer3ToggleCount = 1;
            break;
        } else if (opcode == TUNE_OP_MARK) { // set mark to repeat
    2494:	80 3d       	cpi	r24, 0xD0	; 208
    2496:	a1 f4       	brne	.+40     	; 0x24c0 <_ZL9stepScorev+0x174>
            scoreStart = scoreCursor - 1;
    2498:	f0 93 7b 03 	sts	0x037B, r31	; 0x80037b <_ZL10scoreStart+0x1>
    249c:	e0 93 7a 03 	sts	0x037A, r30	; 0x80037a <_ZL10scoreStart>
            if (scoreRepeat > 0) scorePitch += (int8_t)pgm_read_byte(tuneNoteTable + opvalue);
    24a0:	80 91 75 03 	lds	r24, 0x0375	; 0x800375 <_ZL11scoreRepeat>
    24a4:	88 23       	and	r24, r24
    24a6:	09 f4       	brne	.+2      	; 0x24aa <_ZL9stepScorev+0x15e>
    24a8:	5a cf       	rjmp	.-332    	; 0x235e <_ZL9stepScorev+0x12>
    24aa:	ec 2f       	mov	r30, r28
    24ac:	f0 e0       	ldi	r31, 0x00	; 0
    24ae:	e2 56       	subi	r30, 0x62	; 98
    24b0:	fd 4f       	sbci	r31, 0xFD	; 253
    24b2:	e4 91       	lpm	r30, Z
    24b4:	c0 91 77 03 	lds	r28, 0x0377	; 0x800377 <_ZL10scorePitch>
    24b8:	ec 0f       	add	r30, r28
    24ba:	e0 93 77 03 	sts	0x0377, r30	; 0x800377 <_ZL10scorePitch>
    24be:	4f cf       	rjmp	.-354    	; 0x235e <_ZL9stepScorev+0x12>
        } else if (opcode == TUNE_OP_REPEAT) { // repeat score
    24c0:	80 3e       	cpi	r24, 0xE0	; 224
    24c2:	21 f5       	brne	.+72     	; 0x250c <_ZL9stepScorev+0x1c0>
            if (opvalue == 0 || ++scoreRepeat < (1 << opvalue)) {
    24c4:	c1 11       	cpse	r28, r1
    24c6:	09 c0       	rjmp	.+18     	; 0x24da <_ZL9stepScorev+0x18e>
                scoreCursor = scoreStart;
    24c8:	80 91 7a 03 	lds	r24, 0x037A	; 0x80037a <_ZL10scoreStart>
    24cc:	90 91 7b 03 	lds	r25, 0x037B	; 0x80037b <_ZL10scoreStart+0x1>
    24d0:	90 93 79 03 	sts	0x0379, r25	; 0x800379 <_ZL11scoreCursor+0x1>
    24d4:	80 93 78 03 	sts	0x0378, r24	; 0x800378 <_ZL11scoreCursor>
    24d8:	42 cf       	rjmp	.-380    	; 0x235e <_ZL9stepScorev+0x12>
            break;
        } else if (opcode == TUNE_OP_MARK) { // set mark to repeat
            scoreStart = scoreCursor - 1;
            if (scoreRepeat > 0) scorePitch += (int8_t)pgm_read_byte(tuneNoteTable + opvalue);
        } else if (opcode == TUNE_OP_REPEAT) { // repeat score
            if (opvalue == 0 || ++scoreRepeat < (1 << opvalue)) {
    24da:	80 91 75 03 	lds	r24, 0x0375	; 0x800375 <_ZL11scoreRepeat>
    24de:	8f 5f       	subi	r24, 0xFF	; 255
    24e0:	80 93 75 03 	sts	0x0375, r24	; 0x800375 <_ZL11scoreRepeat>
    24e4:	98 01       	movw	r18, r16
    24e6:	02 c0       	rjmp	.+4      	; 0x24ec <_ZL9stepScorev+0x1a0>
    24e8:	22 0f       	add	r18, r18
    24ea:	33 1f       	adc	r19, r19
    24ec:	ca 95       	dec	r28
    24ee:	e2 f7       	brpl	.-8      	; 0x24e8 <_ZL9stepScorev+0x19c>
    24f0:	82 17       	cp	r24, r18
    24f2:	13 06       	cpc	r1, r19
    24f4:	4c f3       	brlt	.-46     	; 0x24c8 <_ZL9stepScorev+0x17c>
                scoreCursor = scoreStart;
            } else {
                scoreStart = scoreCursor;
    24f6:	50 93 7b 03 	sts	0x037B, r21	; 0x80037b <_ZL10scoreStart+0x1>
    24fa:	40 93 7a 03 	sts	0x037A, r20	; 0x80037a <_ZL10scoreStart>
                scorePitch = scorePitchDefault;
    24fe:	80 91 76 03 	lds	r24, 0x0376	; 0x800376 <_ZL17scorePitchDefault>
    2502:	80 93 77 03 	sts	0x0377, r24	; 0x800377 <_ZL10scorePitch>
                scoreRepeat = 0;
    2506:	10 92 75 03 	sts	0x0375, r1	; 0x800375 <_ZL11scoreRepeat>
    250a:	29 cf       	rjmp	.-430    	; 0x235e <_ZL9stepScorev+0x12>
            }
        } else if (opcode == TUNE_OP_STOP) { // stop score
    250c:	80 3f       	cpi	r24, 0xF0	; 240
    250e:	09 f0       	breq	.+2      	; 0x2512 <_ZL9stepScorev+0x1c6>
    2510:	26 cf       	rjmp	.-436    	; 0x235e <_ZL9stepScorev+0x12>
            isScorePlaying = false;
    2512:	10 92 8b 03 	sts	0x038B, r1	; 0x80038b <_ZL14isScorePlaying>
    2516:	b8 cf       	rjmp	.-144    	; 0x2488 <_ZL9stepScorev+0x13c>

00002518 <_ZN10MyArduboy29playScoreEPKhha.constprop.27>:
        }
    }
    setupTimer(getTimerNum(chan), frequency, dutyCycle);
}

void MyArduboy2::playScore(const byte *score, uint8_t priority = 0, int8_t pitch = 0)
    2518:	0f 93       	push	r16
    251a:	1f 93       	push	r17
    251c:	cf 93       	push	r28
    251e:	df 93       	push	r29
    2520:	8c 01       	movw	r16, r24
    2522:	d6 2f       	mov	r29, r22
{
    if (isScorePlaying) {
    2524:	80 91 8b 03 	lds	r24, 0x038B	; 0x80038b <_ZL14isScorePlaying>
    2528:	88 23       	and	r24, r24
    252a:	49 f1       	breq	.+82     	; 0x257e <_ZN10MyArduboy29playScoreEPKhha.constprop.27+0x66>
        if (priority > audioPriority) return;
    252c:	80 91 8a 03 	lds	r24, 0x038A	; 0x80038a <_ZL13audioPriority>
    2530:	86 17       	cp	r24, r22
    2532:	90 f1       	brcs	.+100    	; 0x2598 <_ZN10MyArduboy29playScoreEPKhha.constprop.27+0x80>
    stepScore(); // execute initial commands
}

void MyArduboy2::stopScore(void)
{
    for (uint8_t chan = 0; chan < numChans; chan++) {
    2534:	c0 e0       	ldi	r28, 0x00	; 0
    2536:	80 91 8c 03 	lds	r24, 0x038C	; 0x80038c <_ZL8numChans>
    253a:	c8 17       	cp	r28, r24
    253c:	28 f4       	brcc	.+10     	; 0x2548 <_ZN10MyArduboy29playScoreEPKhha.constprop.27+0x30>
        stopNote(chan);
    253e:	8c 2f       	mov	r24, r28
    2540:	0e 94 08 0e 	call	0x1c10	; 0x1c10 <_ZL8stopNoteh>
    stepScore(); // execute initial commands
}

void MyArduboy2::stopScore(void)
{
    for (uint8_t chan = 0; chan < numChans; chan++) {
    2544:	cf 5f       	subi	r28, 0xFF	; 255
    2546:	f7 cf       	rjmp	.-18     	; 0x2536 <_ZN10MyArduboy29playScoreEPKhha.constprop.27+0x1e>
        stopNote(chan);
    }
    isScorePlaying = false;
    2548:	10 92 8b 03 	sts	0x038B, r1	; 0x80038b <_ZL14isScorePlaying>
        if (priority > audioPriority) return;
        stopScore();
    } else if (isTonePlaying) {
        isMuteScore = (priority > audioPriority);
    }
    audioPriority = priority;
    254c:	d0 93 8a 03 	sts	0x038A, r29	; 0x80038a <_ZL13audioPriority>
    scoreStart = score;
    2550:	10 93 7b 03 	sts	0x037B, r17	; 0x80037b <_ZL10scoreStart+0x1>
    2554:	00 93 7a 03 	sts	0x037A, r16	; 0x80037a <_ZL10scoreStart>
    scoreCursor = scoreStart;
    2558:	10 93 79 03 	sts	0x0379, r17	; 0x800379 <_ZL11scoreCursor+0x1>
    255c:	00 93 78 03 	sts	0x0378, r16	; 0x800378 <_ZL11scoreCursor>
    scorePitchDefault = scorePitch = pitch;
    2560:	10 92 77 03 	sts	0x0377, r1	; 0x800377 <_ZL10scorePitch>
    2564:	10 92 76 03 	sts	0x0376, r1	; 0x800376 <_ZL17scorePitchDefault>
    scoreRepeat = 0;
    2568:	10 92 75 03 	sts	0x0375, r1	; 0x800375 <_ZL11scoreRepeat>
    isScorePlaying = true;
    256c:	81 e0       	ldi	r24, 0x01	; 1
    256e:	80 93 8b 03 	sts	0x038B, r24	; 0x80038b <_ZL14isScorePlaying>
    stepScore(); // execute initial commands
}
    2572:	df 91       	pop	r29
    2574:	cf 91       	pop	r28
    2576:	1f 91       	pop	r17
    2578:	0f 91       	pop	r16
    scoreStart = score;
    scoreCursor = scoreStart;
    scorePitchDefault = scorePitch = pitch;
    scoreRepeat = 0;
    isScorePlaying = true;
    stepScore(); // execute initial commands
    257a:	0c 94 a6 11 	jmp	0x234c	; 0x234c <_ZL9stepScorev>
void MyArduboy2::playScore(const byte *score, uint8_t priority = 0, int8_t pitch = 0)
{
    if (isScorePlaying) {
        if (priority > audioPriority) return;
        stopScore();
    } else if (isTonePlaying) {
    257e:	80 91 81 03 	lds	r24, 0x0381	; 0x800381 <_ZL13isTonePlaying>
    2582:	88 23       	and	r24, r24
    2584:	19 f3       	breq	.-58     	; 0x254c <_ZN10MyArduboy29playScoreEPKhha.constprop.27+0x34>
        isMuteScore = (priority > audioPriority);
    2586:	81 e0       	ldi	r24, 0x01	; 1
    2588:	90 91 8a 03 	lds	r25, 0x038A	; 0x80038a <_ZL13audioPriority>
    258c:	96 17       	cp	r25, r22
    258e:	08 f0       	brcs	.+2      	; 0x2592 <_ZN10MyArduboy29playScoreEPKhha.constprop.27+0x7a>
    2590:	80 e0       	ldi	r24, 0x00	; 0
    2592:	80 93 7c 03 	sts	0x037C, r24	; 0x80037c <_ZL11isMuteScore>
    2596:	da cf       	rjmp	.-76     	; 0x254c <_ZN10MyArduboy29playScoreEPKhha.constprop.27+0x34>
    scoreCursor = scoreStart;
    scorePitchDefault = scorePitch = pitch;
    scoreRepeat = 0;
    isScorePlaying = true;
    stepScore(); // execute initial commands
}
    2598:	df 91       	pop	r29
    259a:	cf 91       	pop	r28
    259c:	1f 91       	pop	r17
    259e:	0f 91       	pop	r16
    25a0:	08 95       	ret

000025a2 <_ZN10MyArduboy28fillRectEiihah>:
        fillBeltWhite(p, d, w);
    }
}

void MyArduboy2::fillRect(int16_t x, int16_t y, uint8_t w, int8_t h, uint8_t color)
{
    25a2:	ef 92       	push	r14
    25a4:	0f 93       	push	r16
    25a6:	cf 93       	push	r28
    25a8:	df 93       	push	r29
    /*  Check parameters  */
    if (x < 0) {
    25aa:	77 ff       	sbrs	r23, 7
    25ac:	0c c0       	rjmp	.+24     	; 0x25c6 <_ZN10MyArduboy28fillRectEiihah+0x24>
        if (w <= -x) return;
    25ae:	88 27       	eor	r24, r24
    25b0:	99 27       	eor	r25, r25
    25b2:	86 1b       	sub	r24, r22
    25b4:	97 0b       	sbc	r25, r23
    25b6:	28 17       	cp	r18, r24
    25b8:	19 06       	cpc	r1, r25
    25ba:	09 f0       	breq	.+2      	; 0x25be <_ZN10MyArduboy28fillRectEiihah+0x1c>
    25bc:	0c f4       	brge	.+2      	; 0x25c0 <_ZN10MyArduboy28fillRectEiihah+0x1e>
    25be:	7c c0       	rjmp	.+248    	; 0x26b8 <_ZN10MyArduboy28fillRectEiihah+0x116>
        w += x;
    25c0:	26 0f       	add	r18, r22
        x = 0;
    25c2:	70 e0       	ldi	r23, 0x00	; 0
    25c4:	60 e0       	ldi	r22, 0x00	; 0
    }
    if (y < 0) {
    25c6:	57 ff       	sbrs	r21, 7
    25c8:	0f c0       	rjmp	.+30     	; 0x25e8 <_ZN10MyArduboy28fillRectEiihah+0x46>
        if (h <= -y) return;
    25ca:	ee 27       	eor	r30, r30
    25cc:	ff 27       	eor	r31, r31
    25ce:	e4 1b       	sub	r30, r20
    25d0:	f5 0b       	sbc	r31, r21
    25d2:	80 2f       	mov	r24, r16
    25d4:	00 2e       	mov	r0, r16
    25d6:	00 0c       	add	r0, r0
    25d8:	99 0b       	sbc	r25, r25
    25da:	e8 17       	cp	r30, r24
    25dc:	f9 07       	cpc	r31, r25
    25de:	0c f0       	brlt	.+2      	; 0x25e2 <_ZN10MyArduboy28fillRectEiihah+0x40>
    25e0:	6b c0       	rjmp	.+214    	; 0x26b8 <_ZN10MyArduboy28fillRectEiihah+0x116>
        h += y;
    25e2:	04 0f       	add	r16, r20
        y = 0;
    25e4:	50 e0       	ldi	r21, 0x00	; 0
    25e6:	40 e0       	ldi	r20, 0x00	; 0
    }
    if (w <= 0 || x >= WIDTH || h <= 0 || y >= HEIGHT) return;
    25e8:	22 23       	and	r18, r18
    25ea:	09 f4       	brne	.+2      	; 0x25ee <_ZN10MyArduboy28fillRectEiihah+0x4c>
    25ec:	65 c0       	rjmp	.+202    	; 0x26b8 <_ZN10MyArduboy28fillRectEiihah+0x116>
    25ee:	60 38       	cpi	r22, 0x80	; 128
    25f0:	71 05       	cpc	r23, r1
    25f2:	0c f0       	brlt	.+2      	; 0x25f6 <_ZN10MyArduboy28fillRectEiihah+0x54>
    25f4:	61 c0       	rjmp	.+194    	; 0x26b8 <_ZN10MyArduboy28fillRectEiihah+0x116>
    25f6:	10 16       	cp	r1, r16
    25f8:	0c f0       	brlt	.+2      	; 0x25fc <_ZN10MyArduboy28fillRectEiihah+0x5a>
    25fa:	5e c0       	rjmp	.+188    	; 0x26b8 <_ZN10MyArduboy28fillRectEiihah+0x116>
    25fc:	40 34       	cpi	r20, 0x40	; 64
    25fe:	51 05       	cpc	r21, r1
    2600:	0c f0       	brlt	.+2      	; 0x2604 <_ZN10MyArduboy28fillRectEiihah+0x62>
    2602:	5a c0       	rjmp	.+180    	; 0x26b8 <_ZN10MyArduboy28fillRectEiihah+0x116>
    if (x + w > WIDTH) w = WIDTH - x;
    2604:	cb 01       	movw	r24, r22
    2606:	82 0f       	add	r24, r18
    2608:	91 1d       	adc	r25, r1
    260a:	81 38       	cpi	r24, 0x81	; 129
    260c:	91 05       	cpc	r25, r1
    260e:	14 f0       	brlt	.+4      	; 0x2614 <_ZN10MyArduboy28fillRectEiihah+0x72>
    2610:	20 e8       	ldi	r18, 0x80	; 128
    2612:	26 1b       	sub	r18, r22
    2614:	94 2f       	mov	r25, r20
    if (y + h > HEIGHT) h = HEIGHT - y;
    2616:	fa 01       	movw	r30, r20
    2618:	e0 0f       	add	r30, r16
    261a:	f1 1d       	adc	r31, r1
    261c:	07 fd       	sbrc	r16, 7
    261e:	fa 95       	dec	r31
    2620:	e1 34       	cpi	r30, 0x41	; 65
    2622:	f1 05       	cpc	r31, r1
    2624:	14 f0       	brlt	.+4      	; 0x262a <_ZN10MyArduboy28fillRectEiihah+0x88>
    2626:	00 e4       	ldi	r16, 0x40	; 64
    2628:	04 1b       	sub	r16, r20

    /*  Draw a filled rectangle  */
    uint8_t yOdd = y & 7;
    262a:	97 70       	andi	r25, 0x07	; 7
    uint8_t d = 0xFF << yOdd;
    262c:	8f ef       	ldi	r24, 0xFF	; 255
    262e:	09 2e       	mov	r0, r25
    2630:	01 c0       	rjmp	.+2      	; 0x2634 <_ZN10MyArduboy28fillRectEiihah+0x92>
    2632:	88 0f       	add	r24, r24
    2634:	0a 94       	dec	r0
    2636:	ea f7       	brpl	.-6      	; 0x2632 <_ZN10MyArduboy28fillRectEiihah+0x90>
    y -= yOdd;
    h += yOdd;
    2638:	09 0f       	add	r16, r25
    for (uint8_t *p = getBuffer() + x + (y / 8) * WIDTH; h > 0; h -= 8, p += WIDTH) {
    263a:	49 1b       	sub	r20, r25
    263c:	51 09       	sbc	r21, r1
    263e:	57 ff       	sbrs	r21, 7
    2640:	02 c0       	rjmp	.+4      	; 0x2646 <_ZN10MyArduboy28fillRectEiihah+0xa4>
    2642:	49 5f       	subi	r20, 0xF9	; 249
    2644:	5f 4f       	sbci	r21, 0xFF	; 255
    2646:	93 e0       	ldi	r25, 0x03	; 3
    2648:	55 95       	asr	r21
    264a:	47 95       	ror	r20
    264c:	9a 95       	dec	r25
    264e:	e1 f7       	brne	.-8      	; 0x2648 <_ZN10MyArduboy28fillRectEiihah+0xa6>
    2650:	56 95       	lsr	r21
    2652:	54 2f       	mov	r21, r20
    2654:	44 27       	eor	r20, r20
    2656:	57 95       	ror	r21
    2658:	47 95       	ror	r20
    265a:	64 0f       	add	r22, r20
    265c:	75 1f       	adc	r23, r21
    265e:	63 57       	subi	r22, 0x73	; 115
    2660:	7c 4f       	sbci	r23, 0xFC	; 252
        if (h < 8) d &= 0xFF >> (8 - h);
    2662:	48 e0       	ldi	r20, 0x08	; 8
    2664:	50 e0       	ldi	r21, 0x00	; 0
    2666:	af ef       	ldi	r26, 0xFF	; 255
    2668:	b0 e0       	ldi	r27, 0x00	; 0
    /*  Draw a filled rectangle  */
    uint8_t yOdd = y & 7;
    uint8_t d = 0xFF << yOdd;
    y -= yOdd;
    h += yOdd;
    for (uint8_t *p = getBuffer() + x + (y / 8) * WIDTH; h > 0; h -= 8, p += WIDTH) {
    266a:	10 16       	cp	r1, r16
    266c:	2c f5       	brge	.+74     	; 0x26b8 <_ZN10MyArduboy28fillRectEiihah+0x116>
        if (h < 8) d &= 0xFF >> (8 - h);
    266e:	08 30       	cpi	r16, 0x08	; 8
    2670:	64 f4       	brge	.+24     	; 0x268a <_ZN10MyArduboy28fillRectEiihah+0xe8>
    2672:	fa 01       	movw	r30, r20
    2674:	e0 1b       	sub	r30, r16
    2676:	f1 09       	sbc	r31, r1
    2678:	07 fd       	sbrc	r16, 7
    267a:	f3 95       	inc	r31
    267c:	ed 01       	movw	r28, r26
    267e:	02 c0       	rjmp	.+4      	; 0x2684 <_ZN10MyArduboy28fillRectEiihah+0xe2>
    2680:	d5 95       	asr	r29
    2682:	c7 95       	ror	r28
    2684:	ea 95       	dec	r30
    2686:	e2 f7       	brpl	.-8      	; 0x2680 <_ZN10MyArduboy28fillRectEiihah+0xde>
    2688:	8c 23       	and	r24, r28
        if (color == BLACK) {
    268a:	e1 10       	cpse	r14, r1
    268c:	0d c0       	rjmp	.+26     	; 0x26a8 <_ZN10MyArduboy28fillRectEiihah+0x106>
    }
}

void MyArduboy2::fillBeltBlack(uint8_t *p, uint8_t d, uint8_t w)
{
    d = ~d;
    268e:	80 95       	com	r24
    2690:	fb 01       	movw	r30, r22
    2692:	92 2f       	mov	r25, r18
    for (; w > 0; w--) {
        *p++ &= d;
    2694:	30 81       	ld	r19, Z
    2696:	38 23       	and	r19, r24
    2698:	31 93       	st	Z+, r19
}

void MyArduboy2::fillBeltBlack(uint8_t *p, uint8_t d, uint8_t w)
{
    d = ~d;
    for (; w > 0; w--) {
    269a:	91 50       	subi	r25, 0x01	; 1
    269c:	d9 f7       	brne	.-10     	; 0x2694 <_ZN10MyArduboy28fillRectEiihah+0xf2>
    269e:	08 50       	subi	r16, 0x08	; 8
    /*  Draw a filled rectangle  */
    uint8_t yOdd = y & 7;
    uint8_t d = 0xFF << yOdd;
    y -= yOdd;
    h += yOdd;
    for (uint8_t *p = getBuffer() + x + (y / 8) * WIDTH; h > 0; h -= 8, p += WIDTH) {
    26a0:	60 58       	subi	r22, 0x80	; 128
    26a2:	7f 4f       	sbci	r23, 0xFF	; 255
        if (color == BLACK) {
            fillBeltBlack(p, d, w);
        } else {
            fillBeltWhite(p, d, w);
        }
        d = 0xFF;
    26a4:	8f ef       	ldi	r24, 0xFF	; 255
    26a6:	e1 cf       	rjmp	.-62     	; 0x266a <_ZN10MyArduboy28fillRectEiihah+0xc8>
    26a8:	fb 01       	movw	r30, r22
    uint8_t d = 0xFF << yOdd;
    y -= yOdd;
    h += yOdd;
    for (uint8_t *p = getBuffer() + x + (y / 8) * WIDTH; h > 0; h -= 8, p += WIDTH) {
        if (h < 8) d &= 0xFF >> (8 - h);
        if (color == BLACK) {
    26aa:	92 2f       	mov	r25, r18
}

void MyArduboy2::fillBeltWhite(uint8_t *p, uint8_t d, uint8_t w)
{
    for (; w > 0; w--) {
        *p++ |= d;
    26ac:	30 81       	ld	r19, Z
    26ae:	38 2b       	or	r19, r24
    26b0:	31 93       	st	Z+, r19
    }
}

void MyArduboy2::fillBeltWhite(uint8_t *p, uint8_t d, uint8_t w)
{
    for (; w > 0; w--) {
    26b2:	91 50       	subi	r25, 0x01	; 1
    26b4:	d9 f7       	brne	.-10     	; 0x26ac <_ZN10MyArduboy28fillRectEiihah+0x10a>
    26b6:	f3 cf       	rjmp	.-26     	; 0x269e <_ZN10MyArduboy28fillRectEiihah+0xfc>
        } else {
            fillBeltWhite(p, d, w);
        }
        d = 0xFF;
    }
}
    26b8:	df 91       	pop	r29
    26ba:	cf 91       	pop	r28
    26bc:	0f 91       	pop	r16
    26be:	ef 90       	pop	r14
    26c0:	08 95       	ret

000026c2 <_ZN10MyArduboy25writeEh>:
    textColor = fgColor;
    textBackground = bgColor;
}

size_t MyArduboy2::write(uint8_t c)
{
    26c2:	2f 92       	push	r2
    26c4:	3f 92       	push	r3
    26c6:	4f 92       	push	r4
    26c8:	5f 92       	push	r5
    26ca:	6f 92       	push	r6
    26cc:	7f 92       	push	r7
    26ce:	8f 92       	push	r8
    26d0:	9f 92       	push	r9
    26d2:	af 92       	push	r10
    26d4:	bf 92       	push	r11
    26d6:	cf 92       	push	r12
    26d8:	df 92       	push	r13
    26da:	ef 92       	push	r14
    26dc:	ff 92       	push	r15
    26de:	0f 93       	push	r16
    26e0:	1f 93       	push	r17
    26e2:	cf 93       	push	r28
    26e4:	df 93       	push	r29
    26e6:	cd b7       	in	r28, 0x3d	; 61
    26e8:	de b7       	in	r29, 0x3e	; 62
    26ea:	28 97       	sbiw	r28, 0x08	; 8
    26ec:	0f b6       	in	r0, 0x3f	; 63
    26ee:	f8 94       	cli
    26f0:	de bf       	out	0x3e, r29	; 62
    26f2:	0f be       	out	0x3f, r0	; 63
    26f4:	cd bf       	out	0x3d, r28	; 61
    if (c == '\n') {
    26f6:	6a 30       	cpi	r22, 0x0A	; 10
    26f8:	71 f5       	brne	.+92     	; 0x2756 <_ZN10MyArduboy25writeEh+0x94>
        cursor_y += textSize * 6;
    26fa:	20 91 05 01 	lds	r18, 0x0105	; 0x800105 <_ZN8Arduboy28textSizeE>
    26fe:	80 91 71 03 	lds	r24, 0x0371	; 0x800371 <_ZN8Arduboy28cursor_yE>
    2702:	90 91 72 03 	lds	r25, 0x0372	; 0x800372 <_ZN8Arduboy28cursor_yE+0x1>
    2706:	36 e0       	ldi	r19, 0x06	; 6
    2708:	23 9f       	mul	r18, r19
    270a:	80 0d       	add	r24, r0
    270c:	91 1d       	adc	r25, r1
    270e:	11 24       	eor	r1, r1
    2710:	90 93 72 03 	sts	0x0372, r25	; 0x800372 <_ZN8Arduboy28cursor_yE+0x1>
    2714:	80 93 71 03 	sts	0x0371, r24	; 0x800371 <_ZN8Arduboy28cursor_yE>
        cursor_x = 0;
    2718:	10 92 74 03 	sts	0x0374, r1	; 0x800374 <_ZN8Arduboy28cursor_xE+0x1>
    271c:	10 92 73 03 	sts	0x0373, r1	; 0x800373 <_ZN8Arduboy28cursor_xE>
        drawChar(cursor_x, cursor_y, c, textColor, textBackground, textSize);
        cursor_x += textSize * 6;
        if (textWrap && (cursor_x > (WIDTH - textSize * 6))) write('\n');
    }
    return 1; // temporary
}
    2720:	81 e0       	ldi	r24, 0x01	; 1
    2722:	90 e0       	ldi	r25, 0x00	; 0
    2724:	28 96       	adiw	r28, 0x08	; 8
    2726:	0f b6       	in	r0, 0x3f	; 63
    2728:	f8 94       	cli
    272a:	de bf       	out	0x3e, r29	; 62
    272c:	0f be       	out	0x3f, r0	; 63
    272e:	cd bf       	out	0x3d, r28	; 61
    2730:	df 91       	pop	r29
    2732:	cf 91       	pop	r28
    2734:	1f 91       	pop	r17
    2736:	0f 91       	pop	r16
    2738:	ff 90       	pop	r15
    273a:	ef 90       	pop	r14
    273c:	df 90       	pop	r13
    273e:	cf 90       	pop	r12
    2740:	bf 90       	pop	r11
    2742:	af 90       	pop	r10
    2744:	9f 90       	pop	r9
    2746:	8f 90       	pop	r8
    2748:	7f 90       	pop	r7
    274a:	6f 90       	pop	r6
    274c:	5f 90       	pop	r5
    274e:	4f 90       	pop	r4
    2750:	3f 90       	pop	r3
    2752:	2f 90       	pop	r2
    2754:	08 95       	ret
size_t MyArduboy2::write(uint8_t c)
{
    if (c == '\n') {
        cursor_y += textSize * 6;
        cursor_x = 0;
    } else if (c >= ' ' && c <= '_') {
    2756:	20 ee       	ldi	r18, 0xE0	; 224
    2758:	26 0f       	add	r18, r22
    275a:	20 34       	cpi	r18, 0x40	; 64
    275c:	08 f7       	brcc	.-62     	; 0x2720 <_ZN10MyArduboy25writeEh+0x5e>
        drawChar(cursor_x, cursor_y, c, textColor, textBackground, textSize);
    275e:	10 91 05 01 	lds	r17, 0x0105	; 0x800105 <_ZN8Arduboy28textSizeE>
    2762:	20 91 73 03 	lds	r18, 0x0373	; 0x800373 <_ZN8Arduboy28cursor_xE>
    2766:	30 91 74 03 	lds	r19, 0x0374	; 0x800374 <_ZN8Arduboy28cursor_xE+0x1>
    276a:	38 87       	std	Y+8, r19	; 0x08
    276c:	2f 83       	std	Y+7, r18	; 0x07
    276e:	46 e0       	ldi	r20, 0x06	; 6
    2770:	14 9f       	mul	r17, r20
    2772:	90 01       	movw	r18, r0
    2774:	11 24       	eor	r1, r1
    2776:	3c 83       	std	Y+4, r19	; 0x04
    2778:	2b 83       	std	Y+3, r18	; 0x03

void MyArduboy2::drawChar(int16_t x, int16_t y, unsigned char c, uint8_t color, uint8_t bg, uint8_t size)
{
    bool draw_bg = bg != color;

    if (x >= WIDTH || y >= HEIGHT || x + 5 * size < 0 || y + 6 * size < 0) return;
    277a:	2f 81       	ldd	r18, Y+7	; 0x07
    277c:	38 85       	ldd	r19, Y+8	; 0x08
    277e:	20 38       	cpi	r18, 0x80	; 128
    2780:	31 05       	cpc	r19, r1
    2782:	0c f0       	brlt	.+2      	; 0x2786 <_ZN10MyArduboy25writeEh+0xc4>
    2784:	43 c0       	rjmp	.+134    	; 0x280c <_ZN10MyArduboy25writeEh+0x14a>
{
    if (c == '\n') {
        cursor_y += textSize * 6;
        cursor_x = 0;
    } else if (c >= ' ' && c <= '_') {
        drawChar(cursor_x, cursor_y, c, textColor, textBackground, textSize);
    2786:	80 90 71 03 	lds	r8, 0x0371	; 0x800371 <_ZN8Arduboy28cursor_yE>
    278a:	90 90 72 03 	lds	r9, 0x0372	; 0x800372 <_ZN8Arduboy28cursor_yE+0x1>

void MyArduboy2::drawChar(int16_t x, int16_t y, unsigned char c, uint8_t color, uint8_t bg, uint8_t size)
{
    bool draw_bg = bg != color;

    if (x >= WIDTH || y >= HEIGHT || x + 5 * size < 0 || y + 6 * size < 0) return;
    278e:	30 e4       	ldi	r19, 0x40	; 64
    2790:	83 16       	cp	r8, r19
    2792:	91 04       	cpc	r9, r1
    2794:	0c f0       	brlt	.+2      	; 0x2798 <_ZN10MyArduboy25writeEh+0xd6>
    2796:	3a c0       	rjmp	.+116    	; 0x280c <_ZN10MyArduboy25writeEh+0x14a>
    2798:	2f 81       	ldd	r18, Y+7	; 0x07
    279a:	38 85       	ldd	r19, Y+8	; 0x08
    279c:	45 e0       	ldi	r20, 0x05	; 5
    279e:	14 9f       	mul	r17, r20
    27a0:	20 0d       	add	r18, r0
    27a2:	31 1d       	adc	r19, r1
    27a4:	11 24       	eor	r1, r1
    27a6:	37 fd       	sbrc	r19, 7
    27a8:	31 c0       	rjmp	.+98     	; 0x280c <_ZN10MyArduboy25writeEh+0x14a>
    27aa:	2b 81       	ldd	r18, Y+3	; 0x03
    27ac:	3c 81       	ldd	r19, Y+4	; 0x04
    27ae:	28 0d       	add	r18, r8
    27b0:	39 1d       	adc	r19, r9
    27b2:	37 fd       	sbrc	r19, 7
    27b4:	2b c0       	rjmp	.+86     	; 0x280c <_ZN10MyArduboy25writeEh+0x14a>
    27b6:	9e 83       	std	Y+6, r25	; 0x06
    27b8:	8d 83       	std	Y+5, r24	; 0x05
{
    if (c == '\n') {
        cursor_y += textSize * 6;
        cursor_x = 0;
    } else if (c >= ' ' && c <= '_') {
        drawChar(cursor_x, cursor_y, c, textColor, textBackground, textSize);
    27ba:	f0 90 04 01 	lds	r15, 0x0104	; 0x800104 <_ZN8Arduboy29textColorE>
void MyArduboy2::drawChar(int16_t x, int16_t y, unsigned char c, uint8_t color, uint8_t bg, uint8_t size)
{
    bool draw_bg = bg != color;

    if (x >= WIDTH || y >= HEIGHT || x + 5 * size < 0 || y + 6 * size < 0) return;
    uint32_t ptn = pgm_read_dword(imgFont + (c - ' '));
    27be:	84 e0       	ldi	r24, 0x04	; 4
    27c0:	68 9f       	mul	r22, r24
    27c2:	f0 01       	movw	r30, r0
    27c4:	11 24       	eor	r1, r1
    27c6:	e6 5a       	subi	r30, 0xA6	; 166
    27c8:	ff 4f       	sbci	r31, 0xFF	; 255
    27ca:	45 90       	lpm	r4, Z+
    27cc:	55 90       	lpm	r5, Z+
    27ce:	65 90       	lpm	r6, Z+
    27d0:	74 90       	lpm	r7, Z
    if (size == 1) {
    27d2:	11 30       	cpi	r17, 0x01	; 1
    27d4:	71 f5       	brne	.+92     	; 0x2832 <_ZN10MyArduboy25writeEh+0x170>
    27d6:	af 80       	ldd	r10, Y+7	; 0x07
    27d8:	b8 84       	ldd	r11, Y+8	; 0x08
    27da:	16 e0       	ldi	r17, 0x06	; 6
    27dc:	d1 2c       	mov	r13, r1
    27de:	c1 2c       	mov	r12, r1
        for (int8_t i = 0; i < 6; i++) {
            for (int8_t j = 0; j < 6; j++) {
                bool draw_fg = ptn & 0x1;
                if (draw_fg || draw_bg) {
    27e0:	40 fc       	sbrc	r4, 0
    27e2:	1f c0       	rjmp	.+62     	; 0x2822 <_ZN10MyArduboy25writeEh+0x160>
                    drawPixel(x + i, y + j, (draw_fg) ? color : bg);
    27e4:	40 e0       	ldi	r20, 0x00	; 0
    uint32_t ptn = pgm_read_dword(imgFont + (c - ' '));
    if (size == 1) {
        for (int8_t i = 0; i < 6; i++) {
            for (int8_t j = 0; j < 6; j++) {
                bool draw_fg = ptn & 0x1;
                if (draw_fg || draw_bg) {
    27e6:	f1 10       	cpse	r15, r1
    27e8:	1d c0       	rjmp	.+58     	; 0x2824 <_ZN10MyArduboy25writeEh+0x162>
                    drawPixel(x + i, y + j, (draw_fg) ? color : bg);
                }
                ptn >>= 1;
    27ea:	76 94       	lsr	r7
    27ec:	67 94       	ror	r6
    27ee:	57 94       	ror	r5
    27f0:	47 94       	ror	r4
    27f2:	9f ef       	ldi	r25, 0xFF	; 255
    27f4:	c9 1a       	sub	r12, r25
    27f6:	d9 0a       	sbc	r13, r25

    if (x >= WIDTH || y >= HEIGHT || x + 5 * size < 0 || y + 6 * size < 0) return;
    uint32_t ptn = pgm_read_dword(imgFont + (c - ' '));
    if (size == 1) {
        for (int8_t i = 0; i < 6; i++) {
            for (int8_t j = 0; j < 6; j++) {
    27f8:	26 e0       	ldi	r18, 0x06	; 6
    27fa:	c2 16       	cp	r12, r18
    27fc:	d1 04       	cpc	r13, r1
    27fe:	81 f7       	brne	.-32     	; 0x27e0 <_ZN10MyArduboy25writeEh+0x11e>
    2800:	11 50       	subi	r17, 0x01	; 1
    2802:	3f ef       	ldi	r19, 0xFF	; 255
    2804:	a3 1a       	sub	r10, r19
    2806:	b3 0a       	sbc	r11, r19
    bool draw_bg = bg != color;

    if (x >= WIDTH || y >= HEIGHT || x + 5 * size < 0 || y + 6 * size < 0) return;
    uint32_t ptn = pgm_read_dword(imgFont + (c - ' '));
    if (size == 1) {
        for (int8_t i = 0; i < 6; i++) {
    2808:	11 11       	cpse	r17, r1
    280a:	e8 cf       	rjmp	.-48     	; 0x27dc <_ZN10MyArduboy25writeEh+0x11a>
    if (c == '\n') {
        cursor_y += textSize * 6;
        cursor_x = 0;
    } else if (c >= ' ' && c <= '_') {
        drawChar(cursor_x, cursor_y, c, textColor, textBackground, textSize);
        cursor_x += textSize * 6;
    280c:	8f 81       	ldd	r24, Y+7	; 0x07
    280e:	98 85       	ldd	r25, Y+8	; 0x08
    2810:	2b 81       	ldd	r18, Y+3	; 0x03
    2812:	3c 81       	ldd	r19, Y+4	; 0x04
    2814:	82 0f       	add	r24, r18
    2816:	93 1f       	adc	r25, r19
    2818:	90 93 74 03 	sts	0x0374, r25	; 0x800374 <_ZN8Arduboy28cursor_xE+0x1>
    281c:	80 93 73 03 	sts	0x0373, r24	; 0x800373 <_ZN8Arduboy28cursor_xE>
    2820:	7f cf       	rjmp	.-258    	; 0x2720 <_ZN10MyArduboy25writeEh+0x5e>
{
    if (c == '\n') {
        cursor_y += textSize * 6;
        cursor_x = 0;
    } else if (c >= ' ' && c <= '_') {
        drawChar(cursor_x, cursor_y, c, textColor, textBackground, textSize);
    2822:	4f 2d       	mov	r20, r15
    if (size == 1) {
        for (int8_t i = 0; i < 6; i++) {
            for (int8_t j = 0; j < 6; j++) {
                bool draw_fg = ptn & 0x1;
                if (draw_fg || draw_bg) {
                    drawPixel(x + i, y + j, (draw_fg) ? color : bg);
    2824:	b4 01       	movw	r22, r8
    2826:	6c 0d       	add	r22, r12
    2828:	7d 1d       	adc	r23, r13
    282a:	c5 01       	movw	r24, r10
    282c:	0e 94 4a 0a 	call	0x1494	; 0x1494 <_ZN12Arduboy2Base9drawPixelEiih>
    2830:	dc cf       	rjmp	.-72     	; 0x27ea <_ZN10MyArduboy25writeEh+0x128>
    2832:	81 2f       	mov	r24, r17
    2834:	90 e0       	ldi	r25, 0x00	; 0
    2836:	9a 83       	std	Y+2, r25	; 0x02
    2838:	89 83       	std	Y+1, r24	; 0x01
    283a:	cf 80       	ldd	r12, Y+7	; 0x07
    283c:	d8 84       	ldd	r13, Y+8	; 0x08
{
    bool draw_bg = bg != color;

    if (x >= WIDTH || y >= HEIGHT || x + 5 * size < 0 || y + 6 * size < 0) return;
    uint32_t ptn = pgm_read_dword(imgFont + (c - ' '));
    if (size == 1) {
    283e:	26 e0       	ldi	r18, 0x06	; 6
    2840:	32 2e       	mov	r3, r18
    2842:	54 01       	movw	r10, r8
    2844:	96 e0       	ldi	r25, 0x06	; 6
    2846:	29 2e       	mov	r2, r25
        }
    } else {
        for (int8_t i = 0; i < 6; i++) {
            for (int8_t j = 0; j < 6; j++) {
                bool draw_fg = ptn & 0x1;
                if (draw_fg || draw_bg) {
    2848:	40 fc       	sbrc	r4, 0
    284a:	14 c0       	rjmp	.+40     	; 0x2874 <_ZN10MyArduboy25writeEh+0x1b2>
                    fillRect(x + i * size, y + j * size, size, size, (draw_fg) ? color : bg);
    284c:	e1 2c       	mov	r14, r1
        }
    } else {
        for (int8_t i = 0; i < 6; i++) {
            for (int8_t j = 0; j < 6; j++) {
                bool draw_fg = ptn & 0x1;
                if (draw_fg || draw_bg) {
    284e:	f1 10       	cpse	r15, r1
    2850:	12 c0       	rjmp	.+36     	; 0x2876 <_ZN10MyArduboy25writeEh+0x1b4>
                    fillRect(x + i * size, y + j * size, size, size, (draw_fg) ? color : bg);
                }
                ptn >>= 1;
    2852:	76 94       	lsr	r7
    2854:	67 94       	ror	r6
    2856:	57 94       	ror	r5
    2858:	47 94       	ror	r4
    285a:	2a 94       	dec	r2
    285c:	29 81       	ldd	r18, Y+1	; 0x01
    285e:	3a 81       	ldd	r19, Y+2	; 0x02
    2860:	a2 0e       	add	r10, r18
    2862:	b3 1e       	adc	r11, r19
                ptn >>= 1;
            }
        }
    } else {
        for (int8_t i = 0; i < 6; i++) {
            for (int8_t j = 0; j < 6; j++) {
    2864:	21 10       	cpse	r2, r1
    2866:	f0 cf       	rjmp	.-32     	; 0x2848 <_ZN10MyArduboy25writeEh+0x186>
    2868:	3a 94       	dec	r3
    286a:	c2 0e       	add	r12, r18
    286c:	d3 1e       	adc	r13, r19
                }
                ptn >>= 1;
            }
        }
    } else {
        for (int8_t i = 0; i < 6; i++) {
    286e:	31 10       	cpse	r3, r1
    2870:	e8 cf       	rjmp	.-48     	; 0x2842 <_ZN10MyArduboy25writeEh+0x180>
    2872:	cc cf       	rjmp	.-104    	; 0x280c <_ZN10MyArduboy25writeEh+0x14a>
{
    if (c == '\n') {
        cursor_y += textSize * 6;
        cursor_x = 0;
    } else if (c >= ' ' && c <= '_') {
        drawChar(cursor_x, cursor_y, c, textColor, textBackground, textSize);
    2874:	ef 2c       	mov	r14, r15
    } else {
        for (int8_t i = 0; i < 6; i++) {
            for (int8_t j = 0; j < 6; j++) {
                bool draw_fg = ptn & 0x1;
                if (draw_fg || draw_bg) {
                    fillRect(x + i * size, y + j * size, size, size, (draw_fg) ? color : bg);
    2876:	01 2f       	mov	r16, r17
    2878:	21 2f       	mov	r18, r17
    287a:	a5 01       	movw	r20, r10
    287c:	b6 01       	movw	r22, r12
    287e:	8d 81       	ldd	r24, Y+5	; 0x05
    2880:	9e 81       	ldd	r25, Y+6	; 0x06
    2882:	0e 94 d1 12 	call	0x25a2	; 0x25a2 <_ZN10MyArduboy28fillRectEiihah>
    2886:	e5 cf       	rjmp	.-54     	; 0x2852 <_ZN10MyArduboy25writeEh+0x190>

00002888 <_ZN5Print5printEc.constprop.21>:
  return write(str);
}

size_t Print::print(char c)
{
  return write(c);
    2888:	0c 94 61 13 	jmp	0x26c2	; 0x26c2 <_ZN10MyArduboy25writeEh>

0000288c <_Z13printGameSeediim>:
        arduboy.print(s);
    }
}

void printGameSeed(int16_t x, int16_t y, uint32_t seed)
{
    288c:	8f 92       	push	r8
    288e:	9f 92       	push	r9
    2890:	af 92       	push	r10
    2892:	bf 92       	push	r11
    2894:	cf 92       	push	r12
    2896:	df 92       	push	r13
    2898:	ef 92       	push	r14
    289a:	ff 92       	push	r15
    289c:	cf 93       	push	r28
    289e:	df 93       	push	r29
    28a0:	69 01       	movw	r12, r18
    28a2:	7a 01       	movw	r14, r20
  }
}

void Arduboy2::setCursor(int16_t x, int16_t y)
{
  cursor_x = x;
    28a4:	90 93 74 03 	sts	0x0374, r25	; 0x800374 <_ZN8Arduboy28cursor_xE+0x1>
    28a8:	80 93 73 03 	sts	0x0373, r24	; 0x800373 <_ZN8Arduboy28cursor_xE>
  cursor_y = y;
    28ac:	70 93 72 03 	sts	0x0372, r23	; 0x800372 <_ZN8Arduboy28cursor_yE+0x1>
    28b0:	60 93 71 03 	sts	0x0371, r22	; 0x800371 <_ZN8Arduboy28cursor_yE>
    28b4:	c5 e0       	ldi	r28, 0x05	; 5
    28b6:	d0 e0       	ldi	r29, 0x00	; 0
    arduboy.setCursor(x, y);
    for (int i = 0; i < GAME_SEED_TOKEN_MAX; i++) {
        int token = seed % GAME_SEED_TOKEN_VAL;
    28b8:	8b e1       	ldi	r24, 0x1B	; 27
    28ba:	88 2e       	mov	r8, r24
    28bc:	91 2c       	mov	r9, r1
    28be:	a1 2c       	mov	r10, r1
    28c0:	b1 2c       	mov	r11, r1
    28c2:	c7 01       	movw	r24, r14
    28c4:	b6 01       	movw	r22, r12
    28c6:	a5 01       	movw	r20, r10
    28c8:	94 01       	movw	r18, r8
    28ca:	0e 94 73 2c 	call	0x58e6	; 0x58e6 <__udivmodsi4>
        char c = (token < GAME_SEED_TOKEN_ALP) ? 'A' + token : '.';
    28ce:	6a 31       	cpi	r22, 0x1A	; 26
    28d0:	71 05       	cpc	r23, r1
    28d2:	d1 f0       	breq	.+52     	; 0x2908 <_Z13printGameSeediim+0x7c>
    28d4:	6f 5b       	subi	r22, 0xBF	; 191
        arduboy.print(c);
    28d6:	8d ed       	ldi	r24, 0xDD	; 221
    28d8:	97 e0       	ldi	r25, 0x07	; 7
    28da:	0e 94 44 14 	call	0x2888	; 0x2888 <_ZN5Print5printEc.constprop.21>
        seed /= GAME_SEED_TOKEN_VAL;
    28de:	c7 01       	movw	r24, r14
    28e0:	b6 01       	movw	r22, r12
    28e2:	a5 01       	movw	r20, r10
    28e4:	94 01       	movw	r18, r8
    28e6:	0e 94 73 2c 	call	0x58e6	; 0x58e6 <__udivmodsi4>
    28ea:	69 01       	movw	r12, r18
    28ec:	7a 01       	movw	r14, r20
    28ee:	21 97       	sbiw	r28, 0x01	; 1
}

void printGameSeed(int16_t x, int16_t y, uint32_t seed)
{
    arduboy.setCursor(x, y);
    for (int i = 0; i < GAME_SEED_TOKEN_MAX; i++) {
    28f0:	41 f7       	brne	.-48     	; 0x28c2 <_Z13printGameSeediim+0x36>
        int token = seed % GAME_SEED_TOKEN_VAL;
        char c = (token < GAME_SEED_TOKEN_ALP) ? 'A' + token : '.';
        arduboy.print(c);
        seed /= GAME_SEED_TOKEN_VAL;
    }
}
    28f2:	df 91       	pop	r29
    28f4:	cf 91       	pop	r28
    28f6:	ff 90       	pop	r15
    28f8:	ef 90       	pop	r14
    28fa:	df 90       	pop	r13
    28fc:	cf 90       	pop	r12
    28fe:	bf 90       	pop	r11
    2900:	af 90       	pop	r10
    2902:	9f 90       	pop	r9
    2904:	8f 90       	pop	r8
    2906:	08 95       	ret
void printGameSeed(int16_t x, int16_t y, uint32_t seed)
{
    arduboy.setCursor(x, y);
    for (int i = 0; i < GAME_SEED_TOKEN_MAX; i++) {
        int token = seed % GAME_SEED_TOKEN_VAL;
        char c = (token < GAME_SEED_TOKEN_ALP) ? 'A' + token : '.';
    2908:	6e e2       	ldi	r22, 0x2E	; 46
    290a:	e5 cf       	rjmp	.-54     	; 0x28d6 <_Z13printGameSeediim+0x4a>

0000290c <_ZN10MyArduboy27printExIPK19__FlashStringHelperEEjiiT_.constprop.13>:
    bool    buttonDown(uint8_t buttons);
    bool    buttonPressed(uint8_t buttons);
    bool    buttonUp(uint8_t buttons);
    void    setTextColors(uint8_t color, uint8_t bg);
    virtual size_t write(uint8_t);
    template <typename T> size_t printEx(int16_t x, int16_t y, T p) { setCursor(x, y); return print(p); }
    290c:	0f 93       	push	r16
    290e:	1f 93       	push	r17
    2910:	cf 93       	push	r28
    2912:	df 93       	push	r29
    2914:	8a 01       	movw	r16, r20
  }
}

void Arduboy2::setCursor(int16_t x, int16_t y)
{
  cursor_x = x;
    2916:	90 93 74 03 	sts	0x0374, r25	; 0x800374 <_ZN8Arduboy28cursor_xE+0x1>
    291a:	80 93 73 03 	sts	0x0373, r24	; 0x800373 <_ZN8Arduboy28cursor_xE>
  cursor_y = y;
    291e:	70 93 72 03 	sts	0x0372, r23	; 0x800372 <_ZN8Arduboy28cursor_yE+0x1>
    2922:	60 93 71 03 	sts	0x0371, r22	; 0x800371 <_ZN8Arduboy28cursor_yE>
}

size_t Print::print(const __FlashStringHelper *ifsh)
{
  PGM_P p = reinterpret_cast<PGM_P>(ifsh);
  size_t n = 0;
    2926:	d0 e0       	ldi	r29, 0x00	; 0
    2928:	c0 e0       	ldi	r28, 0x00	; 0
  while (1) {
    unsigned char c = pgm_read_byte(p++);
    292a:	f8 01       	movw	r30, r16
    292c:	ec 0f       	add	r30, r28
    292e:	fd 1f       	adc	r31, r29
    2930:	64 91       	lpm	r22, Z
    if (c == 0) break;
    2932:	66 23       	and	r22, r22
    2934:	41 f0       	breq	.+16     	; 0x2946 <_ZN10MyArduboy27printExIPK19__FlashStringHelperEEjiiT_.constprop.13+0x3a>
    if (write(c)) n++;
    2936:	8d ed       	ldi	r24, 0xDD	; 221
    2938:	97 e0       	ldi	r25, 0x07	; 7
    293a:	0e 94 61 13 	call	0x26c2	; 0x26c2 <_ZN10MyArduboy25writeEh>
    293e:	89 2b       	or	r24, r25
    2940:	11 f0       	breq	.+4      	; 0x2946 <_ZN10MyArduboy27printExIPK19__FlashStringHelperEEjiiT_.constprop.13+0x3a>
    2942:	21 96       	adiw	r28, 0x01	; 1
    2944:	f2 cf       	rjmp	.-28     	; 0x292a <_ZN10MyArduboy27printExIPK19__FlashStringHelperEEjiiT_.constprop.13+0x1e>
    2946:	ce 01       	movw	r24, r28
    2948:	df 91       	pop	r29
    294a:	cf 91       	pop	r28
    294c:	1f 91       	pop	r17
    294e:	0f 91       	pop	r16
    2950:	08 95       	ret

00002952 <_ZL13drawCodeEntryv>:
{
    if (isInvalid) drawText(creditText, 11);
}

static void drawCodeEntry(void)
{
    2952:	cf 92       	push	r12
    2954:	df 92       	push	r13
    2956:	ef 92       	push	r14
    2958:	0f 93       	push	r16
    295a:	cf 93       	push	r28
    if (isInvalid) {
    295c:	80 91 4b 03 	lds	r24, 0x034B	; 0x80034b <isInvalid>
    2960:	88 23       	and	r24, r24
    2962:	c1 f0       	breq	.+48     	; 0x2994 <_ZL13drawCodeEntryv+0x42>
        drawTitleLogo();
    2964:	0e 94 68 0a 	call	0x14d0	; 0x14d0 <_ZL13drawTitleLogov>
        arduboy.printEx(28, 57, F("CANCEL   START"));
    2968:	40 e5       	ldi	r20, 0x50	; 80
    296a:	59 e0       	ldi	r21, 0x09	; 9
    296c:	69 e3       	ldi	r22, 0x39	; 57
    296e:	70 e0       	ldi	r23, 0x00	; 0
    2970:	8c e1       	ldi	r24, 0x1C	; 28
    2972:	90 e0       	ldi	r25, 0x00	; 0
    2974:	0e 94 86 14 	call	0x290c	; 0x290c <_ZN10MyArduboy27printExIPK19__FlashStringHelperEEjiiT_.constprop.13>
        drawButtonIcon(16, 56, false);
    2978:	40 e0       	ldi	r20, 0x00	; 0
    297a:	68 e3       	ldi	r22, 0x38	; 56
    297c:	70 e0       	ldi	r23, 0x00	; 0
    297e:	80 e1       	ldi	r24, 0x10	; 16
    2980:	90 e0       	ldi	r25, 0x00	; 0
    2982:	0e 94 20 0d 	call	0x1a40	; 0x1a40 <_Z14drawButtonIconiib>
        drawButtonIcon(70, 56, true);
    2986:	41 e0       	ldi	r20, 0x01	; 1
    2988:	68 e3       	ldi	r22, 0x38	; 56
    298a:	70 e0       	ldi	r23, 0x00	; 0
    298c:	86 e4       	ldi	r24, 0x46	; 70
    298e:	90 e0       	ldi	r25, 0x00	; 0
    2990:	0e 94 20 0d 	call	0x1a40	; 0x1a40 <_Z14drawButtonIconiib>
    }
    if (isSettingChenged) {
    2994:	80 91 4a 03 	lds	r24, 0x034A	; 0x80034a <_ZL16isSettingChenged>
    2998:	88 23       	and	r24, r24
    299a:	19 f1       	breq	.+70     	; 0x29e2 <_ZL13drawCodeEntryv+0x90>
        if (!isInvalid) arduboy.fillRect(37, 33, 54, 18, BLACK);
    299c:	80 91 4b 03 	lds	r24, 0x034B	; 0x80034b <isInvalid>
    29a0:	81 11       	cpse	r24, r1
    29a2:	0b c0       	rjmp	.+22     	; 0x29ba <_ZL13drawCodeEntryv+0x68>
    29a4:	e1 2c       	mov	r14, r1
    29a6:	02 e1       	ldi	r16, 0x12	; 18
    29a8:	26 e3       	ldi	r18, 0x36	; 54
    29aa:	41 e2       	ldi	r20, 0x21	; 33
    29ac:	50 e0       	ldi	r21, 0x00	; 0
    29ae:	65 e2       	ldi	r22, 0x25	; 37
    29b0:	70 e0       	ldi	r23, 0x00	; 0
    29b2:	8d ed       	ldi	r24, 0xDD	; 221
    29b4:	97 e0       	ldi	r25, 0x07	; 7
    29b6:	0e 94 d1 12 	call	0x25a2	; 0x25a2 <_ZN10MyArduboy28fillRectEiihah>
}

void Arduboy2::setTextSize(uint8_t s)
{
  // size must always be 1 or higher
  textSize = max(1, s);
    29ba:	82 e0       	ldi	r24, 0x02	; 2
    29bc:	80 93 05 01 	sts	0x0105, r24	; 0x800105 <_ZN8Arduboy28textSizeE>
        arduboy.setTextSize(2);
        printGameSeed(35, 37, gameSeedTmp);
    29c0:	20 91 46 03 	lds	r18, 0x0346	; 0x800346 <_ZL11gameSeedTmp>
    29c4:	30 91 47 03 	lds	r19, 0x0347	; 0x800347 <_ZL11gameSeedTmp+0x1>
    29c8:	40 91 48 03 	lds	r20, 0x0348	; 0x800348 <_ZL11gameSeedTmp+0x2>
    29cc:	50 91 49 03 	lds	r21, 0x0349	; 0x800349 <_ZL11gameSeedTmp+0x3>
    29d0:	65 e2       	ldi	r22, 0x25	; 37
    29d2:	70 e0       	ldi	r23, 0x00	; 0
    29d4:	83 e2       	ldi	r24, 0x23	; 35
    29d6:	90 e0       	ldi	r25, 0x00	; 0
    29d8:	0e 94 46 14 	call	0x288c	; 0x288c <_Z13printGameSeediim>
    29dc:	81 e0       	ldi	r24, 0x01	; 1
    29de:	80 93 05 01 	sts	0x0105, r24	; 0x800105 <_ZN8Arduboy28textSizeE>
    29e2:	c0 91 45 03 	lds	r28, 0x0345	; 0x800345 <counter>
        arduboy.setTextSize(1);
    }
    if (isSettingChenged || (counter & 3) == 0) {
    29e6:	80 91 4a 03 	lds	r24, 0x034A	; 0x80034a <_ZL16isSettingChenged>
    29ea:	81 11       	cpse	r24, r1
    29ec:	03 c0       	rjmp	.+6      	; 0x29f4 <_ZL13drawCodeEntryv+0xa2>
    29ee:	8c 2f       	mov	r24, r28
    29f0:	83 70       	andi	r24, 0x03	; 3
    29f2:	f1 f4       	brne	.+60     	; 0x2a30 <_ZL13drawCodeEntryv+0xde>
        uint8_t color = bitRead(counter, 2);
    29f4:	c2 fb       	bst	r28, 2
    29f6:	cc 27       	eor	r28, r28
    29f8:	c0 f9       	bld	r28, 0
        int16_t dx = 37 + gameSeedX * 12;
    29fa:	c0 90 44 03 	lds	r12, 0x0344	; 0x800344 <_ZL9gameSeedX>
    29fe:	8c e0       	ldi	r24, 0x0C	; 12
    2a00:	c8 9e       	mul	r12, r24
    2a02:	60 01       	movw	r12, r0
    2a04:	11 24       	eor	r1, r1
    2a06:	85 e2       	ldi	r24, 0x25	; 37
    2a08:	c8 0e       	add	r12, r24
    2a0a:	d1 1c       	adc	r13, r1
        arduboy.drawBitmap(dx, 32, imgSpinners[0], IMG_SPINNERS_W, IMG_SPINNERS_H, color);
    2a0c:	ec 2e       	mov	r14, r28
    2a0e:	03 e0       	ldi	r16, 0x03	; 3
    2a10:	26 e0       	ldi	r18, 0x06	; 6
    2a12:	44 e4       	ldi	r20, 0x44	; 68
    2a14:	59 e0       	ldi	r21, 0x09	; 9
    2a16:	60 e2       	ldi	r22, 0x20	; 32
    2a18:	70 e0       	ldi	r23, 0x00	; 0
    2a1a:	c6 01       	movw	r24, r12
    2a1c:	0e 94 07 09 	call	0x120e	; 0x120e <_ZN12Arduboy2Base10drawBitmapEiiPKhhhh>
        arduboy.drawBitmap(dx, 48, imgSpinners[1], IMG_SPINNERS_W, IMG_SPINNERS_H, color);
    2a20:	26 e0       	ldi	r18, 0x06	; 6
    2a22:	4a e4       	ldi	r20, 0x4A	; 74
    2a24:	59 e0       	ldi	r21, 0x09	; 9
    2a26:	60 e3       	ldi	r22, 0x30	; 48
    2a28:	70 e0       	ldi	r23, 0x00	; 0
    2a2a:	c6 01       	movw	r24, r12
    2a2c:	0e 94 07 09 	call	0x120e	; 0x120e <_ZN12Arduboy2Base10drawBitmapEiiPKhhhh>
    }
    isSettingChenged = false;
    2a30:	10 92 4a 03 	sts	0x034A, r1	; 0x80034a <_ZL16isSettingChenged>
}
    2a34:	cf 91       	pop	r28
    2a36:	0f 91       	pop	r16
    2a38:	ef 90       	pop	r14
    2a3a:	df 90       	pop	r13
    2a3c:	cf 90       	pop	r12
    2a3e:	08 95       	ret

00002a40 <_Z8drawLogov>:
    }
    return MODE_LOGO;
}

void drawLogo(void)
{
    2a40:	6f 92       	push	r6
    2a42:	7f 92       	push	r7
    2a44:	8f 92       	push	r8
    2a46:	9f 92       	push	r9
    2a48:	af 92       	push	r10
    2a4a:	bf 92       	push	r11
    2a4c:	cf 92       	push	r12
    2a4e:	df 92       	push	r13
    2a50:	ef 92       	push	r14
    2a52:	0f 93       	push	r16
    2a54:	cf 93       	push	r28
    2a56:	df 93       	push	r29
    bool isSignalOn = (SIGNAL_PTN >> (counter - FPS / 4) / (FPS / 20)) & 1;
    2a58:	80 91 45 03 	lds	r24, 0x0345	; 0x800345 <counter>
    2a5c:	8f 50       	subi	r24, 0x0F	; 15
    2a5e:	99 0b       	sbc	r25, r25
    2a60:	63 e0       	ldi	r22, 0x03	; 3
    2a62:	70 e0       	ldi	r23, 0x00	; 0
    2a64:	0e 94 d4 2f 	call	0x5fa8	; 0x5fa8 <__divmodhi4>
    2a68:	8a e3       	ldi	r24, 0x3A	; 58
    2a6a:	9a ea       	ldi	r25, 0xAA	; 170
    2a6c:	a3 ee       	ldi	r26, 0xE3	; 227
    2a6e:	be ee       	ldi	r27, 0xEE	; 238
    2a70:	04 c0       	rjmp	.+8      	; 0x2a7a <_Z8drawLogov+0x3a>
    2a72:	b6 95       	lsr	r27
    2a74:	a7 95       	ror	r26
    2a76:	97 95       	ror	r25
    2a78:	87 95       	ror	r24
    2a7a:	6a 95       	dec	r22
    2a7c:	d2 f7       	brpl	.-12     	; 0x2a72 <_Z8drawLogov+0x32>
    2a7e:	c8 2f       	mov	r28, r24
    2a80:	c1 70       	andi	r28, 0x01	; 1
    arduboy.setRGBled(0, 0, isSignalOn * 127);
    2a82:	8f e7       	ldi	r24, 0x7F	; 127
    2a84:	c8 9f       	mul	r28, r24
    2a86:	80 2d       	mov	r24, r0
    2a88:	11 24       	eor	r1, r1
{
#ifdef ARDUBOY_10 // RGB, all the pretty colors
  // timer 0: Fast PWM, OC0A clear on compare / set at top
  // We must stay in Fast PWM mode because timer 0 is used for system timing.
  // We can't use "inverted" mode because it won't allow full shut off.
  TCCR0A = _BV(COM0A1) | _BV(WGM01) | _BV(WGM00);
    2a8a:	93 e8       	ldi	r25, 0x83	; 131
    2a8c:	94 bd       	out	0x24, r25	; 36
  OCR0A = 255 - green;
